
HackIRRemote.elf:     file format elf32-avr

Sections:
Idx Name          Size      VMA       LMA       File off  Algn
  0 .data         000000c8  00800100  00003606  0000369a  2**0
                  CONTENTS, ALLOC, LOAD, DATA
  1 .text         00003606  00000000  00000000  00000094  2**1
                  CONTENTS, ALLOC, LOAD, READONLY, CODE
  2 .bss          00000115  008001c8  008001c8  00003762  2**0
                  ALLOC
  3 .comment      0000005c  00000000  00000000  00003762  2**0
                  CONTENTS, READONLY
  4 .note.gnu.avr.deviceinfo 00000040  00000000  00000000  000037c0  2**2
                  CONTENTS, READONLY
  5 .debug_aranges 00000478  00000000  00000000  00003800  2**3
                  CONTENTS, READONLY, DEBUGGING
  6 .debug_info   000048f4  00000000  00000000  00003c78  2**0
                  CONTENTS, READONLY, DEBUGGING
  7 .debug_abbrev 0000160a  00000000  00000000  0000856c  2**0
                  CONTENTS, READONLY, DEBUGGING
  8 .debug_line   00002f57  00000000  00000000  00009b76  2**0
                  CONTENTS, READONLY, DEBUGGING
  9 .debug_frame  00000e78  00000000  00000000  0000cad0  2**2
                  CONTENTS, READONLY, DEBUGGING
 10 .debug_str    00000c54  00000000  00000000  0000d948  2**0
                  CONTENTS, READONLY, DEBUGGING
 11 .debug_loc    00004065  00000000  00000000  0000e59c  2**0
                  CONTENTS, READONLY, DEBUGGING
 12 .debug_ranges 00000398  00000000  00000000  00012601  2**0
                  CONTENTS, READONLY, DEBUGGING

Disassembly of section .text:

00000000 <__vectors>:
       0:	e3 c0       	rjmp	.+454    	; 0x1c8 <__ctors_end>
       2:	00 00       	nop
       4:	fe c0       	rjmp	.+508    	; 0x202 <__bad_interrupt>
       6:	00 00       	nop
       8:	fc c0       	rjmp	.+504    	; 0x202 <__bad_interrupt>
       a:	00 00       	nop
       c:	fa c0       	rjmp	.+500    	; 0x202 <__bad_interrupt>
       e:	00 00       	nop
      10:	f8 c0       	rjmp	.+496    	; 0x202 <__bad_interrupt>
      12:	00 00       	nop
      14:	f6 c0       	rjmp	.+492    	; 0x202 <__bad_interrupt>
      16:	00 00       	nop
      18:	f4 c0       	rjmp	.+488    	; 0x202 <__bad_interrupt>
      1a:	00 00       	nop
      1c:	0c 94 df 14 	jmp	0x29be	; 0x29be <__vector_7>
      20:	f0 c0       	rjmp	.+480    	; 0x202 <__bad_interrupt>
      22:	00 00       	nop
      24:	ee c0       	rjmp	.+476    	; 0x202 <__bad_interrupt>
      26:	00 00       	nop
      28:	ec c0       	rjmp	.+472    	; 0x202 <__bad_interrupt>
      2a:	00 00       	nop
      2c:	ea c0       	rjmp	.+468    	; 0x202 <__bad_interrupt>
      2e:	00 00       	nop
      30:	e8 c0       	rjmp	.+464    	; 0x202 <__bad_interrupt>
      32:	00 00       	nop
      34:	e6 c0       	rjmp	.+460    	; 0x202 <__bad_interrupt>
      36:	00 00       	nop
      38:	0c 94 bc 14 	jmp	0x2978	; 0x2978 <__vector_14>
      3c:	e2 c0       	rjmp	.+452    	; 0x202 <__bad_interrupt>
      3e:	00 00       	nop
      40:	e0 c0       	rjmp	.+448    	; 0x202 <__bad_interrupt>
      42:	00 00       	nop
      44:	de c0       	rjmp	.+444    	; 0x202 <__bad_interrupt>
      46:	00 00       	nop
      48:	dc c0       	rjmp	.+440    	; 0x202 <__bad_interrupt>
      4a:	00 00       	nop
      4c:	da c0       	rjmp	.+436    	; 0x202 <__bad_interrupt>
      4e:	00 00       	nop
      50:	d8 c0       	rjmp	.+432    	; 0x202 <__bad_interrupt>
      52:	00 00       	nop
      54:	d6 c0       	rjmp	.+428    	; 0x202 <__bad_interrupt>
      56:	00 00       	nop
      58:	d4 c0       	rjmp	.+424    	; 0x202 <__bad_interrupt>
      5a:	00 00       	nop
      5c:	d2 c0       	rjmp	.+420    	; 0x202 <__bad_interrupt>
      5e:	00 00       	nop
      60:	d0 c0       	rjmp	.+416    	; 0x202 <__bad_interrupt>
      62:	00 00       	nop
      64:	ce c0       	rjmp	.+412    	; 0x202 <__bad_interrupt>
      66:	00 00       	nop
      68:	5e 03       	fmul	r21, r22
      6a:	5e 03       	fmul	r21, r22
      6c:	65 03       	mulsu	r22, r21
      6e:	5e 03       	fmul	r21, r22
      70:	65 03       	mulsu	r22, r21
      72:	65 03       	mulsu	r22, r21
      74:	65 03       	mulsu	r22, r21
      76:	65 03       	mulsu	r22, r21
      78:	5e 03       	fmul	r21, r22
      7a:	5e 03       	fmul	r21, r22
      7c:	65 03       	mulsu	r22, r21
      7e:	5e 03       	fmul	r21, r22
      80:	65 03       	mulsu	r22, r21
      82:	65 03       	mulsu	r22, r21
      84:	65 03       	mulsu	r22, r21
      86:	65 03       	mulsu	r22, r21
      88:	65 03       	mulsu	r22, r21
      8a:	65 03       	mulsu	r22, r21
      8c:	65 03       	mulsu	r22, r21
      8e:	65 03       	mulsu	r22, r21
      90:	65 03       	mulsu	r22, r21
      92:	65 03       	mulsu	r22, r21
      94:	65 03       	mulsu	r22, r21
      96:	65 03       	mulsu	r22, r21
      98:	5e 03       	fmul	r21, r22
      9a:	5e 03       	fmul	r21, r22
      9c:	65 03       	mulsu	r22, r21
      9e:	5e 03       	fmul	r21, r22
      a0:	65 03       	mulsu	r22, r21
      a2:	65 03       	mulsu	r22, r21
      a4:	65 03       	mulsu	r22, r21
      a6:	65 03       	mulsu	r22, r21
      a8:	65 03       	mulsu	r22, r21
      aa:	65 03       	mulsu	r22, r21
      ac:	65 03       	mulsu	r22, r21
      ae:	65 03       	mulsu	r22, r21
      b0:	65 03       	mulsu	r22, r21
      b2:	65 03       	mulsu	r22, r21
      b4:	65 03       	mulsu	r22, r21
      b6:	65 03       	mulsu	r22, r21
      b8:	65 03       	mulsu	r22, r21
      ba:	65 03       	mulsu	r22, r21
      bc:	65 03       	mulsu	r22, r21
      be:	65 03       	mulsu	r22, r21
      c0:	65 03       	mulsu	r22, r21
      c2:	65 03       	mulsu	r22, r21
      c4:	65 03       	mulsu	r22, r21
      c6:	65 03       	mulsu	r22, r21
      c8:	65 03       	mulsu	r22, r21
      ca:	65 03       	mulsu	r22, r21
      cc:	65 03       	mulsu	r22, r21
      ce:	65 03       	mulsu	r22, r21
      d0:	65 03       	mulsu	r22, r21
      d2:	65 03       	mulsu	r22, r21
      d4:	65 03       	mulsu	r22, r21
      d6:	65 03       	mulsu	r22, r21
      d8:	5e 03       	fmul	r21, r22
      da:	5e 03       	fmul	r21, r22
      dc:	65 03       	mulsu	r22, r21
      de:	5e 03       	fmul	r21, r22
      e0:	58 04       	cpc	r5, r8
      e2:	5e 04       	cpc	r5, r14
      e4:	99 04       	cpc	r9, r9
      e6:	64 04       	cpc	r6, r4
      e8:	99 04       	cpc	r9, r9
      ea:	99 04       	cpc	r9, r9
      ec:	99 04       	cpc	r9, r9
      ee:	99 04       	cpc	r9, r9
      f0:	6a 04       	cpc	r6, r10
      f2:	70 04       	cpc	r7, r0
      f4:	99 04       	cpc	r9, r9
      f6:	76 04       	cpc	r7, r6
      f8:	99 04       	cpc	r9, r9
      fa:	99 04       	cpc	r9, r9
      fc:	99 04       	cpc	r9, r9
      fe:	99 04       	cpc	r9, r9
     100:	99 04       	cpc	r9, r9
     102:	99 04       	cpc	r9, r9
     104:	99 04       	cpc	r9, r9
     106:	99 04       	cpc	r9, r9
     108:	99 04       	cpc	r9, r9
     10a:	99 04       	cpc	r9, r9
     10c:	99 04       	cpc	r9, r9
     10e:	99 04       	cpc	r9, r9
     110:	7c 04       	cpc	r7, r12
     112:	82 04       	cpc	r8, r2
     114:	99 04       	cpc	r9, r9
     116:	88 04       	cpc	r8, r8
     118:	99 04       	cpc	r9, r9
     11a:	99 04       	cpc	r9, r9
     11c:	99 04       	cpc	r9, r9
     11e:	99 04       	cpc	r9, r9
     120:	99 04       	cpc	r9, r9
     122:	99 04       	cpc	r9, r9
     124:	99 04       	cpc	r9, r9
     126:	99 04       	cpc	r9, r9
     128:	99 04       	cpc	r9, r9
     12a:	99 04       	cpc	r9, r9
     12c:	99 04       	cpc	r9, r9
     12e:	99 04       	cpc	r9, r9
     130:	99 04       	cpc	r9, r9
     132:	99 04       	cpc	r9, r9
     134:	99 04       	cpc	r9, r9
     136:	99 04       	cpc	r9, r9
     138:	99 04       	cpc	r9, r9
     13a:	99 04       	cpc	r9, r9
     13c:	99 04       	cpc	r9, r9
     13e:	99 04       	cpc	r9, r9
     140:	99 04       	cpc	r9, r9
     142:	99 04       	cpc	r9, r9
     144:	99 04       	cpc	r9, r9
     146:	99 04       	cpc	r9, r9
     148:	99 04       	cpc	r9, r9
     14a:	99 04       	cpc	r9, r9
     14c:	99 04       	cpc	r9, r9
     14e:	99 04       	cpc	r9, r9
     150:	8e 04       	cpc	r8, r14
     152:	4e 04       	cpc	r4, r14
     154:	46 05       	cpc	r20, r6
     156:	4c 05       	cpc	r20, r12
     158:	7c 05       	cpc	r23, r12
     15a:	52 05       	cpc	r21, r2
     15c:	7c 05       	cpc	r23, r12
     15e:	7c 05       	cpc	r23, r12
     160:	7c 05       	cpc	r23, r12
     162:	7c 05       	cpc	r23, r12
     164:	58 05       	cpc	r21, r8
     166:	5e 05       	cpc	r21, r14
     168:	7c 05       	cpc	r23, r12
     16a:	64 05       	cpc	r22, r4
     16c:	7c 05       	cpc	r23, r12
     16e:	7c 05       	cpc	r23, r12
     170:	7c 05       	cpc	r23, r12
     172:	7c 05       	cpc	r23, r12
     174:	7c 05       	cpc	r23, r12
     176:	7c 05       	cpc	r23, r12
     178:	7c 05       	cpc	r23, r12
     17a:	7c 05       	cpc	r23, r12
     17c:	7c 05       	cpc	r23, r12
     17e:	7c 05       	cpc	r23, r12
     180:	7c 05       	cpc	r23, r12
     182:	7c 05       	cpc	r23, r12
     184:	6a 05       	cpc	r22, r10
     186:	70 05       	cpc	r23, r0
     188:	7c 05       	cpc	r23, r12
     18a:	76 05       	cpc	r23, r6
     18c:	7c 05       	cpc	r23, r12
     18e:	7c 05       	cpc	r23, r12
     190:	7c 05       	cpc	r23, r12
     192:	7c 05       	cpc	r23, r12
     194:	7c 05       	cpc	r23, r12
     196:	7c 05       	cpc	r23, r12
     198:	7c 05       	cpc	r23, r12
     19a:	7c 05       	cpc	r23, r12
     19c:	7c 05       	cpc	r23, r12
     19e:	7c 05       	cpc	r23, r12
     1a0:	7c 05       	cpc	r23, r12
     1a2:	7c 05       	cpc	r23, r12
     1a4:	7c 05       	cpc	r23, r12
     1a6:	7c 05       	cpc	r23, r12
     1a8:	7c 05       	cpc	r23, r12
     1aa:	7c 05       	cpc	r23, r12
     1ac:	7c 05       	cpc	r23, r12
     1ae:	7c 05       	cpc	r23, r12
     1b0:	7c 05       	cpc	r23, r12
     1b2:	7c 05       	cpc	r23, r12
     1b4:	7c 05       	cpc	r23, r12
     1b6:	7c 05       	cpc	r23, r12
     1b8:	7c 05       	cpc	r23, r12
     1ba:	7c 05       	cpc	r23, r12
     1bc:	7c 05       	cpc	r23, r12
     1be:	7c 05       	cpc	r23, r12
     1c0:	7c 05       	cpc	r23, r12
     1c2:	7c 05       	cpc	r23, r12
     1c4:	7c 05       	cpc	r23, r12
     1c6:	40 05       	cpc	r20, r0

000001c8 <__ctors_end>:
     1c8:	11 24       	eor	r1, r1
     1ca:	1f be       	out	0x3f, r1	; 63
     1cc:	cf ef       	ldi	r28, 0xFF	; 255
     1ce:	d8 e0       	ldi	r29, 0x08	; 8
     1d0:	de bf       	out	0x3e, r29	; 62
     1d2:	cd bf       	out	0x3d, r28	; 61

000001d4 <__do_copy_data>:
     1d4:	11 e0       	ldi	r17, 0x01	; 1
     1d6:	a0 e0       	ldi	r26, 0x00	; 0
     1d8:	b1 e0       	ldi	r27, 0x01	; 1
     1da:	e6 e0       	ldi	r30, 0x06	; 6
     1dc:	f6 e3       	ldi	r31, 0x36	; 54
     1de:	02 c0       	rjmp	.+4      	; 0x1e4 <__do_copy_data+0x10>
     1e0:	05 90       	lpm	r0, Z+
     1e2:	0d 92       	st	X+, r0
     1e4:	a8 3c       	cpi	r26, 0xC8	; 200
     1e6:	b1 07       	cpc	r27, r17
     1e8:	d9 f7       	brne	.-10     	; 0x1e0 <__do_copy_data+0xc>

000001ea <__do_clear_bss>:
     1ea:	22 e0       	ldi	r18, 0x02	; 2
     1ec:	a8 ec       	ldi	r26, 0xC8	; 200
     1ee:	b1 e0       	ldi	r27, 0x01	; 1
     1f0:	01 c0       	rjmp	.+2      	; 0x1f4 <.do_clear_bss_start>

000001f2 <.do_clear_bss_loop>:
     1f2:	1d 92       	st	X+, r1

000001f4 <.do_clear_bss_start>:
     1f4:	ad 3d       	cpi	r26, 0xDD	; 221
     1f6:	b2 07       	cpc	r27, r18
     1f8:	e1 f7       	brne	.-8      	; 0x1f2 <.do_clear_bss_loop>
     1fa:	0e 94 85 14 	call	0x290a	; 0x290a <main>
     1fe:	0c 94 01 1b 	jmp	0x3602	; 0x3602 <_exit>

00000202 <__bad_interrupt>:
     202:	fe ce       	rjmp	.-516    	; 0x0 <__vectors>

00000204 <saveCode>:
 *  Author: CDT
 */ 
#include "eeprom.h"

void saveCode(decode_results *dec_results, uint8_t offset)
{
     204:	df 92       	push	r13
     206:	ef 92       	push	r14
     208:	ff 92       	push	r15
     20a:	0f 93       	push	r16
     20c:	1f 93       	push	r17
     20e:	cf 93       	push	r28
     210:	df 93       	push	r29
     212:	ec 01       	movw	r28, r24
     214:	d6 2e       	mov	r13, r22
	switch(dec_results->decode_type)
     216:	88 81       	ld	r24, Y
     218:	99 81       	ldd	r25, Y+1	; 0x01
     21a:	82 30       	cpi	r24, 0x02	; 2
     21c:	91 05       	cpc	r25, r1
     21e:	09 f4       	brne	.+2      	; 0x222 <saveCode+0x1e>
     220:	6f c0       	rjmp	.+222    	; 0x300 <saveCode+0xfc>
     222:	1c f4       	brge	.+6      	; 0x22a <saveCode+0x26>
     224:	01 97       	sbiw	r24, 0x01	; 1
     226:	41 f0       	breq	.+16     	; 0x238 <saveCode+0x34>
     228:	ef c0       	rjmp	.+478    	; 0x408 <__LOCK_REGION_LENGTH__+0x8>
     22a:	83 30       	cpi	r24, 0x03	; 3
     22c:	91 05       	cpc	r25, r1
     22e:	09 f4       	brne	.+2      	; 0x232 <saveCode+0x2e>
     230:	40 c0       	rjmp	.+128    	; 0x2b2 <saveCode+0xae>
     232:	0c 97       	sbiw	r24, 0x0c	; 12
     234:	e9 f0       	breq	.+58     	; 0x270 <saveCode+0x6c>
     236:	e8 c0       	rjmp	.+464    	; 0x408 <__LOCK_REGION_LENGTH__+0x8>
	{
		case NEC:
			eeprom_update_byte((uint8_t*)(offset*KEY_FIELD_SIZE+2), (uint8_t)((dec_results->value&0xFF000000)>>24));
     238:	8c 81       	ldd	r24, Y+4	; 0x04
     23a:	9d 81       	ldd	r25, Y+5	; 0x05
     23c:	ae 81       	ldd	r26, Y+6	; 0x06
     23e:	bf 81       	ldd	r27, Y+7	; 0x07
     240:	6b 2f       	mov	r22, r27
     242:	77 27       	eor	r23, r23
     244:	88 27       	eor	r24, r24
     246:	99 27       	eor	r25, r25
     248:	2d 2d       	mov	r18, r13
     24a:	30 e0       	ldi	r19, 0x00	; 0
     24c:	79 01       	movw	r14, r18
     24e:	ee 0c       	add	r14, r14
     250:	ff 1c       	adc	r15, r15
     252:	ee 0c       	add	r14, r14
     254:	ff 1c       	adc	r15, r15
     256:	87 01       	movw	r16, r14
     258:	02 0f       	add	r16, r18
     25a:	13 1f       	adc	r17, r19
     25c:	c8 01       	movw	r24, r16
     25e:	02 96       	adiw	r24, 0x02	; 2
     260:	0e 94 b8 1a 	call	0x3570	; 0x3570 <eeprom_update_byte>
			eeprom_update_byte((uint8_t*)(offset*KEY_FIELD_SIZE+3), (uint8_t)((dec_results->value&0xFF00)>>8));
     264:	6d 81       	ldd	r22, Y+5	; 0x05
     266:	c8 01       	movw	r24, r16
     268:	03 96       	adiw	r24, 0x03	; 3
     26a:	0e 94 b8 1a 	call	0x3570	; 0x3570 <eeprom_update_byte>
			break;
     26e:	c0 c0       	rjmp	.+384    	; 0x3f0 <saveCode+0x1ec>
		case NEC_EXT:
			eeprom_update_byte((uint8_t*)(offset*KEY_FIELD_SIZE+1), (uint8_t)((dec_results->value&0xFF000000)>>24));
     270:	8c 81       	ldd	r24, Y+4	; 0x04
     272:	9d 81       	ldd	r25, Y+5	; 0x05
     274:	ae 81       	ldd	r26, Y+6	; 0x06
     276:	bf 81       	ldd	r27, Y+7	; 0x07
     278:	6b 2f       	mov	r22, r27
     27a:	77 27       	eor	r23, r23
     27c:	88 27       	eor	r24, r24
     27e:	99 27       	eor	r25, r25
     280:	2d 2d       	mov	r18, r13
     282:	30 e0       	ldi	r19, 0x00	; 0
     284:	79 01       	movw	r14, r18
     286:	ee 0c       	add	r14, r14
     288:	ff 1c       	adc	r15, r15
     28a:	ee 0c       	add	r14, r14
     28c:	ff 1c       	adc	r15, r15
     28e:	87 01       	movw	r16, r14
     290:	02 0f       	add	r16, r18
     292:	13 1f       	adc	r17, r19
     294:	c8 01       	movw	r24, r16
     296:	01 96       	adiw	r24, 0x01	; 1
     298:	0e 94 b8 1a 	call	0x3570	; 0x3570 <eeprom_update_byte>
			eeprom_update_byte((uint8_t*)(offset*KEY_FIELD_SIZE+2), (uint8_t)((dec_results->value&0xFF0000)>>16));
     29c:	6e 81       	ldd	r22, Y+6	; 0x06
     29e:	c8 01       	movw	r24, r16
     2a0:	02 96       	adiw	r24, 0x02	; 2
     2a2:	0e 94 b8 1a 	call	0x3570	; 0x3570 <eeprom_update_byte>
			eeprom_update_byte((uint8_t*)(offset*KEY_FIELD_SIZE+3), (uint8_t)((dec_results->value&0xFF00)>>8));	
     2a6:	6d 81       	ldd	r22, Y+5	; 0x05
     2a8:	c8 01       	movw	r24, r16
     2aa:	03 96       	adiw	r24, 0x03	; 3
     2ac:	0e 94 b8 1a 	call	0x3570	; 0x3570 <eeprom_update_byte>
			break;		
     2b0:	9f c0       	rjmp	.+318    	; 0x3f0 <saveCode+0x1ec>
		case RC5:
			eeprom_update_byte((uint8_t*)(offset*KEY_FIELD_SIZE+2), (uint8_t)((dec_results->value&0x3C0)>>6));
     2b2:	8c 81       	ldd	r24, Y+4	; 0x04
     2b4:	9d 81       	ldd	r25, Y+5	; 0x05
     2b6:	ae 81       	ldd	r26, Y+6	; 0x06
     2b8:	bf 81       	ldd	r27, Y+7	; 0x07
     2ba:	80 7c       	andi	r24, 0xC0	; 192
     2bc:	93 70       	andi	r25, 0x03	; 3
     2be:	aa 27       	eor	r26, r26
     2c0:	bb 27       	eor	r27, r27
     2c2:	bc 01       	movw	r22, r24
     2c4:	cd 01       	movw	r24, r26
     2c6:	68 94       	set
     2c8:	15 f8       	bld	r1, 5
     2ca:	96 95       	lsr	r25
     2cc:	87 95       	ror	r24
     2ce:	77 95       	ror	r23
     2d0:	67 95       	ror	r22
     2d2:	16 94       	lsr	r1
     2d4:	d1 f7       	brne	.-12     	; 0x2ca <saveCode+0xc6>
     2d6:	2d 2d       	mov	r18, r13
     2d8:	30 e0       	ldi	r19, 0x00	; 0
     2da:	79 01       	movw	r14, r18
     2dc:	ee 0c       	add	r14, r14
     2de:	ff 1c       	adc	r15, r15
     2e0:	ee 0c       	add	r14, r14
     2e2:	ff 1c       	adc	r15, r15
     2e4:	87 01       	movw	r16, r14
     2e6:	02 0f       	add	r16, r18
     2e8:	13 1f       	adc	r17, r19
     2ea:	c8 01       	movw	r24, r16
     2ec:	02 96       	adiw	r24, 0x02	; 2
     2ee:	0e 94 b8 1a 	call	0x3570	; 0x3570 <eeprom_update_byte>
			eeprom_update_byte((uint8_t*)(offset*KEY_FIELD_SIZE+3), (uint8_t)(dec_results->value&0x3F));
     2f2:	6c 81       	ldd	r22, Y+4	; 0x04
     2f4:	6f 73       	andi	r22, 0x3F	; 63
     2f6:	c8 01       	movw	r24, r16
     2f8:	03 96       	adiw	r24, 0x03	; 3
     2fa:	0e 94 b8 1a 	call	0x3570	; 0x3570 <eeprom_update_byte>
			break;
     2fe:	78 c0       	rjmp	.+240    	; 0x3f0 <saveCode+0x1ec>
		case SONY:
			eeprom_update_byte((uint8_t*)(offset*KEY_FIELD_SIZE+1), (uint8_t)(dec_results->bits));
     300:	68 85       	ldd	r22, Y+8	; 0x08
     302:	8d 2d       	mov	r24, r13
     304:	90 e0       	ldi	r25, 0x00	; 0
     306:	7c 01       	movw	r14, r24
     308:	ee 0c       	add	r14, r14
     30a:	ff 1c       	adc	r15, r15
     30c:	ee 0c       	add	r14, r14
     30e:	ff 1c       	adc	r15, r15
     310:	87 01       	movw	r16, r14
     312:	08 0f       	add	r16, r24
     314:	19 1f       	adc	r17, r25
     316:	c8 01       	movw	r24, r16
     318:	01 96       	adiw	r24, 0x01	; 1
     31a:	0e 94 b8 1a 	call	0x3570	; 0x3570 <eeprom_update_byte>
			if(dec_results->bits == 12)
     31e:	88 85       	ldd	r24, Y+8	; 0x08
     320:	99 85       	ldd	r25, Y+9	; 0x09
     322:	8c 30       	cpi	r24, 0x0C	; 12
     324:	91 05       	cpc	r25, r1
     326:	e9 f4       	brne	.+58     	; 0x362 <saveCode+0x15e>
			{	
				eeprom_update_byte((uint8_t*)(offset*KEY_FIELD_SIZE+2), (uint8_t)(dec_results->value&0x1F));
     328:	6c 81       	ldd	r22, Y+4	; 0x04
     32a:	6f 71       	andi	r22, 0x1F	; 31
     32c:	c8 01       	movw	r24, r16
     32e:	02 96       	adiw	r24, 0x02	; 2
     330:	0e 94 b8 1a 	call	0x3570	; 0x3570 <eeprom_update_byte>
				eeprom_update_byte((uint8_t*)(offset*KEY_FIELD_SIZE+3), (uint8_t)((dec_results->value&0xFE0)>>5));
     334:	8c 81       	ldd	r24, Y+4	; 0x04
     336:	9d 81       	ldd	r25, Y+5	; 0x05
     338:	ae 81       	ldd	r26, Y+6	; 0x06
     33a:	bf 81       	ldd	r27, Y+7	; 0x07
     33c:	80 7e       	andi	r24, 0xE0	; 224
     33e:	9f 70       	andi	r25, 0x0F	; 15
     340:	aa 27       	eor	r26, r26
     342:	bb 27       	eor	r27, r27
     344:	bc 01       	movw	r22, r24
     346:	cd 01       	movw	r24, r26
     348:	68 94       	set
     34a:	14 f8       	bld	r1, 4
     34c:	96 95       	lsr	r25
     34e:	87 95       	ror	r24
     350:	77 95       	ror	r23
     352:	67 95       	ror	r22
     354:	16 94       	lsr	r1
     356:	d1 f7       	brne	.-12     	; 0x34c <saveCode+0x148>
     358:	c8 01       	movw	r24, r16
     35a:	03 96       	adiw	r24, 0x03	; 3
     35c:	0e 94 b8 1a 	call	0x3570	; 0x3570 <eeprom_update_byte>
     360:	47 c0       	rjmp	.+142    	; 0x3f0 <saveCode+0x1ec>
			}
			else if(dec_results->bits == 15)
     362:	8f 30       	cpi	r24, 0x0F	; 15
     364:	91 05       	cpc	r25, r1
     366:	b1 f4       	brne	.+44     	; 0x394 <saveCode+0x190>
			{
				eeprom_update_byte((uint8_t*)(offset*KEY_FIELD_SIZE+2), (uint8_t)(dec_results->value&0xFF));
     368:	6c 81       	ldd	r22, Y+4	; 0x04
     36a:	c8 01       	movw	r24, r16
     36c:	02 96       	adiw	r24, 0x02	; 2
     36e:	0e 94 b8 1a 	call	0x3570	; 0x3570 <eeprom_update_byte>
				eeprom_update_byte((uint8_t*)(offset*KEY_FIELD_SIZE+3), (uint8_t)((dec_results->value&0x7F00)>>8));
     372:	8c 81       	ldd	r24, Y+4	; 0x04
     374:	9d 81       	ldd	r25, Y+5	; 0x05
     376:	ae 81       	ldd	r26, Y+6	; 0x06
     378:	bf 81       	ldd	r27, Y+7	; 0x07
     37a:	88 27       	eor	r24, r24
     37c:	9f 77       	andi	r25, 0x7F	; 127
     37e:	aa 27       	eor	r26, r26
     380:	bb 27       	eor	r27, r27
     382:	69 2f       	mov	r22, r25
     384:	7a 2f       	mov	r23, r26
     386:	8b 2f       	mov	r24, r27
     388:	99 27       	eor	r25, r25
     38a:	c8 01       	movw	r24, r16
     38c:	03 96       	adiw	r24, 0x03	; 3
     38e:	0e 94 b8 1a 	call	0x3570	; 0x3570 <eeprom_update_byte>
     392:	2e c0       	rjmp	.+92     	; 0x3f0 <saveCode+0x1ec>
			}
			else if(dec_results->bits == 20)
     394:	44 97       	sbiw	r24, 0x14	; 20
     396:	61 f5       	brne	.+88     	; 0x3f0 <saveCode+0x1ec>
			{
				eeprom_update_byte((uint8_t*)(offset*KEY_FIELD_SIZE+2), (uint8_t)((dec_results->value&0x1F00)>>8));
     398:	8c 81       	ldd	r24, Y+4	; 0x04
     39a:	9d 81       	ldd	r25, Y+5	; 0x05
     39c:	ae 81       	ldd	r26, Y+6	; 0x06
     39e:	bf 81       	ldd	r27, Y+7	; 0x07
     3a0:	88 27       	eor	r24, r24
     3a2:	9f 71       	andi	r25, 0x1F	; 31
     3a4:	aa 27       	eor	r26, r26
     3a6:	bb 27       	eor	r27, r27
     3a8:	69 2f       	mov	r22, r25
     3aa:	7a 2f       	mov	r23, r26
     3ac:	8b 2f       	mov	r24, r27
     3ae:	99 27       	eor	r25, r25
     3b0:	c8 01       	movw	r24, r16
     3b2:	02 96       	adiw	r24, 0x02	; 2
     3b4:	0e 94 b8 1a 	call	0x3570	; 0x3570 <eeprom_update_byte>
				eeprom_update_byte((uint8_t*)(offset*KEY_FIELD_SIZE+3), (uint8_t)((dec_results->value&0xFE000)>>13));
     3b8:	8c 81       	ldd	r24, Y+4	; 0x04
     3ba:	9d 81       	ldd	r25, Y+5	; 0x05
     3bc:	ae 81       	ldd	r26, Y+6	; 0x06
     3be:	bf 81       	ldd	r27, Y+7	; 0x07
     3c0:	88 27       	eor	r24, r24
     3c2:	90 7e       	andi	r25, 0xE0	; 224
     3c4:	af 70       	andi	r26, 0x0F	; 15
     3c6:	bb 27       	eor	r27, r27
     3c8:	bc 01       	movw	r22, r24
     3ca:	cd 01       	movw	r24, r26
     3cc:	05 2e       	mov	r0, r21
     3ce:	5d e0       	ldi	r21, 0x0D	; 13
     3d0:	96 95       	lsr	r25
     3d2:	87 95       	ror	r24
     3d4:	77 95       	ror	r23
     3d6:	67 95       	ror	r22
     3d8:	5a 95       	dec	r21
     3da:	d1 f7       	brne	.-12     	; 0x3d0 <saveCode+0x1cc>
     3dc:	50 2d       	mov	r21, r0
     3de:	c8 01       	movw	r24, r16
     3e0:	03 96       	adiw	r24, 0x03	; 3
     3e2:	0e 94 b8 1a 	call	0x3570	; 0x3570 <eeprom_update_byte>
				eeprom_update_byte((uint8_t*)(offset*KEY_FIELD_SIZE+4), (uint8_t)(dec_results->value&0xFF));
     3e6:	6c 81       	ldd	r22, Y+4	; 0x04
     3e8:	c8 01       	movw	r24, r16
     3ea:	04 96       	adiw	r24, 0x04	; 4
     3ec:	0e 94 b8 1a 	call	0x3570	; 0x3570 <eeprom_update_byte>
			}
			break;
		default:
			return;
	}
	eeprom_update_byte((uint8_t*)(offset*KEY_FIELD_SIZE), (uint8_t)(dec_results->decode_type));
     3f0:	68 81       	ld	r22, Y
     3f2:	8d 2d       	mov	r24, r13
     3f4:	90 e0       	ldi	r25, 0x00	; 0
     3f6:	9c 01       	movw	r18, r24
     3f8:	22 0f       	add	r18, r18
     3fa:	33 1f       	adc	r19, r19
     3fc:	22 0f       	add	r18, r18
     3fe:	33 1f       	adc	r19, r19
     400:	82 0f       	add	r24, r18
     402:	93 1f       	adc	r25, r19
     404:	0e 94 b8 1a 	call	0x3570	; 0x3570 <eeprom_update_byte>
}
     408:	df 91       	pop	r29
     40a:	cf 91       	pop	r28
     40c:	1f 91       	pop	r17
     40e:	0f 91       	pop	r16
     410:	ff 90       	pop	r15
     412:	ef 90       	pop	r14
     414:	df 90       	pop	r13
     416:	08 95       	ret

00000418 <getCode>:
void getCode(decode_results *dec_results, uint8_t offset)
{
     418:	8f 92       	push	r8
     41a:	9f 92       	push	r9
     41c:	af 92       	push	r10
     41e:	bf 92       	push	r11
     420:	cf 92       	push	r12
     422:	df 92       	push	r13
     424:	ef 92       	push	r14
     426:	ff 92       	push	r15
     428:	0f 93       	push	r16
     42a:	1f 93       	push	r17
     42c:	cf 93       	push	r28
     42e:	df 93       	push	r29
     430:	7c 01       	movw	r14, r24
	dec_results->decode_type=eeprom_read_byte((uint8_t*)(offset*KEY_FIELD_SIZE));
     432:	70 e0       	ldi	r23, 0x00	; 0
     434:	eb 01       	movw	r28, r22
     436:	cc 0f       	add	r28, r28
     438:	dd 1f       	adc	r29, r29
     43a:	cc 0f       	add	r28, r28
     43c:	dd 1f       	adc	r29, r29
     43e:	c6 0f       	add	r28, r22
     440:	d7 1f       	adc	r29, r23
     442:	ce 01       	movw	r24, r28
     444:	0e 94 b0 1a 	call	0x3560	; 0x3560 <eeprom_read_byte>
     448:	08 2f       	mov	r16, r24
     44a:	10 e0       	ldi	r17, 0x00	; 0
     44c:	f7 01       	movw	r30, r14
     44e:	11 83       	std	Z+1, r17	; 0x01
     450:	00 83       	st	Z, r16
	uint8_t addressHigh = eeprom_read_byte((uint8_t*)(offset*KEY_FIELD_SIZE+1));
     452:	ce 01       	movw	r24, r28
     454:	01 96       	adiw	r24, 0x01	; 1
     456:	0e 94 b0 1a 	call	0x3560	; 0x3560 <eeprom_read_byte>
     45a:	b8 2e       	mov	r11, r24
	uint8_t addressLow = eeprom_read_byte((uint8_t*)(offset*KEY_FIELD_SIZE+2));
     45c:	ce 01       	movw	r24, r28
     45e:	02 96       	adiw	r24, 0x02	; 2
     460:	0e 94 b0 1a 	call	0x3560	; 0x3560 <eeprom_read_byte>
     464:	c8 2e       	mov	r12, r24
	uint8_t command = eeprom_read_byte((uint8_t*)(offset*KEY_FIELD_SIZE+3));
     466:	ce 01       	movw	r24, r28
     468:	03 96       	adiw	r24, 0x03	; 3
     46a:	0e 94 b0 1a 	call	0x3560	; 0x3560 <eeprom_read_byte>
     46e:	d8 2e       	mov	r13, r24
	uint8_t extend;
	
	switch(dec_results->decode_type)
     470:	02 30       	cpi	r16, 0x02	; 2
     472:	11 05       	cpc	r17, r1
     474:	09 f4       	brne	.+2      	; 0x478 <getCode+0x60>
     476:	8c c0       	rjmp	.+280    	; 0x590 <getCode+0x178>
     478:	24 f4       	brge	.+8      	; 0x482 <getCode+0x6a>
     47a:	01 30       	cpi	r16, 0x01	; 1
     47c:	11 05       	cpc	r17, r1
     47e:	49 f0       	breq	.+18     	; 0x492 <getCode+0x7a>
     480:	d4 c0       	rjmp	.+424    	; 0x62a <getCode+0x212>
     482:	03 30       	cpi	r16, 0x03	; 3
     484:	11 05       	cpc	r17, r1
     486:	09 f4       	brne	.+2      	; 0x48a <getCode+0x72>
     488:	71 c0       	rjmp	.+226    	; 0x56c <getCode+0x154>
     48a:	0c 30       	cpi	r16, 0x0C	; 12
     48c:	11 05       	cpc	r17, r1
     48e:	d1 f1       	breq	.+116    	; 0x504 <getCode+0xec>
     490:	cc c0       	rjmp	.+408    	; 0x62a <getCode+0x212>
	{
		case NEC:
			dec_results->bits = NEC_BITS;			
     492:	80 e2       	ldi	r24, 0x20	; 32
     494:	90 e0       	ldi	r25, 0x00	; 0
     496:	f7 01       	movw	r30, r14
     498:	91 87       	std	Z+9, r25	; 0x09
     49a:	80 87       	std	Z+8, r24	; 0x08
			dec_results->value = ((uint32_t)(addressLow))<<24 | ((uint32_t)(~addressLow&0xFF))<<16 | ((uint16_t)(command&0xFF))<<8 | ((~command)&0xFF);
     49c:	4c 2d       	mov	r20, r12
     49e:	50 e0       	ldi	r21, 0x00	; 0
     4a0:	60 e0       	ldi	r22, 0x00	; 0
     4a2:	70 e0       	ldi	r23, 0x00	; 0
     4a4:	b4 2f       	mov	r27, r20
     4a6:	aa 27       	eor	r26, r26
     4a8:	99 27       	eor	r25, r25
     4aa:	88 27       	eor	r24, r24
     4ac:	2c 2d       	mov	r18, r12
     4ae:	30 e0       	ldi	r19, 0x00	; 0
     4b0:	20 95       	com	r18
     4b2:	30 95       	com	r19
     4b4:	a9 01       	movw	r20, r18
     4b6:	55 27       	eor	r21, r21
     4b8:	05 2e       	mov	r0, r21
     4ba:	00 0c       	add	r0, r0
     4bc:	66 0b       	sbc	r22, r22
     4be:	77 0b       	sbc	r23, r23
     4c0:	ba 01       	movw	r22, r20
     4c2:	55 27       	eor	r21, r21
     4c4:	44 27       	eor	r20, r20
     4c6:	48 2b       	or	r20, r24
     4c8:	59 2b       	or	r21, r25
     4ca:	6a 2b       	or	r22, r26
     4cc:	7b 2b       	or	r23, r27
     4ce:	2d 2d       	mov	r18, r13
     4d0:	30 e0       	ldi	r19, 0x00	; 0
     4d2:	92 2f       	mov	r25, r18
     4d4:	88 27       	eor	r24, r24
     4d6:	a0 e0       	ldi	r26, 0x00	; 0
     4d8:	b0 e0       	ldi	r27, 0x00	; 0
     4da:	48 2b       	or	r20, r24
     4dc:	59 2b       	or	r21, r25
     4de:	6a 2b       	or	r22, r26
     4e0:	7b 2b       	or	r23, r27
     4e2:	c9 01       	movw	r24, r18
     4e4:	80 95       	com	r24
     4e6:	90 95       	com	r25
     4e8:	99 27       	eor	r25, r25
     4ea:	09 2e       	mov	r0, r25
     4ec:	00 0c       	add	r0, r0
     4ee:	aa 0b       	sbc	r26, r26
     4f0:	bb 0b       	sbc	r27, r27
     4f2:	84 2b       	or	r24, r20
     4f4:	95 2b       	or	r25, r21
     4f6:	a6 2b       	or	r26, r22
     4f8:	b7 2b       	or	r27, r23
     4fa:	84 83       	std	Z+4, r24	; 0x04
     4fc:	95 83       	std	Z+5, r25	; 0x05
     4fe:	a6 83       	std	Z+6, r26	; 0x06
     500:	b7 83       	std	Z+7, r27	; 0x07
			break;
     502:	98 c0       	rjmp	.+304    	; 0x634 <getCode+0x21c>
		case NEC_EXT:
			dec_results->bits = NEC_BITS;			
     504:	80 e2       	ldi	r24, 0x20	; 32
     506:	90 e0       	ldi	r25, 0x00	; 0
     508:	f7 01       	movw	r30, r14
     50a:	91 87       	std	Z+9, r25	; 0x09
     50c:	80 87       	std	Z+8, r24	; 0x08
			dec_results->value = ((uint32_t)(addressHigh))<<24 | ((uint32_t)(addressLow&0xFF))<<16 | ((uint16_t)(command&0xFF))<<8 | ((~command)&0xFF);
     50e:	8b 2d       	mov	r24, r11
     510:	90 e0       	ldi	r25, 0x00	; 0
     512:	a0 e0       	ldi	r26, 0x00	; 0
     514:	b0 e0       	ldi	r27, 0x00	; 0
     516:	b8 2f       	mov	r27, r24
     518:	aa 27       	eor	r26, r26
     51a:	99 27       	eor	r25, r25
     51c:	88 27       	eor	r24, r24
     51e:	4c 2d       	mov	r20, r12
     520:	50 e0       	ldi	r21, 0x00	; 0
     522:	60 e0       	ldi	r22, 0x00	; 0
     524:	70 e0       	ldi	r23, 0x00	; 0
     526:	ba 01       	movw	r22, r20
     528:	55 27       	eor	r21, r21
     52a:	44 27       	eor	r20, r20
     52c:	84 2b       	or	r24, r20
     52e:	95 2b       	or	r25, r21
     530:	a6 2b       	or	r26, r22
     532:	b7 2b       	or	r27, r23
     534:	ed 2d       	mov	r30, r13
     536:	f0 e0       	ldi	r31, 0x00	; 0
     538:	5e 2f       	mov	r21, r30
     53a:	44 27       	eor	r20, r20
     53c:	60 e0       	ldi	r22, 0x00	; 0
     53e:	70 e0       	ldi	r23, 0x00	; 0
     540:	48 2b       	or	r20, r24
     542:	59 2b       	or	r21, r25
     544:	6a 2b       	or	r22, r26
     546:	7b 2b       	or	r23, r27
     548:	cf 01       	movw	r24, r30
     54a:	80 95       	com	r24
     54c:	90 95       	com	r25
     54e:	99 27       	eor	r25, r25
     550:	09 2e       	mov	r0, r25
     552:	00 0c       	add	r0, r0
     554:	aa 0b       	sbc	r26, r26
     556:	bb 0b       	sbc	r27, r27
     558:	84 2b       	or	r24, r20
     55a:	95 2b       	or	r25, r21
     55c:	a6 2b       	or	r26, r22
     55e:	b7 2b       	or	r27, r23
     560:	f7 01       	movw	r30, r14
     562:	84 83       	std	Z+4, r24	; 0x04
     564:	95 83       	std	Z+5, r25	; 0x05
     566:	a6 83       	std	Z+6, r26	; 0x06
     568:	b7 83       	std	Z+7, r27	; 0x07
			break;
     56a:	64 c0       	rjmp	.+200    	; 0x634 <getCode+0x21c>
		case RC5:
			dec_results->bits = MIN_RC5_SAMPLES;
     56c:	8b e0       	ldi	r24, 0x0B	; 11
     56e:	90 e0       	ldi	r25, 0x00	; 0
     570:	f7 01       	movw	r30, r14
     572:	91 87       	std	Z+9, r25	; 0x09
     574:	80 87       	std	Z+8, r24	; 0x08
			dec_results->value = ((uint16_t)(addressLow))<<6 | command;
     576:	f0 e4       	ldi	r31, 0x40	; 64
     578:	cf 9e       	mul	r12, r31
     57a:	c0 01       	movw	r24, r0
     57c:	11 24       	eor	r1, r1
     57e:	8d 29       	or	r24, r13
     580:	a0 e0       	ldi	r26, 0x00	; 0
     582:	b0 e0       	ldi	r27, 0x00	; 0
     584:	f7 01       	movw	r30, r14
     586:	84 83       	std	Z+4, r24	; 0x04
     588:	95 83       	std	Z+5, r25	; 0x05
     58a:	a6 83       	std	Z+6, r26	; 0x06
     58c:	b7 83       	std	Z+7, r27	; 0x07
			break;
     58e:	52 c0       	rjmp	.+164    	; 0x634 <getCode+0x21c>
		case SONY:
			dec_results->bits=eeprom_read_byte((uint8_t*)(offset*KEY_FIELD_SIZE+1));
     590:	0b 2d       	mov	r16, r11
     592:	10 e0       	ldi	r17, 0x00	; 0
     594:	f7 01       	movw	r30, r14
     596:	11 87       	std	Z+9, r17	; 0x09
     598:	00 87       	std	Z+8, r16	; 0x08
			extend=eeprom_read_byte((uint8_t*)(offset*KEY_FIELD_SIZE+4));
     59a:	ce 01       	movw	r24, r28
     59c:	04 96       	adiw	r24, 0x04	; 4
     59e:	0e 94 b0 1a 	call	0x3560	; 0x3560 <eeprom_read_byte>
			
			if(dec_results->bits == 12)
     5a2:	0c 30       	cpi	r16, 0x0C	; 12
     5a4:	11 05       	cpc	r17, r1
     5a6:	69 f4       	brne	.+26     	; 0x5c2 <getCode+0x1aa>
				dec_results->value = ((uint16_t)(command))<<5 | addressLow;
     5a8:	f0 e2       	ldi	r31, 0x20	; 32
     5aa:	df 9e       	mul	r13, r31
     5ac:	c0 01       	movw	r24, r0
     5ae:	11 24       	eor	r1, r1
     5b0:	8c 29       	or	r24, r12
     5b2:	a0 e0       	ldi	r26, 0x00	; 0
     5b4:	b0 e0       	ldi	r27, 0x00	; 0
     5b6:	f7 01       	movw	r30, r14
     5b8:	84 83       	std	Z+4, r24	; 0x04
     5ba:	95 83       	std	Z+5, r25	; 0x05
     5bc:	a6 83       	std	Z+6, r26	; 0x06
     5be:	b7 83       	std	Z+7, r27	; 0x07
     5c0:	39 c0       	rjmp	.+114    	; 0x634 <getCode+0x21c>
			else if(dec_results->bits == 15)
     5c2:	0f 30       	cpi	r16, 0x0F	; 15
     5c4:	11 05       	cpc	r17, r1
     5c6:	69 f4       	brne	.+26     	; 0x5e2 <getCode+0x1ca>
				dec_results->value = ((uint16_t)(command))<<8 | addressLow;
     5c8:	8d 2d       	mov	r24, r13
     5ca:	90 e0       	ldi	r25, 0x00	; 0
     5cc:	98 2f       	mov	r25, r24
     5ce:	88 27       	eor	r24, r24
     5d0:	8c 29       	or	r24, r12
     5d2:	a0 e0       	ldi	r26, 0x00	; 0
     5d4:	b0 e0       	ldi	r27, 0x00	; 0
     5d6:	f7 01       	movw	r30, r14
     5d8:	84 83       	std	Z+4, r24	; 0x04
     5da:	95 83       	std	Z+5, r25	; 0x05
     5dc:	a6 83       	std	Z+6, r26	; 0x06
     5de:	b7 83       	std	Z+7, r27	; 0x07
     5e0:	29 c0       	rjmp	.+82     	; 0x634 <getCode+0x21c>
			else if(dec_results->bits == 20)
     5e2:	04 31       	cpi	r16, 0x14	; 20
     5e4:	11 05       	cpc	r17, r1
     5e6:	31 f5       	brne	.+76     	; 0x634 <getCode+0x21c>
				dec_results->value = ((uint32_t)(command))<<13 | ((uint16_t)addressLow)<<8 | extend;
     5e8:	4d 2d       	mov	r20, r13
     5ea:	50 e0       	ldi	r21, 0x00	; 0
     5ec:	60 e0       	ldi	r22, 0x00	; 0
     5ee:	70 e0       	ldi	r23, 0x00	; 0
     5f0:	4a 01       	movw	r8, r20
     5f2:	5b 01       	movw	r10, r22
     5f4:	07 2e       	mov	r0, r23
     5f6:	7d e0       	ldi	r23, 0x0D	; 13
     5f8:	88 0c       	add	r8, r8
     5fa:	99 1c       	adc	r9, r9
     5fc:	aa 1c       	adc	r10, r10
     5fe:	bb 1c       	adc	r11, r11
     600:	7a 95       	dec	r23
     602:	d1 f7       	brne	.-12     	; 0x5f8 <getCode+0x1e0>
     604:	70 2d       	mov	r23, r0
     606:	2c 2d       	mov	r18, r12
     608:	30 e0       	ldi	r19, 0x00	; 0
     60a:	32 2f       	mov	r19, r18
     60c:	22 27       	eor	r18, r18
     60e:	a9 01       	movw	r20, r18
     610:	60 e0       	ldi	r22, 0x00	; 0
     612:	70 e0       	ldi	r23, 0x00	; 0
     614:	48 29       	or	r20, r8
     616:	59 29       	or	r21, r9
     618:	6a 29       	or	r22, r10
     61a:	7b 29       	or	r23, r11
     61c:	48 2b       	or	r20, r24
     61e:	f7 01       	movw	r30, r14
     620:	44 83       	std	Z+4, r20	; 0x04
     622:	55 83       	std	Z+5, r21	; 0x05
     624:	66 83       	std	Z+6, r22	; 0x06
     626:	77 83       	std	Z+7, r23	; 0x07
     628:	05 c0       	rjmp	.+10     	; 0x634 <getCode+0x21c>
			break;
		default:
			dec_results->decode_type=UNKNOWN;
     62a:	8f ef       	ldi	r24, 0xFF	; 255
     62c:	9f ef       	ldi	r25, 0xFF	; 255
     62e:	f7 01       	movw	r30, r14
     630:	91 83       	std	Z+1, r25	; 0x01
     632:	80 83       	st	Z, r24
			break;
	}
     634:	df 91       	pop	r29
     636:	cf 91       	pop	r28
     638:	1f 91       	pop	r17
     63a:	0f 91       	pop	r16
     63c:	ff 90       	pop	r15
     63e:	ef 90       	pop	r14
     640:	df 90       	pop	r13
     642:	cf 90       	pop	r12
     644:	bf 90       	pop	r11
     646:	af 90       	pop	r10
     648:	9f 90       	pop	r9
     64a:	8f 90       	pop	r8
     64c:	08 95       	ret

0000064e <clearKeys>:
	PrevKeyCode=keyCode;
	
}
void clearKeys()
{
	PressedKeyCode=KEY_NONE;
     64e:	10 92 ca 01 	sts	0x01CA, r1	; 0x8001ca <PressedKeyCode>
	ReleasedKeyCode=KEY_NONE;
     652:	10 92 c9 01 	sts	0x01C9, r1	; 0x8001c9 <ReleasedKeyCode>
     656:	08 95       	ret

00000658 <setKeyboardPhase1>:
}

void setKeyboardPhase1()
{
	keyboardPORTx &= ~(1<<X1 | 1<<X2 | 1<<X3); //désactive les sorties des colonnes
     658:	85 b1       	in	r24, 0x05	; 5
     65a:	88 7f       	andi	r24, 0xF8	; 248
     65c:	85 b9       	out	0x05, r24	; 5
	keyboardDDRx &= ~(1<<X1 | 1<<X2 | 1<<X3); //bascule les colonnes en entrées
     65e:	84 b1       	in	r24, 0x04	; 4
     660:	88 7f       	andi	r24, 0xF8	; 248
     662:	84 b9       	out	0x04, r24	; 4
	keyboardDDRx |= (1<<Y1 | 1<<Y2 | 1<<Y3 | 1<<Y4); //bascule les lignes en sorties
     664:	84 b1       	in	r24, 0x04	; 4
     666:	88 67       	ori	r24, 0x78	; 120
     668:	84 b9       	out	0x04, r24	; 4
	keyboardPORTx |= (1<<Y1 | 1<<Y2 | 1<<Y3 | 1<<Y4); //active les sorties des lignes
     66a:	85 b1       	in	r24, 0x05	; 5
     66c:	88 67       	ori	r24, 0x78	; 120
     66e:	85 b9       	out	0x05, r24	; 5
     670:	08 95       	ret

00000672 <setKeyboardPhase2>:
}
void setKeyboardPhase2()
{
	keyboardPORTx &= ~(1<<Y1 | 1<<Y2 | 1<<Y3 | 1<<Y4); //désactive les sorties des lignes
     672:	85 b1       	in	r24, 0x05	; 5
     674:	87 78       	andi	r24, 0x87	; 135
     676:	85 b9       	out	0x05, r24	; 5
	keyboardDDRx &= ~(1<<Y1 | 1<<Y2 | 1<<Y3 | 1<<Y4); //bascule les lignes en entrées
     678:	84 b1       	in	r24, 0x04	; 4
     67a:	87 78       	andi	r24, 0x87	; 135
     67c:	84 b9       	out	0x04, r24	; 4
	keyboardDDRx |= (1<<X1 | 1<<X2 | 1<<X3); //bascule les colonnes en sorties
     67e:	84 b1       	in	r24, 0x04	; 4
     680:	87 60       	ori	r24, 0x07	; 7
     682:	84 b9       	out	0x04, r24	; 4
	keyboardPORTx |= (1<<X1 | 1<<X2 | 1<<X3); //active les sorties des colonnes
     684:	85 b1       	in	r24, 0x05	; 5
     686:	87 60       	ori	r24, 0x07	; 7
     688:	85 b9       	out	0x05, r24	; 5
     68a:	08 95       	ret

0000068c <readKeyboardPhase1>:
}
uint8_t readKeyboardPhase1()
{
	return keyboardPINx & (1<<X1 | 1<<X2 | 1<<X3);
     68c:	83 b1       	in	r24, 0x03	; 3
}
     68e:	87 70       	andi	r24, 0x07	; 7
     690:	08 95       	ret

00000692 <readKeyboardPhase2>:
uint8_t readKeyboardPhase2()
{
	return keyboardPINx & (1<<Y1 | 1<<Y2 | 1<<Y3 | 1<<Y4);
     692:	83 b1       	in	r24, 0x03	; 3
     694:	88 77       	andi	r24, 0x78	; 120
     696:	08 95       	ret

00000698 <processKeyboard>:

uint8_t PressedKeyCode=KEY_NONE;
uint8_t ReleasedKeyCode=KEY_NONE;

void processKeyboard()
{
     698:	cf 93       	push	r28
	static uint8_t PrevKeyCode = KEY_NONE;
	uint8_t colCode, lineCode, keyCode;
	
	setKeyboardPhase1();
     69a:	de df       	rcall	.-68     	; 0x658 <setKeyboardPhase1>
	colCode=readKeyboardPhase1();
     69c:	f7 df       	rcall	.-18     	; 0x68c <readKeyboardPhase1>
     69e:	c8 2f       	mov	r28, r24
	setKeyboardPhase2();
     6a0:	e8 df       	rcall	.-48     	; 0x672 <setKeyboardPhase2>
     6a2:	f7 df       	rcall	.-18     	; 0x692 <readKeyboardPhase2>
	lineCode=readKeyboardPhase2();
     6a4:	8c 2b       	or	r24, r28
     6a6:	48 2f       	mov	r20, r24
	
	keyCode = colCode | lineCode;
     6a8:	50 e0       	ldi	r21, 0x00	; 0
	
	switch(keyCode)
     6aa:	fa 01       	movw	r30, r20
     6ac:	39 97       	sbiw	r30, 0x09	; 9
     6ae:	ec 33       	cpi	r30, 0x3C	; 60
     6b0:	f1 05       	cpc	r31, r1
     6b2:	58 f4       	brcc	.+22     	; 0x6ca <processKeyboard+0x32>
     6b4:	ec 5c       	subi	r30, 0xCC	; 204
     6b6:	ff 4f       	sbci	r31, 0xFF	; 255
     6b8:	0c 94 f0 17 	jmp	0x2fe0	; 0x2fe0 <__tablejump2__>
     6bc:	90 91 c8 01 	lds	r25, 0x01C8	; 0x8001c8 <__data_end>
		case KEY_8:
		case KEY_9:
		case KEY_ASTERISK:
		case KEY_0:
		case KEY_HASH:
			if(PrevKeyCode!=keyCode)
     6c0:	89 17       	cp	r24, r25
     6c2:	61 f0       	breq	.+24     	; 0x6dc <processKeyboard+0x44>
     6c4:	80 93 ca 01 	sts	0x01CA, r24	; 0x8001ca <PressedKeyCode>
				PressedKeyCode=keyCode;
     6c8:	09 c0       	rjmp	.+18     	; 0x6dc <processKeyboard+0x44>
     6ca:	80 91 c8 01 	lds	r24, 0x01C8	; 0x8001c8 <__data_end>
			break;
		default:
			keyCode=KEY_NONE;
			if(PrevKeyCode!=keyCode)
     6ce:	88 23       	and	r24, r24
     6d0:	21 f0       	breq	.+8      	; 0x6da <processKeyboard+0x42>
     6d2:	80 93 c9 01 	sts	0x01C9, r24	; 0x8001c9 <ReleasedKeyCode>
				ReleasedKeyCode=PrevKeyCode;
     6d6:	80 e0       	ldi	r24, 0x00	; 0
     6d8:	01 c0       	rjmp	.+2      	; 0x6dc <processKeyboard+0x44>
		case KEY_HASH:
			if(PrevKeyCode!=keyCode)
				PressedKeyCode=keyCode;
			break;
		default:
			keyCode=KEY_NONE;
     6da:	80 e0       	ldi	r24, 0x00	; 0
     6dc:	20 91 ca 01 	lds	r18, 0x01CA	; 0x8001ca <PressedKeyCode>
			if(PrevKeyCode!=keyCode)
				ReleasedKeyCode=PrevKeyCode;
	}
	if(PressedKeyCode==ReleasedKeyCode)
     6e0:	90 91 c9 01 	lds	r25, 0x01C9	; 0x8001c9 <ReleasedKeyCode>
     6e4:	29 13       	cpse	r18, r25
     6e6:	02 c0       	rjmp	.+4      	; 0x6ec <processKeyboard+0x54>
     6e8:	10 92 ca 01 	sts	0x01CA, r1	; 0x8001ca <PressedKeyCode>
		PressedKeyCode=0;
     6ec:	80 93 c8 01 	sts	0x01C8, r24	; 0x8001c8 <__data_end>
		
	PrevKeyCode=keyCode;
     6f0:	cf 91       	pop	r28
     6f2:	08 95       	ret

000006f4 <updateMain>:
	
}
     6f4:	cf 93       	push	r28
     6f6:	df 93       	push	r29
	
	char *playStr = "Play";
	char *spyRecStr = "Spy & Record";
	char *customStr = "Custom";
	
	Refresh|=updateIndex(&index, NB_ITEM_MAINMENU);
     6f8:	63 e0       	ldi	r22, 0x03	; 3
     6fa:	8b ec       	ldi	r24, 0xCB	; 203
     6fc:	91 e0       	ldi	r25, 0x01	; 1
     6fe:	3b d2       	rcall	.+1142   	; 0xb76 <updateIndex>
     700:	90 91 df 01 	lds	r25, 0x01DF	; 0x8001df <Refresh>
     704:	89 2b       	or	r24, r25
     706:	80 93 df 01 	sts	0x01DF, r24	; 0x8001df <Refresh>
	
	if(ChangedScreen)
     70a:	80 91 00 01 	lds	r24, 0x0100	; 0x800100 <ChangedScreen>
     70e:	88 23       	and	r24, r24
     710:	19 f0       	breq	.+6      	; 0x718 <updateMain+0x24>
		Refresh=1;
     712:	81 e0       	ldi	r24, 0x01	; 1
     714:	80 93 df 01 	sts	0x01DF, r24	; 0x8001df <Refresh>
		
	switch(index)
     718:	80 91 cb 01 	lds	r24, 0x01CB	; 0x8001cb <index.2414>
     71c:	81 30       	cpi	r24, 0x01	; 1
     71e:	e9 f0       	breq	.+58     	; 0x75a <updateMain+0x66>
     720:	18 f0       	brcs	.+6      	; 0x728 <updateMain+0x34>
     722:	82 30       	cpi	r24, 0x02	; 2
     724:	99 f1       	breq	.+102    	; 0x78c <updateMain+0x98>
     726:	40 c0       	rjmp	.+128    	; 0x7a8 <updateMain+0xb4>
	{
		case 0:
			ScreenBuf[0][0] = '>';
     728:	c0 ee       	ldi	r28, 0xE0	; 224
     72a:	d1 e0       	ldi	r29, 0x01	; 1
     72c:	9e e3       	ldi	r25, 0x3E	; 62
     72e:	98 83       	st	Y, r25
			strcpy(ScreenBuf[0]+1, playStr);
     730:	95 e0       	ldi	r25, 0x05	; 5
     732:	e1 e0       	ldi	r30, 0x01	; 1
     734:	f1 e0       	ldi	r31, 0x01	; 1
     736:	a1 ee       	ldi	r26, 0xE1	; 225
     738:	b1 e0       	ldi	r27, 0x01	; 1
     73a:	01 90       	ld	r0, Z+
     73c:	0d 92       	st	X+, r0
     73e:	9a 95       	dec	r25
     740:	e1 f7       	brne	.-8      	; 0x73a <updateMain+0x46>
			
			ScreenBuf[1][0] = ' ';
     742:	90 e2       	ldi	r25, 0x20	; 32
     744:	99 8b       	std	Y+17, r25	; 0x11
			strcpy(ScreenBuf[1]+1, spyRecStr);
     746:	9d e0       	ldi	r25, 0x0D	; 13
     748:	e6 e0       	ldi	r30, 0x06	; 6
     74a:	f1 e0       	ldi	r31, 0x01	; 1
     74c:	a2 ef       	ldi	r26, 0xF2	; 242
     74e:	b1 e0       	ldi	r27, 0x01	; 1
     750:	01 90       	ld	r0, Z+
     752:	0d 92       	st	X+, r0
     754:	9a 95       	dec	r25
     756:	e1 f7       	brne	.-8      	; 0x750 <updateMain+0x5c>
			break;
     758:	27 c0       	rjmp	.+78     	; 0x7a8 <updateMain+0xb4>
		case 1:
			ScreenBuf[0][0] = ' ';
     75a:	c0 ee       	ldi	r28, 0xE0	; 224
     75c:	d1 e0       	ldi	r29, 0x01	; 1
     75e:	90 e2       	ldi	r25, 0x20	; 32
     760:	98 83       	st	Y, r25
			strcpy(ScreenBuf[0]+1, playStr);
     762:	95 e0       	ldi	r25, 0x05	; 5
     764:	e1 e0       	ldi	r30, 0x01	; 1
     766:	f1 e0       	ldi	r31, 0x01	; 1
     768:	a1 ee       	ldi	r26, 0xE1	; 225
     76a:	b1 e0       	ldi	r27, 0x01	; 1
     76c:	01 90       	ld	r0, Z+
     76e:	0d 92       	st	X+, r0
     770:	9a 95       	dec	r25
     772:	e1 f7       	brne	.-8      	; 0x76c <updateMain+0x78>
			
			ScreenBuf[1][0] = '>';
     774:	9e e3       	ldi	r25, 0x3E	; 62
     776:	99 8b       	std	Y+17, r25	; 0x11
			strcpy(ScreenBuf[1]+1, spyRecStr);
     778:	9d e0       	ldi	r25, 0x0D	; 13
     77a:	e6 e0       	ldi	r30, 0x06	; 6
     77c:	f1 e0       	ldi	r31, 0x01	; 1
     77e:	a2 ef       	ldi	r26, 0xF2	; 242
     780:	b1 e0       	ldi	r27, 0x01	; 1
     782:	01 90       	ld	r0, Z+
     784:	0d 92       	st	X+, r0
     786:	9a 95       	dec	r25
     788:	e1 f7       	brne	.-8      	; 0x782 <updateMain+0x8e>
			break;
     78a:	0e c0       	rjmp	.+28     	; 0x7a8 <updateMain+0xb4>
		case 2:
			ScreenBuf[0][0] = '>';
     78c:	c0 ee       	ldi	r28, 0xE0	; 224
     78e:	d1 e0       	ldi	r29, 0x01	; 1
     790:	9e e3       	ldi	r25, 0x3E	; 62
     792:	98 83       	st	Y, r25
			strcpy(ScreenBuf[0]+1, customStr);
     794:	97 e0       	ldi	r25, 0x07	; 7
     796:	e3 e1       	ldi	r30, 0x13	; 19
     798:	f1 e0       	ldi	r31, 0x01	; 1
     79a:	a1 ee       	ldi	r26, 0xE1	; 225
     79c:	b1 e0       	ldi	r27, 0x01	; 1
     79e:	01 90       	ld	r0, Z+
     7a0:	0d 92       	st	X+, r0
     7a2:	9a 95       	dec	r25
     7a4:	e1 f7       	brne	.-8      	; 0x79e <updateMain+0xaa>
			
			ScreenBuf[1][0]='\0';
     7a6:	19 8a       	std	Y+17, r1	; 0x11
			break;
		default:
			break;
	}
	
	if(PressedKeyCode==KEY_5)
     7a8:	90 91 ca 01 	lds	r25, 0x01CA	; 0x8001ca <PressedKeyCode>
     7ac:	92 31       	cpi	r25, 0x12	; 18
     7ae:	a9 f4       	brne	.+42     	; 0x7da <updateMain+0xe6>
	{
		switch(index)
     7b0:	88 23       	and	r24, r24
     7b2:	19 f0       	breq	.+6      	; 0x7ba <updateMain+0xc6>
     7b4:	81 30       	cpi	r24, 0x01	; 1
     7b6:	41 f0       	breq	.+16     	; 0x7c8 <updateMain+0xd4>
     7b8:	0d c0       	rjmp	.+26     	; 0x7d4 <updateMain+0xe0>
		{
			case 0:
				updatePtr=updatePlay;
     7ba:	8d e1       	ldi	r24, 0x1D	; 29
     7bc:	94 e0       	ldi	r25, 0x04	; 4
     7be:	90 93 06 02 	sts	0x0206, r25	; 0x800206 <updatePtr+0x1>
     7c2:	80 93 05 02 	sts	0x0205, r24	; 0x800205 <updatePtr>
				break;
     7c6:	06 c0       	rjmp	.+12     	; 0x7d4 <updateMain+0xe0>
			case 1:
				updatePtr=updateSpyRec;
     7c8:	81 e9       	ldi	r24, 0x91	; 145
     7ca:	95 e0       	ldi	r25, 0x05	; 5
     7cc:	90 93 06 02 	sts	0x0206, r25	; 0x800206 <updatePtr+0x1>
     7d0:	80 93 05 02 	sts	0x0205, r24	; 0x800205 <updatePtr>
				break;
			default:
				break;
		}
		ChangedScreen=1;
     7d4:	81 e0       	ldi	r24, 0x01	; 1
     7d6:	80 93 00 01 	sts	0x0100, r24	; 0x800100 <ChangedScreen>
	}
				
}
     7da:	df 91       	pop	r29
     7dc:	cf 91       	pop	r28
     7de:	08 95       	ret

000007e0 <playCode>:
		displayProtocol(&dec_results);
	}
}

void playCode(decode_results *dec_results)
{
     7e0:	cf 93       	push	r28
     7e2:	df 93       	push	r29
     7e4:	ec 01       	movw	r28, r24
	switch(dec_results->decode_type)
     7e6:	88 81       	ld	r24, Y
     7e8:	99 81       	ldd	r25, Y+1	; 0x01
     7ea:	82 30       	cpi	r24, 0x02	; 2
     7ec:	91 05       	cpc	r25, r1
     7ee:	d1 f0       	breq	.+52     	; 0x824 <playCode+0x44>
     7f0:	1c f4       	brge	.+6      	; 0x7f8 <playCode+0x18>
     7f2:	01 97       	sbiw	r24, 0x01	; 1
     7f4:	31 f0       	breq	.+12     	; 0x802 <playCode+0x22>
     7f6:	1e c0       	rjmp	.+60     	; 0x834 <playCode+0x54>
     7f8:	83 30       	cpi	r24, 0x03	; 3
     7fa:	91 05       	cpc	r25, r1
     7fc:	59 f0       	breq	.+22     	; 0x814 <playCode+0x34>
     7fe:	0c 97       	sbiw	r24, 0x0c	; 12
     800:	c9 f4       	brne	.+50     	; 0x834 <playCode+0x54>
	{
		case NEC:
		case NEC_EXT:
			ir_sendNEC(dec_results->value, dec_results->bits);
     802:	48 85       	ldd	r20, Y+8	; 0x08
     804:	59 85       	ldd	r21, Y+9	; 0x09
     806:	6c 81       	ldd	r22, Y+4	; 0x04
     808:	7d 81       	ldd	r23, Y+5	; 0x05
     80a:	8e 81       	ldd	r24, Y+6	; 0x06
     80c:	9f 81       	ldd	r25, Y+7	; 0x07
     80e:	0e 94 cb 10 	call	0x2196	; 0x2196 <ir_sendNEC>
			break;
     812:	10 c0       	rjmp	.+32     	; 0x834 <playCode+0x54>
		case RC5:
			ir_sendRC5(dec_results->value, dec_results->bits);
     814:	48 85       	ldd	r20, Y+8	; 0x08
     816:	59 85       	ldd	r21, Y+9	; 0x09
     818:	6c 81       	ldd	r22, Y+4	; 0x04
     81a:	7d 81       	ldd	r23, Y+5	; 0x05
     81c:	8e 81       	ldd	r24, Y+6	; 0x06
     81e:	9f 81       	ldd	r25, Y+7	; 0x07
     820:	0e 94 5d 11 	call	0x22ba	; 0x22ba <ir_sendRC5>
		case SONY:
			ir_sendSony(dec_results->value, dec_results->bits);
     824:	48 85       	ldd	r20, Y+8	; 0x08
     826:	59 85       	ldd	r21, Y+9	; 0x09
     828:	6c 81       	ldd	r22, Y+4	; 0x04
     82a:	7d 81       	ldd	r23, Y+5	; 0x05
     82c:	8e 81       	ldd	r24, Y+6	; 0x06
     82e:	9f 81       	ldd	r25, Y+7	; 0x07
     830:	0e 94 12 11 	call	0x2224	; 0x2224 <ir_sendSony>
			break;
		default:
			break;
	}
     834:	df 91       	pop	r29
     836:	cf 91       	pop	r28
     838:	08 95       	ret

0000083a <updatePlay>:
#include "screens.h"

void playCode(decode_results *dec_results);

void updatePlay()
{
     83a:	cf 93       	push	r28
     83c:	df 93       	push	r29
     83e:	cd b7       	in	r28, 0x3d	; 61
     840:	de b7       	in	r29, 0x3e	; 62
     842:	2e 97       	sbiw	r28, 0x0e	; 14
     844:	0f b6       	in	r0, 0x3f	; 63
     846:	f8 94       	cli
     848:	de bf       	out	0x3e, r29	; 62
     84a:	0f be       	out	0x3f, r0	; 63
     84c:	cd bf       	out	0x3d, r28	; 61
	uint8_t playQuery=1;
	decode_results dec_results;
	if(ChangedScreen)
     84e:	80 91 00 01 	lds	r24, 0x0100	; 0x800100 <ChangedScreen>
     852:	88 23       	and	r24, r24
     854:	a9 f0       	breq	.+42     	; 0x880 <updatePlay+0x46>
	{
		sprintf(ScreenBuf[0], "Press 0-9 to");
     856:	8d e0       	ldi	r24, 0x0D	; 13
     858:	ea e1       	ldi	r30, 0x1A	; 26
     85a:	f1 e0       	ldi	r31, 0x01	; 1
     85c:	a0 ee       	ldi	r26, 0xE0	; 224
     85e:	b1 e0       	ldi	r27, 0x01	; 1
     860:	01 90       	ld	r0, Z+
     862:	0d 92       	st	X+, r0
     864:	8a 95       	dec	r24
     866:	e1 f7       	brne	.-8      	; 0x860 <updatePlay+0x26>
		sprintf(ScreenBuf[1], "send saved code!");
     868:	81 e1       	ldi	r24, 0x11	; 17
     86a:	e7 e2       	ldi	r30, 0x27	; 39
     86c:	f1 e0       	ldi	r31, 0x01	; 1
     86e:	a1 ef       	ldi	r26, 0xF1	; 241
     870:	b1 e0       	ldi	r27, 0x01	; 1
     872:	01 90       	ld	r0, Z+
     874:	0d 92       	st	X+, r0
     876:	8a 95       	dec	r24
     878:	e1 f7       	brne	.-8      	; 0x872 <updatePlay+0x38>
		Refresh=1;
     87a:	81 e0       	ldi	r24, 0x01	; 1
     87c:	80 93 df 01 	sts	0x01DF, r24	; 0x8001df <Refresh>
	}
	switch(PressedKeyCode)
     880:	e0 91 ca 01 	lds	r30, 0x01CA	; 0x8001ca <PressedKeyCode>
     884:	8e 2f       	mov	r24, r30
     886:	90 e0       	ldi	r25, 0x00	; 0
     888:	fc 01       	movw	r30, r24
     88a:	39 97       	sbiw	r30, 0x09	; 9
     88c:	ea 33       	cpi	r30, 0x3A	; 58
     88e:	f1 05       	cpc	r31, r1
     890:	08 f0       	brcs	.+2      	; 0x894 <updatePlay+0x5a>
     892:	4f c0       	rjmp	.+158    	; 0x932 <__stack+0x33>
     894:	e0 59       	subi	r30, 0x90	; 144
     896:	ff 4f       	sbci	r31, 0xFF	; 255
     898:	0c 94 f0 17 	jmp	0x2fe0	; 0x2fe0 <__tablejump2__>
	{
		case KEY_0:
			ir_sendNEC(0xC1AA59A6, NEC_BITS);
     89c:	40 e2       	ldi	r20, 0x20	; 32
     89e:	50 e0       	ldi	r21, 0x00	; 0
     8a0:	66 ea       	ldi	r22, 0xA6	; 166
     8a2:	79 e5       	ldi	r23, 0x59	; 89
     8a4:	8a ea       	ldi	r24, 0xAA	; 170
     8a6:	91 ec       	ldi	r25, 0xC1	; 193
     8a8:	0e 94 cb 10 	call	0x2196	; 0x2196 <ir_sendNEC>

void playCode(decode_results *dec_results);

void updatePlay()
{
	uint8_t playQuery=1;
     8ac:	81 e0       	ldi	r24, 0x01	; 1
	switch(PressedKeyCode)
	{
		case KEY_0:
			ir_sendNEC(0xC1AA59A6, NEC_BITS);
			//getCode(&dec_results, 0);
			break;
     8ae:	42 c0       	rjmp	.+132    	; 0x934 <__stack+0x35>
		case KEY_1:
			getCode(&dec_results, 1);
     8b0:	61 e0       	ldi	r22, 0x01	; 1
     8b2:	ce 01       	movw	r24, r28
     8b4:	01 96       	adiw	r24, 0x01	; 1
     8b6:	b0 dd       	rcall	.-1184   	; 0x418 <getCode>

void playCode(decode_results *dec_results);

void updatePlay()
{
	uint8_t playQuery=1;
     8b8:	81 e0       	ldi	r24, 0x01	; 1
			ir_sendNEC(0xC1AA59A6, NEC_BITS);
			//getCode(&dec_results, 0);
			break;
		case KEY_1:
			getCode(&dec_results, 1);
			break;
     8ba:	3c c0       	rjmp	.+120    	; 0x934 <__stack+0x35>
		case KEY_2:
			getCode(&dec_results, 2);
     8bc:	62 e0       	ldi	r22, 0x02	; 2
     8be:	ce 01       	movw	r24, r28
     8c0:	01 96       	adiw	r24, 0x01	; 1
     8c2:	aa dd       	rcall	.-1196   	; 0x418 <getCode>

void playCode(decode_results *dec_results);

void updatePlay()
{
	uint8_t playQuery=1;
     8c4:	81 e0       	ldi	r24, 0x01	; 1
		case KEY_1:
			getCode(&dec_results, 1);
			break;
		case KEY_2:
			getCode(&dec_results, 2);
			break;
     8c6:	36 c0       	rjmp	.+108    	; 0x934 <__stack+0x35>
		case KEY_3:
			getCode(&dec_results, 3);
     8c8:	63 e0       	ldi	r22, 0x03	; 3
     8ca:	ce 01       	movw	r24, r28
     8cc:	01 96       	adiw	r24, 0x01	; 1
     8ce:	a4 dd       	rcall	.-1208   	; 0x418 <getCode>

void playCode(decode_results *dec_results);

void updatePlay()
{
	uint8_t playQuery=1;
     8d0:	81 e0       	ldi	r24, 0x01	; 1
		case KEY_2:
			getCode(&dec_results, 2);
			break;
		case KEY_3:
			getCode(&dec_results, 3);
			break;
     8d2:	30 c0       	rjmp	.+96     	; 0x934 <__stack+0x35>
		case KEY_4:
			getCode(&dec_results, 4);
     8d4:	64 e0       	ldi	r22, 0x04	; 4
     8d6:	ce 01       	movw	r24, r28
     8d8:	01 96       	adiw	r24, 0x01	; 1
     8da:	9e dd       	rcall	.-1220   	; 0x418 <getCode>

void playCode(decode_results *dec_results);

void updatePlay()
{
	uint8_t playQuery=1;
     8dc:	81 e0       	ldi	r24, 0x01	; 1
			break;
		case KEY_4:
			getCode(&dec_results, 4);
			break;
		case KEY_5:
			getCode(&dec_results, 5);
     8de:	2a c0       	rjmp	.+84     	; 0x934 <__stack+0x35>
     8e0:	65 e0       	ldi	r22, 0x05	; 5
     8e2:	ce 01       	movw	r24, r28
     8e4:	01 96       	adiw	r24, 0x01	; 1
     8e6:	98 dd       	rcall	.-1232   	; 0x418 <getCode>
			break;
     8e8:	81 e0       	ldi	r24, 0x01	; 1
		case KEY_6:
			getCode(&dec_results, 6);
     8ea:	24 c0       	rjmp	.+72     	; 0x934 <__stack+0x35>
     8ec:	66 e0       	ldi	r22, 0x06	; 6
     8ee:	ce 01       	movw	r24, r28
     8f0:	01 96       	adiw	r24, 0x01	; 1

void playCode(decode_results *dec_results);

void updatePlay()
{
	uint8_t playQuery=1;
     8f2:	92 dd       	rcall	.-1244   	; 0x418 <getCode>
		case KEY_5:
			getCode(&dec_results, 5);
			break;
		case KEY_6:
			getCode(&dec_results, 6);
			break;
     8f4:	81 e0       	ldi	r24, 0x01	; 1
		case KEY_7:
			getCode(&dec_results, 7);
     8f6:	1e c0       	rjmp	.+60     	; 0x934 <__stack+0x35>
     8f8:	67 e0       	ldi	r22, 0x07	; 7
     8fa:	ce 01       	movw	r24, r28
     8fc:	01 96       	adiw	r24, 0x01	; 1

void playCode(decode_results *dec_results);

void updatePlay()
{
	uint8_t playQuery=1;
     8fe:	8c dd       	rcall	.-1256   	; 0x418 <getCode>
		case KEY_6:
			getCode(&dec_results, 6);
			break;
		case KEY_7:
			getCode(&dec_results, 7);
			break;
     900:	81 e0       	ldi	r24, 0x01	; 1
		case KEY_8:
			getCode(&dec_results, 8);
     902:	18 c0       	rjmp	.+48     	; 0x934 <__stack+0x35>
     904:	68 e0       	ldi	r22, 0x08	; 8
     906:	ce 01       	movw	r24, r28
     908:	01 96       	adiw	r24, 0x01	; 1

void playCode(decode_results *dec_results);

void updatePlay()
{
	uint8_t playQuery=1;
     90a:	86 dd       	rcall	.-1268   	; 0x418 <getCode>
		case KEY_7:
			getCode(&dec_results, 7);
			break;
		case KEY_8:
			getCode(&dec_results, 8);
			break;
     90c:	81 e0       	ldi	r24, 0x01	; 1
		case KEY_9:
			getCode(&dec_results, 9);
     90e:	12 c0       	rjmp	.+36     	; 0x934 <__stack+0x35>
     910:	69 e0       	ldi	r22, 0x09	; 9
     912:	ce 01       	movw	r24, r28
     914:	01 96       	adiw	r24, 0x01	; 1
     916:	80 dd       	rcall	.-1280   	; 0x418 <getCode>

void playCode(decode_results *dec_results);

void updatePlay()
{
	uint8_t playQuery=1;
     918:	81 e0       	ldi	r24, 0x01	; 1
		case KEY_8:
			getCode(&dec_results, 8);
			break;
		case KEY_9:
			getCode(&dec_results, 9);
			break;
     91a:	0c c0       	rjmp	.+24     	; 0x934 <__stack+0x35>
		case KEY_ASTERISK:
			playQuery=0;
			updatePtr=updateMain;
     91c:	8a e7       	ldi	r24, 0x7A	; 122
     91e:	93 e0       	ldi	r25, 0x03	; 3
     920:	90 93 06 02 	sts	0x0206, r25	; 0x800206 <updatePtr+0x1>
     924:	80 93 05 02 	sts	0x0205, r24	; 0x800205 <updatePtr>
			ChangedScreen=1;
     928:	81 e0       	ldi	r24, 0x01	; 1
     92a:	80 93 00 01 	sts	0x0100, r24	; 0x800100 <ChangedScreen>
			break;
		default:
			playQuery=0;
     92e:	80 e0       	ldi	r24, 0x00	; 0
			break;
	}
	if(playQuery)
     930:	01 c0       	rjmp	.+2      	; 0x934 <__stack+0x35>
     932:	80 e0       	ldi	r24, 0x00	; 0
	{
		playCode(&dec_results);
     934:	88 23       	and	r24, r24
     936:	31 f0       	breq	.+12     	; 0x944 <__stack+0x45>
     938:	ce 01       	movw	r24, r28
     93a:	01 96       	adiw	r24, 0x01	; 1
		displayProtocol(&dec_results);
     93c:	51 df       	rcall	.-350    	; 0x7e0 <playCode>
     93e:	ce 01       	movw	r24, r28
     940:	01 96       	adiw	r24, 0x01	; 1
     942:	55 d1       	rcall	.+682    	; 0xbee <displayProtocol>
	}
}
     944:	2e 96       	adiw	r28, 0x0e	; 14
     946:	0f b6       	in	r0, 0x3f	; 63
     948:	f8 94       	cli
     94a:	de bf       	out	0x3e, r29	; 62
     94c:	0f be       	out	0x3f, r0	; 63
     94e:	cd bf       	out	0x3d, r28	; 61
     950:	df 91       	pop	r29
     952:	cf 91       	pop	r28
     954:	08 95       	ret

00000956 <updateSaved>:
#include "screens.h"

void updateSaved()
{
	static uint16_t ref1=0;
	if(ChangedScreen)
     956:	80 91 00 01 	lds	r24, 0x0100	; 0x800100 <ChangedScreen>
     95a:	88 23       	and	r24, r24
     95c:	91 f0       	breq	.+36     	; 0x982 <updateSaved+0x2c>
	{
		sprintf(ScreenBuf[0], "    Saved !     ");
     95e:	81 e1       	ldi	r24, 0x11	; 17
     960:	e8 e3       	ldi	r30, 0x38	; 56
     962:	f1 e0       	ldi	r31, 0x01	; 1
     964:	a0 ee       	ldi	r26, 0xE0	; 224
     966:	b1 e0       	ldi	r27, 0x01	; 1
     968:	01 90       	ld	r0, Z+
     96a:	0d 92       	st	X+, r0
     96c:	8a 95       	dec	r24
     96e:	e1 f7       	brne	.-8      	; 0x968 <updateSaved+0x12>
		ScreenBuf[1][0]='\0';
     970:	10 92 f1 01 	sts	0x01F1, r1	; 0x8001f1 <ScreenBuf+0x11>
		Refresh=1;
     974:	81 e0       	ldi	r24, 0x01	; 1
     976:	80 93 df 01 	sts	0x01DF, r24	; 0x8001df <Refresh>
		marqueTime16(&ref1);
     97a:	8c ec       	ldi	r24, 0xCC	; 204
     97c:	91 e0       	ldi	r25, 0x01	; 1
     97e:	0e 94 a8 15 	call	0x2b50	; 0x2b50 <marqueTime16>
	}
	if(elapsedTime16(&ref1)>100)
     982:	8c ec       	ldi	r24, 0xCC	; 204
     984:	91 e0       	ldi	r25, 0x01	; 1
     986:	0e 94 b0 15 	call	0x2b60	; 0x2b60 <elapsedTime16>
     98a:	85 36       	cpi	r24, 0x65	; 101
     98c:	91 05       	cpc	r25, r1
     98e:	48 f0       	brcs	.+18     	; 0x9a2 <updateSaved+0x4c>
	{
		updatePtr=updateSpyRec;
     990:	81 e9       	ldi	r24, 0x91	; 145
     992:	95 e0       	ldi	r25, 0x05	; 5
     994:	90 93 06 02 	sts	0x0206, r25	; 0x800206 <updatePtr+0x1>
     998:	80 93 05 02 	sts	0x0205, r24	; 0x800205 <updatePtr>
		ChangedScreen=1;
     99c:	81 e0       	ldi	r24, 0x01	; 1
     99e:	80 93 00 01 	sts	0x0100, r24	; 0x800100 <ChangedScreen>
     9a2:	08 95       	ret

000009a4 <detectNEC_ext>:
		
	}
		
}
void detectNEC_ext(decode_results *dec_results)
{
     9a4:	fc 01       	movw	r30, r24
	if((uint8_t)((dec_results->value&0xFF000000)>>24) != (uint8_t)~(((dec_results->value)&0xFF0000)>>16))
     9a6:	96 81       	ldd	r25, Z+6	; 0x06
     9a8:	87 81       	ldd	r24, Z+7	; 0x07
     9aa:	90 95       	com	r25
     9ac:	98 17       	cp	r25, r24
     9ae:	21 f0       	breq	.+8      	; 0x9b8 <detectNEC_ext+0x14>
		dec_results->decode_type=NEC_EXT;
     9b0:	8c e0       	ldi	r24, 0x0C	; 12
     9b2:	90 e0       	ldi	r25, 0x00	; 0
     9b4:	91 83       	std	Z+1, r25	; 0x01
     9b6:	80 83       	st	Z, r24
     9b8:	08 95       	ret

000009ba <spy>:
		updatePtr=updateMain;
		ChangedScreen=1;
	}
}
void spy()
{
     9ba:	cf 93       	push	r28
     9bc:	df 93       	push	r29
     9be:	cd b7       	in	r28, 0x3d	; 61
     9c0:	de b7       	in	r29, 0x3e	; 62
     9c2:	2e 97       	sbiw	r28, 0x0e	; 14
     9c4:	0f b6       	in	r0, 0x3f	; 63
     9c6:	f8 94       	cli
     9c8:	de bf       	out	0x3e, r29	; 62
     9ca:	0f be       	out	0x3f, r0	; 63
     9cc:	cd bf       	out	0x3d, r28	; 61
	decode_results dec_results;
	static decode_results dec_results_save;
	static uint16_t ref1=0;
	static uint8_t resume=0;
	uint8_t saved = 0;
	uint8_t found=ir_decode(&dec_results);
     9ce:	ce 01       	movw	r24, r28
     9d0:	01 96       	adiw	r24, 0x01	; 1
     9d2:	0e 94 73 12 	call	0x24e6	; 0x24e6 <ir_decode>
	
	
	if (found&&!resume) 
     9d6:	88 23       	and	r24, r24
     9d8:	41 f1       	breq	.+80     	; 0xa2a <spy+0x70>
     9da:	80 91 de 01 	lds	r24, 0x01DE	; 0x8001de <resume.2422>
     9de:	81 11       	cpse	r24, r1
     9e0:	24 c0       	rjmp	.+72     	; 0xa2a <spy+0x70>
	{
		dec_results_save.decode_type = dec_results.decode_type;
     9e2:	89 81       	ldd	r24, Y+1	; 0x01
     9e4:	9a 81       	ldd	r25, Y+2	; 0x02
     9e6:	e0 ed       	ldi	r30, 0xD0	; 208
     9e8:	f1 e0       	ldi	r31, 0x01	; 1
     9ea:	91 83       	std	Z+1, r25	; 0x01
     9ec:	80 83       	st	Z, r24
		dec_results_save.bits = dec_results.bits;
     9ee:	29 85       	ldd	r18, Y+9	; 0x09
     9f0:	3a 85       	ldd	r19, Y+10	; 0x0a
     9f2:	31 87       	std	Z+9, r19	; 0x09
     9f4:	20 87       	std	Z+8, r18	; 0x08
		dec_results_save.value = dec_results.value;
     9f6:	4d 81       	ldd	r20, Y+5	; 0x05
     9f8:	5e 81       	ldd	r21, Y+6	; 0x06
     9fa:	6f 81       	ldd	r22, Y+7	; 0x07
     9fc:	78 85       	ldd	r23, Y+8	; 0x08
     9fe:	44 83       	std	Z+4, r20	; 0x04
     a00:	55 83       	std	Z+5, r21	; 0x05
     a02:	66 83       	std	Z+6, r22	; 0x06
     a04:	77 83       	std	Z+7, r23	; 0x07
		dec_results_save.panasonicAddress = dec_results.panasonicAddress;
     a06:	2b 81       	ldd	r18, Y+3	; 0x03
     a08:	3c 81       	ldd	r19, Y+4	; 0x04
     a0a:	33 83       	std	Z+3, r19	; 0x03
     a0c:	22 83       	std	Z+2, r18	; 0x02
		
		if(dec_results_save.decode_type==NEC)
     a0e:	01 97       	sbiw	r24, 0x01	; 1
     a10:	11 f4       	brne	.+4      	; 0xa16 <spy+0x5c>
			detectNEC_ext(&dec_results_save);
     a12:	cf 01       	movw	r24, r30
     a14:	c7 df       	rcall	.-114    	; 0x9a4 <detectNEC_ext>
		
		displayProtocol(&dec_results_save);
     a16:	80 ed       	ldi	r24, 0xD0	; 208
     a18:	91 e0       	ldi	r25, 0x01	; 1
     a1a:	e9 d0       	rcall	.+466    	; 0xbee <displayProtocol>
		marqueTime16(&ref1);
     a1c:	8e ec       	ldi	r24, 0xCE	; 206
     a1e:	91 e0       	ldi	r25, 0x01	; 1
     a20:	0e 94 a8 15 	call	0x2b50	; 0x2b50 <marqueTime16>
		resume=1;		   
     a24:	81 e0       	ldi	r24, 0x01	; 1
     a26:	80 93 de 01 	sts	0x01DE, r24	; 0x8001de <resume.2422>
	}
	if (elapsedTime16(&ref1)>20 && resume) // wait 200ms before listening again
     a2a:	8e ec       	ldi	r24, 0xCE	; 206
     a2c:	91 e0       	ldi	r25, 0x01	; 1
     a2e:	0e 94 b0 15 	call	0x2b60	; 0x2b60 <elapsedTime16>
     a32:	45 97       	sbiw	r24, 0x15	; 21
     a34:	40 f0       	brcs	.+16     	; 0xa46 <spy+0x8c>
     a36:	80 91 de 01 	lds	r24, 0x01DE	; 0x8001de <resume.2422>
     a3a:	88 23       	and	r24, r24
     a3c:	21 f0       	breq	.+8      	; 0xa46 <spy+0x8c>
	{
		 ir_resume(); // Receive the next value
     a3e:	0e 94 6b 12 	call	0x24d6	; 0x24d6 <ir_resume>
		 resume=0;
     a42:	10 92 de 01 	sts	0x01DE, r1	; 0x8001de <resume.2422>
	}
	if(dec_results_save.decode_type != 0 && dec_results_save.decode_type != UNKNOWN)
     a46:	80 91 d0 01 	lds	r24, 0x01D0	; 0x8001d0 <dec_results_save.2420>
     a4a:	90 91 d1 01 	lds	r25, 0x01D1	; 0x8001d1 <dec_results_save.2420+0x1>
     a4e:	01 96       	adiw	r24, 0x01	; 1
     a50:	02 97       	sbiw	r24, 0x02	; 2
     a52:	08 f4       	brcc	.+2      	; 0xa56 <spy+0x9c>
     a54:	5d c0       	rjmp	.+186    	; 0xb10 <spy+0x156>
	{	
		if(ChangedScreen)
     a56:	80 91 00 01 	lds	r24, 0x0100	; 0x800100 <ChangedScreen>
     a5a:	88 23       	and	r24, r24
     a5c:	19 f0       	breq	.+6      	; 0xa64 <spy+0xaa>
			displayProtocol(&dec_results_save);
     a5e:	80 ed       	ldi	r24, 0xD0	; 208
     a60:	91 e0       	ldi	r25, 0x01	; 1
     a62:	c5 d0       	rcall	.+394    	; 0xbee <displayProtocol>
		saved=1;
		switch(PressedKeyCode)
     a64:	e0 91 ca 01 	lds	r30, 0x01CA	; 0x8001ca <PressedKeyCode>
     a68:	8e 2f       	mov	r24, r30
     a6a:	90 e0       	ldi	r25, 0x00	; 0
     a6c:	fc 01       	movw	r30, r24
     a6e:	39 97       	sbiw	r30, 0x09	; 9
     a70:	ea 33       	cpi	r30, 0x3A	; 58
     a72:	f1 05       	cpc	r31, r1
     a74:	08 f0       	brcs	.+2      	; 0xa78 <spy+0xbe>
     a76:	40 c0       	rjmp	.+128    	; 0xaf8 <spy+0x13e>
     a78:	e6 55       	subi	r30, 0x56	; 86
     a7a:	ff 4f       	sbci	r31, 0xFF	; 255
     a7c:	0c 94 f0 17 	jmp	0x2fe0	; 0x2fe0 <__tablejump2__>
		{
			case KEY_0:
				saveCode(&dec_results_save, 0);
     a80:	60 e0       	ldi	r22, 0x00	; 0
     a82:	80 ed       	ldi	r24, 0xD0	; 208
     a84:	91 e0       	ldi	r25, 0x01	; 1
     a86:	be db       	rcall	.-2180   	; 0x204 <saveCode>
	}
	if(dec_results_save.decode_type != 0 && dec_results_save.decode_type != UNKNOWN)
	{	
		if(ChangedScreen)
			displayProtocol(&dec_results_save);
		saved=1;
     a88:	81 e0       	ldi	r24, 0x01	; 1
		{
			case KEY_0:
				saveCode(&dec_results_save, 0);
				break;
			case KEY_1:
				saveCode(&dec_results_save, 1);
     a8a:	37 c0       	rjmp	.+110    	; 0xafa <spy+0x140>
     a8c:	61 e0       	ldi	r22, 0x01	; 1
     a8e:	80 ed       	ldi	r24, 0xD0	; 208
     a90:	91 e0       	ldi	r25, 0x01	; 1
     a92:	b8 db       	rcall	.-2192   	; 0x204 <saveCode>
				break;
     a94:	81 e0       	ldi	r24, 0x01	; 1
			case KEY_2:
				saveCode(&dec_results_save, 2);
     a96:	31 c0       	rjmp	.+98     	; 0xafa <spy+0x140>
     a98:	62 e0       	ldi	r22, 0x02	; 2
     a9a:	80 ed       	ldi	r24, 0xD0	; 208
     a9c:	91 e0       	ldi	r25, 0x01	; 1
	}
	if(dec_results_save.decode_type != 0 && dec_results_save.decode_type != UNKNOWN)
	{	
		if(ChangedScreen)
			displayProtocol(&dec_results_save);
		saved=1;
     a9e:	b2 db       	rcall	.-2204   	; 0x204 <saveCode>
			case KEY_1:
				saveCode(&dec_results_save, 1);
				break;
			case KEY_2:
				saveCode(&dec_results_save, 2);
				break;
     aa0:	81 e0       	ldi	r24, 0x01	; 1
			case KEY_3:
				saveCode(&dec_results_save, 3);
     aa2:	2b c0       	rjmp	.+86     	; 0xafa <spy+0x140>
     aa4:	63 e0       	ldi	r22, 0x03	; 3
     aa6:	80 ed       	ldi	r24, 0xD0	; 208
     aa8:	91 e0       	ldi	r25, 0x01	; 1
	}
	if(dec_results_save.decode_type != 0 && dec_results_save.decode_type != UNKNOWN)
	{	
		if(ChangedScreen)
			displayProtocol(&dec_results_save);
		saved=1;
     aaa:	ac db       	rcall	.-2216   	; 0x204 <saveCode>
			case KEY_2:
				saveCode(&dec_results_save, 2);
				break;
			case KEY_3:
				saveCode(&dec_results_save, 3);
				break;
     aac:	81 e0       	ldi	r24, 0x01	; 1
			case KEY_4:
				saveCode(&dec_results_save, 4);
     aae:	25 c0       	rjmp	.+74     	; 0xafa <spy+0x140>
     ab0:	64 e0       	ldi	r22, 0x04	; 4
     ab2:	80 ed       	ldi	r24, 0xD0	; 208
     ab4:	91 e0       	ldi	r25, 0x01	; 1
	}
	if(dec_results_save.decode_type != 0 && dec_results_save.decode_type != UNKNOWN)
	{	
		if(ChangedScreen)
			displayProtocol(&dec_results_save);
		saved=1;
     ab6:	a6 db       	rcall	.-2228   	; 0x204 <saveCode>
			case KEY_3:
				saveCode(&dec_results_save, 3);
				break;
			case KEY_4:
				saveCode(&dec_results_save, 4);
				break;
     ab8:	81 e0       	ldi	r24, 0x01	; 1
			case KEY_5:
				saveCode(&dec_results_save, 5);
     aba:	1f c0       	rjmp	.+62     	; 0xafa <spy+0x140>
     abc:	65 e0       	ldi	r22, 0x05	; 5
     abe:	80 ed       	ldi	r24, 0xD0	; 208
     ac0:	91 e0       	ldi	r25, 0x01	; 1
	}
	if(dec_results_save.decode_type != 0 && dec_results_save.decode_type != UNKNOWN)
	{	
		if(ChangedScreen)
			displayProtocol(&dec_results_save);
		saved=1;
     ac2:	a0 db       	rcall	.-2240   	; 0x204 <saveCode>
			case KEY_4:
				saveCode(&dec_results_save, 4);
				break;
			case KEY_5:
				saveCode(&dec_results_save, 5);
				break;
     ac4:	81 e0       	ldi	r24, 0x01	; 1
			case KEY_6:
				saveCode(&dec_results_save, 6);
     ac6:	19 c0       	rjmp	.+50     	; 0xafa <spy+0x140>
     ac8:	66 e0       	ldi	r22, 0x06	; 6
     aca:	80 ed       	ldi	r24, 0xD0	; 208
     acc:	91 e0       	ldi	r25, 0x01	; 1
	}
	if(dec_results_save.decode_type != 0 && dec_results_save.decode_type != UNKNOWN)
	{	
		if(ChangedScreen)
			displayProtocol(&dec_results_save);
		saved=1;
     ace:	9a db       	rcall	.-2252   	; 0x204 <saveCode>
				break;
			case KEY_6:
				saveCode(&dec_results_save, 6);
				break;
			case KEY_7:
				saveCode(&dec_results_save, 7);
     ad0:	81 e0       	ldi	r24, 0x01	; 1
     ad2:	13 c0       	rjmp	.+38     	; 0xafa <spy+0x140>
     ad4:	67 e0       	ldi	r22, 0x07	; 7
     ad6:	80 ed       	ldi	r24, 0xD0	; 208
     ad8:	91 e0       	ldi	r25, 0x01	; 1
				break;
     ada:	94 db       	rcall	.-2264   	; 0x204 <saveCode>
			case KEY_8:
				saveCode(&dec_results_save, 8);
     adc:	81 e0       	ldi	r24, 0x01	; 1
     ade:	0d c0       	rjmp	.+26     	; 0xafa <spy+0x140>
     ae0:	68 e0       	ldi	r22, 0x08	; 8
     ae2:	80 ed       	ldi	r24, 0xD0	; 208
     ae4:	91 e0       	ldi	r25, 0x01	; 1
	}
	if(dec_results_save.decode_type != 0 && dec_results_save.decode_type != UNKNOWN)
	{	
		if(ChangedScreen)
			displayProtocol(&dec_results_save);
		saved=1;
     ae6:	8e db       	rcall	.-2276   	; 0x204 <saveCode>
			case KEY_7:
				saveCode(&dec_results_save, 7);
				break;
			case KEY_8:
				saveCode(&dec_results_save, 8);
				break;
     ae8:	81 e0       	ldi	r24, 0x01	; 1
			case KEY_9:
				saveCode(&dec_results_save, 9);
     aea:	07 c0       	rjmp	.+14     	; 0xafa <spy+0x140>
     aec:	69 e0       	ldi	r22, 0x09	; 9
     aee:	80 ed       	ldi	r24, 0xD0	; 208
     af0:	91 e0       	ldi	r25, 0x01	; 1
     af2:	88 db       	rcall	.-2288   	; 0x204 <saveCode>
	}
	if(dec_results_save.decode_type != 0 && dec_results_save.decode_type != UNKNOWN)
	{	
		if(ChangedScreen)
			displayProtocol(&dec_results_save);
		saved=1;
     af4:	81 e0       	ldi	r24, 0x01	; 1
			case KEY_8:
				saveCode(&dec_results_save, 8);
				break;
			case KEY_9:
				saveCode(&dec_results_save, 9);
				break;
     af6:	01 c0       	rjmp	.+2      	; 0xafa <spy+0x140>
			default:
				saved=0;
     af8:	80 e0       	ldi	r24, 0x00	; 0
				break;
		}
		if(saved)
     afa:	88 23       	and	r24, r24
     afc:	49 f0       	breq	.+18     	; 0xb10 <spy+0x156>
		{
			updatePtr=updateSaved;
     afe:	8b ea       	ldi	r24, 0xAB	; 171
     b00:	94 e0       	ldi	r25, 0x04	; 4
     b02:	90 93 06 02 	sts	0x0206, r25	; 0x800206 <updatePtr+0x1>
     b06:	80 93 05 02 	sts	0x0205, r24	; 0x800205 <updatePtr>
			ChangedScreen=1;
     b0a:	81 e0       	ldi	r24, 0x01	; 1
     b0c:	80 93 00 01 	sts	0x0100, r24	; 0x800100 <ChangedScreen>
		}
		
	}
		
}
     b10:	2e 96       	adiw	r28, 0x0e	; 14
     b12:	0f b6       	in	r0, 0x3f	; 63
     b14:	f8 94       	cli
     b16:	de bf       	out	0x3e, r29	; 62
     b18:	0f be       	out	0x3f, r0	; 63
     b1a:	cd bf       	out	0x3d, r28	; 61
     b1c:	df 91       	pop	r29
     b1e:	cf 91       	pop	r28
     b20:	08 95       	ret

00000b22 <updateSpyRec>:



void updateSpyRec()
{	
	if(ChangedScreen)
     b22:	80 91 00 01 	lds	r24, 0x0100	; 0x800100 <ChangedScreen>
     b26:	88 23       	and	r24, r24
     b28:	b9 f0       	breq	.+46     	; 0xb58 <updateSpyRec+0x36>
	{
		ir_enableIRIn();
     b2a:	0e 94 b0 11 	call	0x2360	; 0x2360 <ir_enableIRIn>
		sprintf(ScreenBuf[0], "Spying... Press");
     b2e:	80 e1       	ldi	r24, 0x10	; 16
     b30:	e9 e4       	ldi	r30, 0x49	; 73
     b32:	f1 e0       	ldi	r31, 0x01	; 1
     b34:	a0 ee       	ldi	r26, 0xE0	; 224
     b36:	b1 e0       	ldi	r27, 0x01	; 1
     b38:	01 90       	ld	r0, Z+
     b3a:	0d 92       	st	X+, r0
     b3c:	8a 95       	dec	r24
     b3e:	e1 f7       	brne	.-8      	; 0xb38 <updateSpyRec+0x16>
		sprintf(ScreenBuf[1], "0-9 to save !");
     b40:	8e e0       	ldi	r24, 0x0E	; 14
     b42:	e9 e5       	ldi	r30, 0x59	; 89
     b44:	f1 e0       	ldi	r31, 0x01	; 1
     b46:	a1 ef       	ldi	r26, 0xF1	; 241
     b48:	b1 e0       	ldi	r27, 0x01	; 1
     b4a:	01 90       	ld	r0, Z+
     b4c:	0d 92       	st	X+, r0
     b4e:	8a 95       	dec	r24
     b50:	e1 f7       	brne	.-8      	; 0xb4a <updateSpyRec+0x28>
		Refresh=1;
     b52:	81 e0       	ldi	r24, 0x01	; 1
     b54:	80 93 df 01 	sts	0x01DF, r24	; 0x8001df <Refresh>
	}
		
	spy();
     b58:	30 df       	rcall	.-416    	; 0x9ba <spy>
	
	if(PressedKeyCode==KEY_ASTERISK)
     b5a:	80 91 ca 01 	lds	r24, 0x01CA	; 0x8001ca <PressedKeyCode>
     b5e:	81 34       	cpi	r24, 0x41	; 65
     b60:	49 f4       	brne	.+18     	; 0xb74 <updateSpyRec+0x52>
	{
		updatePtr=updateMain;
     b62:	8a e7       	ldi	r24, 0x7A	; 122
     b64:	93 e0       	ldi	r25, 0x03	; 3
     b66:	90 93 06 02 	sts	0x0206, r25	; 0x800206 <updatePtr+0x1>
     b6a:	80 93 05 02 	sts	0x0205, r24	; 0x800205 <updatePtr>
		ChangedScreen=1;
     b6e:	81 e0       	ldi	r24, 0x01	; 1
     b70:	80 93 00 01 	sts	0x0100, r24	; 0x800100 <ChangedScreen>
     b74:	08 95       	ret

00000b76 <updateIndex>:
char ScreenBuf[2][17] = {0}; //17 pour '\0' 
uint8_t Refresh = 0;
uint8_t ChangedScreen = 1;
	
uint8_t updateIndex(uint8_t *index, uint8_t maxItem)
{
     b76:	fc 01       	movw	r30, r24
	switch(PressedKeyCode)
     b78:	90 91 ca 01 	lds	r25, 0x01CA	; 0x8001ca <PressedKeyCode>
     b7c:	9a 30       	cpi	r25, 0x0A	; 10
     b7e:	19 f0       	breq	.+6      	; 0xb86 <updateIndex+0x10>
     b80:	92 32       	cpi	r25, 0x22	; 34
     b82:	61 f0       	breq	.+24     	; 0xb9c <updateIndex+0x26>
     b84:	1b c0       	rjmp	.+54     	; 0xbbc <updateIndex+0x46>
	{
		case KEY_2:
			if(*index == 0)
     b86:	80 81       	ld	r24, Z
     b88:	81 11       	cpse	r24, r1
     b8a:	04 c0       	rjmp	.+8      	; 0xb94 <updateIndex+0x1e>
				*index=maxItem-1;
     b8c:	61 50       	subi	r22, 0x01	; 1
     b8e:	60 83       	st	Z, r22
			break;
		default:
			return 0;
			break;
	}
	return 1;
     b90:	81 e0       	ldi	r24, 0x01	; 1
     b92:	08 95       	ret
	{
		case KEY_2:
			if(*index == 0)
				*index=maxItem-1;
			else
				(*index)--;
     b94:	81 50       	subi	r24, 0x01	; 1
     b96:	80 83       	st	Z, r24
			break;
		default:
			return 0;
			break;
	}
	return 1;
     b98:	81 e0       	ldi	r24, 0x01	; 1
     b9a:	08 95       	ret
				*index=maxItem-1;
			else
				(*index)--;
			break;
		case KEY_8:
			if(*index == maxItem-1)
     b9c:	80 81       	ld	r24, Z
     b9e:	28 2f       	mov	r18, r24
     ba0:	30 e0       	ldi	r19, 0x00	; 0
     ba2:	70 e0       	ldi	r23, 0x00	; 0
     ba4:	61 50       	subi	r22, 0x01	; 1
     ba6:	71 09       	sbc	r23, r1
     ba8:	26 17       	cp	r18, r22
     baa:	37 07       	cpc	r19, r23
     bac:	19 f4       	brne	.+6      	; 0xbb4 <updateIndex+0x3e>
				*index=0;
     bae:	10 82       	st	Z, r1
			break;
		default:
			return 0;
			break;
	}
	return 1;
     bb0:	81 e0       	ldi	r24, 0x01	; 1
     bb2:	08 95       	ret
			break;
		case KEY_8:
			if(*index == maxItem-1)
				*index=0;
			else
				(*index)++;
     bb4:	8f 5f       	subi	r24, 0xFF	; 255
     bb6:	80 83       	st	Z, r24
			break;
		default:
			return 0;
			break;
	}
	return 1;
     bb8:	81 e0       	ldi	r24, 0x01	; 1
     bba:	08 95       	ret
				*index=0;
			else
				(*index)++;
			break;
		default:
			return 0;
     bbc:	80 e0       	ldi	r24, 0x00	; 0
			break;
	}
	return 1;
}
     bbe:	08 95       	ret

00000bc0 <render>:
	
void render()
{
	if(Refresh)
     bc0:	80 91 df 01 	lds	r24, 0x01DF	; 0x8001df <Refresh>
     bc4:	88 23       	and	r24, r24
     bc6:	91 f0       	breq	.+36     	; 0xbec <render+0x2c>
	{
		lcd_clrscr();
     bc8:	0e 94 08 14 	call	0x2810	; 0x2810 <lcd_clrscr>
		lcd_home();
     bcc:	0e 94 1d 14 	call	0x283a	; 0x283a <lcd_home>
		lcd_puts(ScreenBuf[0]);
     bd0:	80 ee       	ldi	r24, 0xE0	; 224
     bd2:	91 e0       	ldi	r25, 0x01	; 1
     bd4:	0e 94 32 14 	call	0x2864	; 0x2864 <lcd_puts>
		lcd_gotoxy(0, 1);
     bd8:	61 e0       	ldi	r22, 0x01	; 1
     bda:	80 e0       	ldi	r24, 0x00	; 0
     bdc:	0e 94 00 14 	call	0x2800	; 0x2800 <lcd_gotoxy>
		lcd_puts(ScreenBuf[1]);
     be0:	81 ef       	ldi	r24, 0xF1	; 241
     be2:	91 e0       	ldi	r25, 0x01	; 1
     be4:	0e 94 32 14 	call	0x2864	; 0x2864 <lcd_puts>
		Refresh=0;
     be8:	10 92 df 01 	sts	0x01DF, r1	; 0x8001df <Refresh>
     bec:	08 95       	ret

00000bee <displayProtocol>:
	}
}
void displayProtocol(decode_results *dec_results)
{
     bee:	cf 93       	push	r28
     bf0:	df 93       	push	r29
     bf2:	ec 01       	movw	r28, r24
	char *typeStr = "Type:";
	char *addrStr = "Addr:";
	char *cmdStr = "Cmd:";
	
	strcpy(ScreenBuf[0], typeStr);
     bf4:	86 e0       	ldi	r24, 0x06	; 6
     bf6:	e7 e6       	ldi	r30, 0x67	; 103
     bf8:	f1 e0       	ldi	r31, 0x01	; 1
     bfa:	a0 ee       	ldi	r26, 0xE0	; 224
     bfc:	b1 e0       	ldi	r27, 0x01	; 1
     bfe:	01 90       	ld	r0, Z+
     c00:	0d 92       	st	X+, r0
     c02:	8a 95       	dec	r24
     c04:	e1 f7       	brne	.-8      	; 0xbfe <displayProtocol+0x10>
	
	switch(dec_results->decode_type)
     c06:	88 81       	ld	r24, Y
     c08:	99 81       	ldd	r25, Y+1	; 0x01
     c0a:	82 30       	cpi	r24, 0x02	; 2
     c0c:	91 05       	cpc	r25, r1
     c0e:	09 f4       	brne	.+2      	; 0xc12 <displayProtocol+0x24>
     c10:	d9 c0       	rjmp	.+434    	; 0xdc4 <displayProtocol+0x1d6>
     c12:	1c f4       	brge	.+6      	; 0xc1a <displayProtocol+0x2c>
     c14:	01 97       	sbiw	r24, 0x01	; 1
     c16:	41 f0       	breq	.+16     	; 0xc28 <displayProtocol+0x3a>
     c18:	8a c1       	rjmp	.+788    	; 0xf2e <displayProtocol+0x340>
     c1a:	83 30       	cpi	r24, 0x03	; 3
     c1c:	91 05       	cpc	r25, r1
     c1e:	09 f4       	brne	.+2      	; 0xc22 <displayProtocol+0x34>
     c20:	94 c0       	rjmp	.+296    	; 0xd4a <displayProtocol+0x15c>
     c22:	0c 97       	sbiw	r24, 0x0c	; 12
     c24:	f1 f1       	breq	.+124    	; 0xca2 <displayProtocol+0xb4>
     c26:	83 c1       	rjmp	.+774    	; 0xf2e <displayProtocol+0x340>
	{
		case NEC:
			strcpy(ScreenBuf[0]+strlen(typeStr), "NEC");
     c28:	e5 ee       	ldi	r30, 0xE5	; 229
     c2a:	f1 e0       	ldi	r31, 0x01	; 1
     c2c:	8e e4       	ldi	r24, 0x4E	; 78
     c2e:	95 e4       	ldi	r25, 0x45	; 69
     c30:	91 83       	std	Z+1, r25	; 0x01
     c32:	80 83       	st	Z, r24
     c34:	83 e4       	ldi	r24, 0x43	; 67
     c36:	90 e0       	ldi	r25, 0x00	; 0
     c38:	93 83       	std	Z+3, r25	; 0x03
     c3a:	82 83       	std	Z+2, r24	; 0x02
			if(dec_results->value!=REPEAT)
     c3c:	8c 81       	ldd	r24, Y+4	; 0x04
     c3e:	9d 81       	ldd	r25, Y+5	; 0x05
     c40:	ae 81       	ldd	r26, Y+6	; 0x06
     c42:	bf 81       	ldd	r27, Y+7	; 0x07
     c44:	8f 3f       	cpi	r24, 0xFF	; 255
     c46:	2f ef       	ldi	r18, 0xFF	; 255
     c48:	92 07       	cpc	r25, r18
     c4a:	a2 07       	cpc	r26, r18
     c4c:	b2 07       	cpc	r27, r18
     c4e:	f9 f0       	breq	.+62     	; 0xc8e <displayProtocol+0xa0>
				sprintf(ScreenBuf[1], "%sx%02X %sx%02X", addrStr, (uint8_t)((dec_results->value&0xFF000000)>>24), cmdStr, (uint8_t)((dec_results->value&0xFF00)>>8));
     c50:	1f 92       	push	r1
     c52:	9f 93       	push	r25
     c54:	2d e6       	ldi	r18, 0x6D	; 109
     c56:	31 e0       	ldi	r19, 0x01	; 1
     c58:	3f 93       	push	r19
     c5a:	2f 93       	push	r18
     c5c:	1f 92       	push	r1
     c5e:	bf 93       	push	r27
     c60:	82 e7       	ldi	r24, 0x72	; 114
     c62:	91 e0       	ldi	r25, 0x01	; 1
     c64:	9f 93       	push	r25
     c66:	8f 93       	push	r24
     c68:	88 e7       	ldi	r24, 0x78	; 120
     c6a:	91 e0       	ldi	r25, 0x01	; 1
     c6c:	9f 93       	push	r25
     c6e:	8f 93       	push	r24
     c70:	81 ef       	ldi	r24, 0xF1	; 241
     c72:	91 e0       	ldi	r25, 0x01	; 1
     c74:	9f 93       	push	r25
     c76:	8f 93       	push	r24
     c78:	0e 94 0f 18 	call	0x301e	; 0x301e <sprintf>
     c7c:	8d b7       	in	r24, 0x3d	; 61
     c7e:	9e b7       	in	r25, 0x3e	; 62
     c80:	0c 96       	adiw	r24, 0x0c	; 12
     c82:	0f b6       	in	r0, 0x3f	; 63
     c84:	f8 94       	cli
     c86:	9e bf       	out	0x3e, r25	; 62
     c88:	0f be       	out	0x3f, r0	; 63
     c8a:	8d bf       	out	0x3d, r24	; 61
     c8c:	5b c1       	rjmp	.+694    	; 0xf44 <displayProtocol+0x356>
			else
				sprintf(ScreenBuf[1], "Repeat code");
     c8e:	8c e0       	ldi	r24, 0x0C	; 12
     c90:	e8 e8       	ldi	r30, 0x88	; 136
     c92:	f1 e0       	ldi	r31, 0x01	; 1
     c94:	a1 ef       	ldi	r26, 0xF1	; 241
     c96:	b1 e0       	ldi	r27, 0x01	; 1
     c98:	01 90       	ld	r0, Z+
     c9a:	0d 92       	st	X+, r0
     c9c:	8a 95       	dec	r24
     c9e:	e1 f7       	brne	.-8      	; 0xc98 <displayProtocol+0xaa>
     ca0:	51 c1       	rjmp	.+674    	; 0xf44 <displayProtocol+0x356>
			break;
		case NEC_EXT:
			strcpy(ScreenBuf[0]+strlen(typeStr), "NEC_E");
     ca2:	86 e0       	ldi	r24, 0x06	; 6
     ca4:	e4 e9       	ldi	r30, 0x94	; 148
     ca6:	f1 e0       	ldi	r31, 0x01	; 1
     ca8:	a5 ee       	ldi	r26, 0xE5	; 229
     caa:	b1 e0       	ldi	r27, 0x01	; 1
     cac:	01 90       	ld	r0, Z+
     cae:	0d 92       	st	X+, r0
     cb0:	8a 95       	dec	r24
     cb2:	e1 f7       	brne	.-8      	; 0xcac <displayProtocol+0xbe>
			sprintf(ScreenBuf[0], "%s %s", ScreenBuf[0], addrStr);
     cb4:	82 e7       	ldi	r24, 0x72	; 114
     cb6:	91 e0       	ldi	r25, 0x01	; 1
     cb8:	9f 93       	push	r25
     cba:	8f 93       	push	r24
     cbc:	80 ee       	ldi	r24, 0xE0	; 224
     cbe:	91 e0       	ldi	r25, 0x01	; 1
     cc0:	9f 93       	push	r25
     cc2:	8f 93       	push	r24
     cc4:	2a e9       	ldi	r18, 0x9A	; 154
     cc6:	31 e0       	ldi	r19, 0x01	; 1
     cc8:	3f 93       	push	r19
     cca:	2f 93       	push	r18
     ccc:	9f 93       	push	r25
     cce:	8f 93       	push	r24
     cd0:	0e 94 0f 18 	call	0x301e	; 0x301e <sprintf>
			if(dec_results->value!=REPEAT)
     cd4:	8c 81       	ldd	r24, Y+4	; 0x04
     cd6:	9d 81       	ldd	r25, Y+5	; 0x05
     cd8:	ae 81       	ldd	r26, Y+6	; 0x06
     cda:	bf 81       	ldd	r27, Y+7	; 0x07
     cdc:	2d b7       	in	r18, 0x3d	; 61
     cde:	3e b7       	in	r19, 0x3e	; 62
     ce0:	28 5f       	subi	r18, 0xF8	; 248
     ce2:	3f 4f       	sbci	r19, 0xFF	; 255
     ce4:	0f b6       	in	r0, 0x3f	; 63
     ce6:	f8 94       	cli
     ce8:	3e bf       	out	0x3e, r19	; 62
     cea:	0f be       	out	0x3f, r0	; 63
     cec:	2d bf       	out	0x3d, r18	; 61
     cee:	8f 3f       	cpi	r24, 0xFF	; 255
     cf0:	3f ef       	ldi	r19, 0xFF	; 255
     cf2:	93 07       	cpc	r25, r19
     cf4:	a3 07       	cpc	r26, r19
     cf6:	b3 07       	cpc	r27, r19
     cf8:	f1 f0       	breq	.+60     	; 0xd36 <displayProtocol+0x148>
				sprintf(ScreenBuf[1], "x%04X %sx%02X", (uint16_t)((dec_results->value&0xFFFF0000)>>16), cmdStr, (uint8_t)((dec_results->value&0xFF00)>>8));
     cfa:	ad 01       	movw	r20, r26
     cfc:	66 27       	eor	r22, r22
     cfe:	77 27       	eor	r23, r23
     d00:	1f 92       	push	r1
     d02:	9f 93       	push	r25
     d04:	8d e6       	ldi	r24, 0x6D	; 109
     d06:	91 e0       	ldi	r25, 0x01	; 1
     d08:	9f 93       	push	r25
     d0a:	8f 93       	push	r24
     d0c:	5f 93       	push	r21
     d0e:	4f 93       	push	r20
     d10:	80 ea       	ldi	r24, 0xA0	; 160
     d12:	91 e0       	ldi	r25, 0x01	; 1
     d14:	9f 93       	push	r25
     d16:	8f 93       	push	r24
     d18:	81 ef       	ldi	r24, 0xF1	; 241
     d1a:	91 e0       	ldi	r25, 0x01	; 1
     d1c:	9f 93       	push	r25
     d1e:	8f 93       	push	r24
     d20:	0e 94 0f 18 	call	0x301e	; 0x301e <sprintf>
     d24:	8d b7       	in	r24, 0x3d	; 61
     d26:	9e b7       	in	r25, 0x3e	; 62
     d28:	0a 96       	adiw	r24, 0x0a	; 10
     d2a:	0f b6       	in	r0, 0x3f	; 63
     d2c:	f8 94       	cli
     d2e:	9e bf       	out	0x3e, r25	; 62
     d30:	0f be       	out	0x3f, r0	; 63
     d32:	8d bf       	out	0x3d, r24	; 61
     d34:	07 c1       	rjmp	.+526    	; 0xf44 <displayProtocol+0x356>
			else
				sprintf(ScreenBuf[1], "Repeat code");
     d36:	8c e0       	ldi	r24, 0x0C	; 12
     d38:	e8 e8       	ldi	r30, 0x88	; 136
     d3a:	f1 e0       	ldi	r31, 0x01	; 1
     d3c:	a1 ef       	ldi	r26, 0xF1	; 241
     d3e:	b1 e0       	ldi	r27, 0x01	; 1
     d40:	01 90       	ld	r0, Z+
     d42:	0d 92       	st	X+, r0
     d44:	8a 95       	dec	r24
     d46:	e1 f7       	brne	.-8      	; 0xd40 <displayProtocol+0x152>
     d48:	fd c0       	rjmp	.+506    	; 0xf44 <displayProtocol+0x356>
			break;
		case RC5:
			strcpy(ScreenBuf[0]+strlen(typeStr), "RC5");
     d4a:	e5 ee       	ldi	r30, 0xE5	; 229
     d4c:	f1 e0       	ldi	r31, 0x01	; 1
     d4e:	82 e5       	ldi	r24, 0x52	; 82
     d50:	93 e4       	ldi	r25, 0x43	; 67
     d52:	91 83       	std	Z+1, r25	; 0x01
     d54:	80 83       	st	Z, r24
     d56:	85 e3       	ldi	r24, 0x35	; 53
     d58:	90 e0       	ldi	r25, 0x00	; 0
     d5a:	93 83       	std	Z+3, r25	; 0x03
     d5c:	82 83       	std	Z+2, r24	; 0x02
			sprintf(ScreenBuf[1], "%sx%02X %sx%02X", addrStr, (uint8_t)((dec_results->value&0x7C0)>>6), cmdStr, (uint8_t)(dec_results->value&0x3F));
     d5e:	8c 81       	ldd	r24, Y+4	; 0x04
     d60:	9d 81       	ldd	r25, Y+5	; 0x05
     d62:	ae 81       	ldd	r26, Y+6	; 0x06
     d64:	bf 81       	ldd	r27, Y+7	; 0x07
     d66:	ac 01       	movw	r20, r24
     d68:	bd 01       	movw	r22, r26
     d6a:	40 7c       	andi	r20, 0xC0	; 192
     d6c:	57 70       	andi	r21, 0x07	; 7
     d6e:	66 27       	eor	r22, r22
     d70:	77 27       	eor	r23, r23
     d72:	68 94       	set
     d74:	15 f8       	bld	r1, 5
     d76:	76 95       	lsr	r23
     d78:	67 95       	ror	r22
     d7a:	57 95       	ror	r21
     d7c:	47 95       	ror	r20
     d7e:	16 94       	lsr	r1
     d80:	d1 f7       	brne	.-12     	; 0xd76 <displayProtocol+0x188>
     d82:	8f 73       	andi	r24, 0x3F	; 63
     d84:	1f 92       	push	r1
     d86:	8f 93       	push	r24
     d88:	8d e6       	ldi	r24, 0x6D	; 109
     d8a:	91 e0       	ldi	r25, 0x01	; 1
     d8c:	9f 93       	push	r25
     d8e:	8f 93       	push	r24
     d90:	1f 92       	push	r1
     d92:	4f 93       	push	r20
     d94:	82 e7       	ldi	r24, 0x72	; 114
     d96:	91 e0       	ldi	r25, 0x01	; 1
     d98:	9f 93       	push	r25
     d9a:	8f 93       	push	r24
     d9c:	88 e7       	ldi	r24, 0x78	; 120
     d9e:	91 e0       	ldi	r25, 0x01	; 1
     da0:	9f 93       	push	r25
     da2:	8f 93       	push	r24
     da4:	81 ef       	ldi	r24, 0xF1	; 241
     da6:	91 e0       	ldi	r25, 0x01	; 1
     da8:	9f 93       	push	r25
     daa:	8f 93       	push	r24
     dac:	0e 94 0f 18 	call	0x301e	; 0x301e <sprintf>
			break;
     db0:	2d b7       	in	r18, 0x3d	; 61
     db2:	3e b7       	in	r19, 0x3e	; 62
     db4:	24 5f       	subi	r18, 0xF4	; 244
     db6:	3f 4f       	sbci	r19, 0xFF	; 255
     db8:	0f b6       	in	r0, 0x3f	; 63
     dba:	f8 94       	cli
     dbc:	3e bf       	out	0x3e, r19	; 62
     dbe:	0f be       	out	0x3f, r0	; 63
     dc0:	2d bf       	out	0x3d, r18	; 61
     dc2:	c0 c0       	rjmp	.+384    	; 0xf44 <displayProtocol+0x356>
		case SONY:
			strcpy(ScreenBuf[0]+strlen(typeStr), "SONY");
     dc4:	85 e0       	ldi	r24, 0x05	; 5
     dc6:	ee ea       	ldi	r30, 0xAE	; 174
     dc8:	f1 e0       	ldi	r31, 0x01	; 1
     dca:	a5 ee       	ldi	r26, 0xE5	; 229
     dcc:	b1 e0       	ldi	r27, 0x01	; 1
     dce:	01 90       	ld	r0, Z+
     dd0:	0d 92       	st	X+, r0
     dd2:	8a 95       	dec	r24
     dd4:	e1 f7       	brne	.-8      	; 0xdce <displayProtocol+0x1e0>
			if(dec_results->bits == 12)
     dd6:	88 85       	ldd	r24, Y+8	; 0x08
     dd8:	99 85       	ldd	r25, Y+9	; 0x09
     dda:	8c 30       	cpi	r24, 0x0C	; 12
     ddc:	91 05       	cpc	r25, r1
     dde:	91 f5       	brne	.+100    	; 0xe44 <displayProtocol+0x256>
				sprintf(ScreenBuf[1], "%sx%02X %sx%02X", addrStr, (uint8_t)(dec_results->value&0x1F), cmdStr, (uint8_t)((dec_results->value&0xFE0)>>5));
     de0:	8c 81       	ldd	r24, Y+4	; 0x04
     de2:	9d 81       	ldd	r25, Y+5	; 0x05
     de4:	ae 81       	ldd	r26, Y+6	; 0x06
     de6:	bf 81       	ldd	r27, Y+7	; 0x07
     de8:	ac 01       	movw	r20, r24
     dea:	bd 01       	movw	r22, r26
     dec:	40 7e       	andi	r20, 0xE0	; 224
     dee:	5f 70       	andi	r21, 0x0F	; 15
     df0:	66 27       	eor	r22, r22
     df2:	77 27       	eor	r23, r23
     df4:	68 94       	set
     df6:	14 f8       	bld	r1, 4
     df8:	76 95       	lsr	r23
     dfa:	67 95       	ror	r22
     dfc:	57 95       	ror	r21
     dfe:	47 95       	ror	r20
     e00:	16 94       	lsr	r1
     e02:	d1 f7       	brne	.-12     	; 0xdf8 <displayProtocol+0x20a>
     e04:	1f 92       	push	r1
     e06:	4f 93       	push	r20
     e08:	2d e6       	ldi	r18, 0x6D	; 109
     e0a:	31 e0       	ldi	r19, 0x01	; 1
     e0c:	3f 93       	push	r19
     e0e:	2f 93       	push	r18
     e10:	8f 71       	andi	r24, 0x1F	; 31
     e12:	1f 92       	push	r1
     e14:	8f 93       	push	r24
     e16:	82 e7       	ldi	r24, 0x72	; 114
     e18:	91 e0       	ldi	r25, 0x01	; 1
     e1a:	9f 93       	push	r25
     e1c:	8f 93       	push	r24
     e1e:	88 e7       	ldi	r24, 0x78	; 120
     e20:	91 e0       	ldi	r25, 0x01	; 1
     e22:	9f 93       	push	r25
     e24:	8f 93       	push	r24
     e26:	81 ef       	ldi	r24, 0xF1	; 241
     e28:	91 e0       	ldi	r25, 0x01	; 1
     e2a:	9f 93       	push	r25
     e2c:	8f 93       	push	r24
     e2e:	0e 94 0f 18 	call	0x301e	; 0x301e <sprintf>
     e32:	8d b7       	in	r24, 0x3d	; 61
     e34:	9e b7       	in	r25, 0x3e	; 62
     e36:	0c 96       	adiw	r24, 0x0c	; 12
     e38:	0f b6       	in	r0, 0x3f	; 63
     e3a:	f8 94       	cli
     e3c:	9e bf       	out	0x3e, r25	; 62
     e3e:	0f be       	out	0x3f, r0	; 63
     e40:	8d bf       	out	0x3d, r24	; 61
     e42:	80 c0       	rjmp	.+256    	; 0xf44 <displayProtocol+0x356>
			else if(dec_results->bits == 15)
     e44:	8f 30       	cpi	r24, 0x0F	; 15
     e46:	91 05       	cpc	r25, r1
     e48:	51 f5       	brne	.+84     	; 0xe9e <displayProtocol+0x2b0>
				sprintf(ScreenBuf[1], "%sx%02X %sx%02X", addrStr, (uint8_t)(dec_results->value&0xFF), cmdStr, (uint8_t)((dec_results->value&0x7F00)>>8));
     e4a:	8c 81       	ldd	r24, Y+4	; 0x04
     e4c:	9d 81       	ldd	r25, Y+5	; 0x05
     e4e:	ae 81       	ldd	r26, Y+6	; 0x06
     e50:	bf 81       	ldd	r27, Y+7	; 0x07
     e52:	ac 01       	movw	r20, r24
     e54:	bd 01       	movw	r22, r26
     e56:	44 27       	eor	r20, r20
     e58:	5f 77       	andi	r21, 0x7F	; 127
     e5a:	66 27       	eor	r22, r22
     e5c:	77 27       	eor	r23, r23
     e5e:	1f 92       	push	r1
     e60:	5f 93       	push	r21
     e62:	2d e6       	ldi	r18, 0x6D	; 109
     e64:	31 e0       	ldi	r19, 0x01	; 1
     e66:	3f 93       	push	r19
     e68:	2f 93       	push	r18
     e6a:	1f 92       	push	r1
     e6c:	8f 93       	push	r24
     e6e:	82 e7       	ldi	r24, 0x72	; 114
     e70:	91 e0       	ldi	r25, 0x01	; 1
     e72:	9f 93       	push	r25
     e74:	8f 93       	push	r24
     e76:	88 e7       	ldi	r24, 0x78	; 120
     e78:	91 e0       	ldi	r25, 0x01	; 1
     e7a:	9f 93       	push	r25
     e7c:	8f 93       	push	r24
     e7e:	81 ef       	ldi	r24, 0xF1	; 241
     e80:	91 e0       	ldi	r25, 0x01	; 1
     e82:	9f 93       	push	r25
     e84:	8f 93       	push	r24
     e86:	0e 94 0f 18 	call	0x301e	; 0x301e <sprintf>
     e8a:	2d b7       	in	r18, 0x3d	; 61
     e8c:	3e b7       	in	r19, 0x3e	; 62
     e8e:	24 5f       	subi	r18, 0xF4	; 244
     e90:	3f 4f       	sbci	r19, 0xFF	; 255
     e92:	0f b6       	in	r0, 0x3f	; 63
     e94:	f8 94       	cli
     e96:	3e bf       	out	0x3e, r19	; 62
     e98:	0f be       	out	0x3f, r0	; 63
     e9a:	2d bf       	out	0x3d, r18	; 61
     e9c:	53 c0       	rjmp	.+166    	; 0xf44 <displayProtocol+0x356>
			else if(dec_results->bits == 20)
     e9e:	44 97       	sbiw	r24, 0x14	; 20
     ea0:	09 f0       	breq	.+2      	; 0xea4 <displayProtocol+0x2b6>
     ea2:	50 c0       	rjmp	.+160    	; 0xf44 <displayProtocol+0x356>
			{
				sprintf(ScreenBuf[0], "%s Ex:x%02X", ScreenBuf[0], (uint8_t)(dec_results->value&0xFF));
     ea4:	8c 81       	ldd	r24, Y+4	; 0x04
     ea6:	1f 92       	push	r1
     ea8:	8f 93       	push	r24
     eaa:	80 ee       	ldi	r24, 0xE0	; 224
     eac:	91 e0       	ldi	r25, 0x01	; 1
     eae:	9f 93       	push	r25
     eb0:	8f 93       	push	r24
     eb2:	23 eb       	ldi	r18, 0xB3	; 179
     eb4:	31 e0       	ldi	r19, 0x01	; 1
     eb6:	3f 93       	push	r19
     eb8:	2f 93       	push	r18
     eba:	9f 93       	push	r25
     ebc:	8f 93       	push	r24
     ebe:	0e 94 0f 18 	call	0x301e	; 0x301e <sprintf>
				sprintf(ScreenBuf[1], "%sx%02X %sx%02X", addrStr, (uint8_t)((dec_results->value&0x1F00)>>8), cmdStr, (uint8_t)((dec_results->value&0xFE000)>>13));
     ec2:	8c 81       	ldd	r24, Y+4	; 0x04
     ec4:	9d 81       	ldd	r25, Y+5	; 0x05
     ec6:	ae 81       	ldd	r26, Y+6	; 0x06
     ec8:	bf 81       	ldd	r27, Y+7	; 0x07
     eca:	ac 01       	movw	r20, r24
     ecc:	bd 01       	movw	r22, r26
     ece:	44 27       	eor	r20, r20
     ed0:	50 7e       	andi	r21, 0xE0	; 224
     ed2:	6f 70       	andi	r22, 0x0F	; 15
     ed4:	77 27       	eor	r23, r23
     ed6:	03 2e       	mov	r0, r19
     ed8:	3d e0       	ldi	r19, 0x0D	; 13
     eda:	76 95       	lsr	r23
     edc:	67 95       	ror	r22
     ede:	57 95       	ror	r21
     ee0:	47 95       	ror	r20
     ee2:	3a 95       	dec	r19
     ee4:	d1 f7       	brne	.-12     	; 0xeda <displayProtocol+0x2ec>
     ee6:	30 2d       	mov	r19, r0
     ee8:	88 27       	eor	r24, r24
     eea:	9f 71       	andi	r25, 0x1F	; 31
     eec:	aa 27       	eor	r26, r26
     eee:	bb 27       	eor	r27, r27
     ef0:	1f 92       	push	r1
     ef2:	4f 93       	push	r20
     ef4:	2d e6       	ldi	r18, 0x6D	; 109
     ef6:	31 e0       	ldi	r19, 0x01	; 1
     ef8:	3f 93       	push	r19
     efa:	2f 93       	push	r18
     efc:	1f 92       	push	r1
     efe:	9f 93       	push	r25
     f00:	82 e7       	ldi	r24, 0x72	; 114
     f02:	91 e0       	ldi	r25, 0x01	; 1
     f04:	9f 93       	push	r25
     f06:	8f 93       	push	r24
     f08:	88 e7       	ldi	r24, 0x78	; 120
     f0a:	91 e0       	ldi	r25, 0x01	; 1
     f0c:	9f 93       	push	r25
     f0e:	8f 93       	push	r24
     f10:	81 ef       	ldi	r24, 0xF1	; 241
     f12:	91 e0       	ldi	r25, 0x01	; 1
     f14:	9f 93       	push	r25
     f16:	8f 93       	push	r24
     f18:	0e 94 0f 18 	call	0x301e	; 0x301e <sprintf>
     f1c:	8d b7       	in	r24, 0x3d	; 61
     f1e:	9e b7       	in	r25, 0x3e	; 62
     f20:	44 96       	adiw	r24, 0x14	; 20
     f22:	0f b6       	in	r0, 0x3f	; 63
     f24:	f8 94       	cli
     f26:	9e bf       	out	0x3e, r25	; 62
     f28:	0f be       	out	0x3f, r0	; 63
     f2a:	8d bf       	out	0x3d, r24	; 61
     f2c:	0b c0       	rjmp	.+22     	; 0xf44 <displayProtocol+0x356>
			}
			break;
		default:
			strcpy(ScreenBuf[0]+strlen(typeStr), "UNKNOWN");
     f2e:	88 e0       	ldi	r24, 0x08	; 8
     f30:	ef eb       	ldi	r30, 0xBF	; 191
     f32:	f1 e0       	ldi	r31, 0x01	; 1
     f34:	a5 ee       	ldi	r26, 0xE5	; 229
     f36:	b1 e0       	ldi	r27, 0x01	; 1
     f38:	01 90       	ld	r0, Z+
     f3a:	0d 92       	st	X+, r0
     f3c:	8a 95       	dec	r24
     f3e:	e1 f7       	brne	.-8      	; 0xf38 <displayProtocol+0x34a>
			ScreenBuf[1][0]='\0';
     f40:	10 92 f1 01 	sts	0x01F1, r1	; 0x8001f1 <ScreenBuf+0x11>
		break;
	}
	Refresh=1;
     f44:	81 e0       	ldi	r24, 0x01	; 1
     f46:	80 93 df 01 	sts	0x01DF, r24	; 0x8001df <Refresh>
     f4a:	df 91       	pop	r29
     f4c:	cf 91       	pop	r28
     f4e:	08 95       	ret

00000f50 <i2c_init>:
	TWCR = (1<<TWINT) | (1<<TWEN) | (1<<TWEA);
	while(!(TWCR & (1<<TWINT)));    

    return TWDR;

}/* i2c_readAck */
     f50:	10 92 b9 00 	sts	0x00B9, r1	; 0x8000b9 <__TEXT_REGION_LENGTH__+0x7e00b9>
     f54:	8c e5       	ldi	r24, 0x5C	; 92
     f56:	80 93 b8 00 	sts	0x00B8, r24	; 0x8000b8 <__TEXT_REGION_LENGTH__+0x7e00b8>
     f5a:	08 95       	ret

00000f5c <i2c_start>:
     f5c:	94 ea       	ldi	r25, 0xA4	; 164
     f5e:	90 93 bc 00 	sts	0x00BC, r25	; 0x8000bc <__TEXT_REGION_LENGTH__+0x7e00bc>
     f62:	90 91 bc 00 	lds	r25, 0x00BC	; 0x8000bc <__TEXT_REGION_LENGTH__+0x7e00bc>
     f66:	99 23       	and	r25, r25
     f68:	e4 f7       	brge	.-8      	; 0xf62 <i2c_start+0x6>
     f6a:	90 91 b9 00 	lds	r25, 0x00B9	; 0x8000b9 <__TEXT_REGION_LENGTH__+0x7e00b9>
     f6e:	98 7f       	andi	r25, 0xF8	; 248
     f70:	98 30       	cpi	r25, 0x08	; 8
     f72:	11 f0       	breq	.+4      	; 0xf78 <i2c_start+0x1c>
     f74:	90 31       	cpi	r25, 0x10	; 16
     f76:	91 f4       	brne	.+36     	; 0xf9c <i2c_start+0x40>
     f78:	80 93 bb 00 	sts	0x00BB, r24	; 0x8000bb <__TEXT_REGION_LENGTH__+0x7e00bb>
     f7c:	84 e8       	ldi	r24, 0x84	; 132
     f7e:	80 93 bc 00 	sts	0x00BC, r24	; 0x8000bc <__TEXT_REGION_LENGTH__+0x7e00bc>
     f82:	80 91 bc 00 	lds	r24, 0x00BC	; 0x8000bc <__TEXT_REGION_LENGTH__+0x7e00bc>
     f86:	88 23       	and	r24, r24
     f88:	e4 f7       	brge	.-8      	; 0xf82 <i2c_start+0x26>
     f8a:	80 91 b9 00 	lds	r24, 0x00B9	; 0x8000b9 <__TEXT_REGION_LENGTH__+0x7e00b9>
     f8e:	88 7f       	andi	r24, 0xF8	; 248
     f90:	88 31       	cpi	r24, 0x18	; 24
     f92:	31 f0       	breq	.+12     	; 0xfa0 <i2c_start+0x44>
     f94:	80 34       	cpi	r24, 0x40	; 64
     f96:	31 f4       	brne	.+12     	; 0xfa4 <i2c_start+0x48>
     f98:	80 e0       	ldi	r24, 0x00	; 0
     f9a:	08 95       	ret
     f9c:	81 e0       	ldi	r24, 0x01	; 1
     f9e:	08 95       	ret
     fa0:	80 e0       	ldi	r24, 0x00	; 0
     fa2:	08 95       	ret
     fa4:	81 e0       	ldi	r24, 0x01	; 1
     fa6:	08 95       	ret

00000fa8 <i2c_stop>:
     fa8:	84 e9       	ldi	r24, 0x94	; 148
     faa:	80 93 bc 00 	sts	0x00BC, r24	; 0x8000bc <__TEXT_REGION_LENGTH__+0x7e00bc>
     fae:	80 91 bc 00 	lds	r24, 0x00BC	; 0x8000bc <__TEXT_REGION_LENGTH__+0x7e00bc>
     fb2:	84 fd       	sbrc	r24, 4
     fb4:	fc cf       	rjmp	.-8      	; 0xfae <i2c_stop+0x6>
     fb6:	08 95       	ret

00000fb8 <i2c_write>:
     fb8:	80 93 bb 00 	sts	0x00BB, r24	; 0x8000bb <__TEXT_REGION_LENGTH__+0x7e00bb>
     fbc:	84 e8       	ldi	r24, 0x84	; 132
     fbe:	80 93 bc 00 	sts	0x00BC, r24	; 0x8000bc <__TEXT_REGION_LENGTH__+0x7e00bc>
     fc2:	80 91 bc 00 	lds	r24, 0x00BC	; 0x8000bc <__TEXT_REGION_LENGTH__+0x7e00bc>
     fc6:	88 23       	and	r24, r24
     fc8:	e4 f7       	brge	.-8      	; 0xfc2 <i2c_write+0xa>
     fca:	80 91 b9 00 	lds	r24, 0x00B9	; 0x8000b9 <__TEXT_REGION_LENGTH__+0x7e00b9>
     fce:	88 7f       	andi	r24, 0xF8	; 248
     fd0:	88 32       	cpi	r24, 0x28	; 40
     fd2:	11 f0       	breq	.+4      	; 0xfd8 <i2c_write+0x20>
     fd4:	81 e0       	ldi	r24, 0x01	; 1
     fd6:	08 95       	ret
     fd8:	80 e0       	ldi	r24, 0x00	; 0
     fda:	08 95       	ret

00000fdc <i2c_readNak>:
 
 Return:  byte read from I2C device
*************************************************************************/
unsigned char i2c_readNak(void)
{
	TWCR = (1<<TWINT) | (1<<TWEN);
     fdc:	84 e8       	ldi	r24, 0x84	; 132
     fde:	80 93 bc 00 	sts	0x00BC, r24	; 0x8000bc <__TEXT_REGION_LENGTH__+0x7e00bc>
	while(!(TWCR & (1<<TWINT)));
     fe2:	80 91 bc 00 	lds	r24, 0x00BC	; 0x8000bc <__TEXT_REGION_LENGTH__+0x7e00bc>
     fe6:	88 23       	and	r24, r24
     fe8:	e4 f7       	brge	.-8      	; 0xfe2 <i2c_readNak+0x6>
	
    return TWDR;
     fea:	80 91 bb 00 	lds	r24, 0x00BB	; 0x8000bb <__TEXT_REGION_LENGTH__+0x7e00bb>

}/* i2c_readNak */
     fee:	08 95       	ret

00000ff0 <ir_timerRst>:
}

// enable/disable blinking of pin 13 on IR processing
void ir_blink13(int blinkflag)
{
  irparams.blinkflag = blinkflag;
     ff0:	16 bc       	out	0x26, r1	; 38
     ff2:	08 95       	ret

00000ff4 <ir_timerCfgNorm>:
     ff4:	86 e0       	ldi	r24, 0x06	; 6
     ff6:	87 bd       	out	0x27, r24	; 39
     ff8:	82 e0       	ldi	r24, 0x02	; 2
     ffa:	84 bd       	out	0x24, r24	; 36
     ffc:	93 e0       	ldi	r25, 0x03	; 3
     ffe:	95 bd       	out	0x25, r25	; 37
    1000:	80 93 6e 00 	sts	0x006E, r24	; 0x80006e <__TEXT_REGION_LENGTH__+0x7e006e>
    1004:	08 95       	ret

00001006 <ir_timerCfgKhz>:
    1006:	10 92 6e 00 	sts	0x006E, r1	; 0x80006e <__TEXT_REGION_LENGTH__+0x7e006e>
    100a:	68 2f       	mov	r22, r24
    100c:	70 e0       	ldi	r23, 0x00	; 0
    100e:	80 e0       	ldi	r24, 0x00	; 0
    1010:	90 e0       	ldi	r25, 0x00	; 0
    1012:	0e 94 cc 16 	call	0x2d98	; 0x2d98 <__floatunsisf>
    1016:	9b 01       	movw	r18, r22
    1018:	ac 01       	movw	r20, r24
    101a:	60 e0       	ldi	r22, 0x00	; 0
    101c:	70 e0       	ldi	r23, 0x00	; 0
    101e:	8a e7       	ldi	r24, 0x7A	; 122
    1020:	95 e4       	ldi	r25, 0x45	; 69
    1022:	0e 94 33 16 	call	0x2c66	; 0x2c66 <__divsf3>
    1026:	0e 94 a0 16 	call	0x2d40	; 0x2d40 <__fixunssfsi>
    102a:	67 bd       	out	0x27, r22	; 39
    102c:	82 e4       	ldi	r24, 0x42	; 66
    102e:	84 bd       	out	0x24, r24	; 36
    1030:	81 e0       	ldi	r24, 0x01	; 1
    1032:	85 bd       	out	0x25, r24	; 37
    1034:	08 95       	ret

00001036 <ir_delayMicroseconds>:
    1036:	9c 01       	movw	r18, r24
    1038:	e1 e8       	ldi	r30, 0x81	; 129
    103a:	f0 e0       	ldi	r31, 0x00	; 0
    103c:	10 82       	st	Z, r1
    103e:	10 92 85 00 	sts	0x0085, r1	; 0x800085 <__TEXT_REGION_LENGTH__+0x7e0085>
    1042:	10 92 84 00 	sts	0x0084, r1	; 0x800084 <__TEXT_REGION_LENGTH__+0x7e0084>
    1046:	96 b3       	in	r25, 0x16	; 22
    1048:	92 60       	ori	r25, 0x02	; 2
    104a:	96 bb       	out	0x16, r25	; 22
    104c:	30 93 89 00 	sts	0x0089, r19	; 0x800089 <__TEXT_REGION_LENGTH__+0x7e0089>
    1050:	20 93 88 00 	sts	0x0088, r18	; 0x800088 <__TEXT_REGION_LENGTH__+0x7e0088>
    1054:	10 92 80 00 	sts	0x0080, r1	; 0x800080 <__TEXT_REGION_LENGTH__+0x7e0080>
    1058:	8a e0       	ldi	r24, 0x0A	; 10
    105a:	80 83       	st	Z, r24
    105c:	b1 9b       	sbis	0x16, 1	; 22
    105e:	fe cf       	rjmp	.-4      	; 0x105c <ir_delayMicroseconds+0x26>
    1060:	08 95       	ret

00001062 <ir_mark>:
    1062:	24 b5       	in	r18, 0x24	; 36
    1064:	20 64       	ori	r18, 0x40	; 64
    1066:	24 bd       	out	0x24, r18	; 36
    1068:	24 b5       	in	r18, 0x24	; 36
    106a:	20 64       	ori	r18, 0x40	; 64
    106c:	24 bd       	out	0x24, r18	; 36
    106e:	24 b5       	in	r18, 0x24	; 36
    1070:	20 64       	ori	r18, 0x40	; 64
    1072:	24 bd       	out	0x24, r18	; 36
    1074:	24 b5       	in	r18, 0x24	; 36
    1076:	20 64       	ori	r18, 0x40	; 64
    1078:	24 bd       	out	0x24, r18	; 36
    107a:	dd cf       	rjmp	.-70     	; 0x1036 <ir_delayMicroseconds>
    107c:	08 95       	ret

0000107e <ir_space>:
    107e:	24 b5       	in	r18, 0x24	; 36
    1080:	2f 7b       	andi	r18, 0xBF	; 191
    1082:	24 bd       	out	0x24, r18	; 36
    1084:	d8 cf       	rjmp	.-80     	; 0x1036 <ir_delayMicroseconds>
    1086:	08 95       	ret

00001088 <ir_enableIROut>:
    1088:	9a b1       	in	r25, 0x0a	; 10
    108a:	90 64       	ori	r25, 0x40	; 64
    108c:	9a b9       	out	0x0a, r25	; 10
    108e:	9b b1       	in	r25, 0x0b	; 11
    1090:	9f 7b       	andi	r25, 0xBF	; 191
    1092:	9b b9       	out	0x0b, r25	; 11
    1094:	b8 cf       	rjmp	.-144    	; 0x1006 <ir_timerCfgKhz>
    1096:	08 95       	ret

00001098 <ir_compare>:
    1098:	8f 92       	push	r8
    109a:	9f 92       	push	r9
    109c:	af 92       	push	r10
    109e:	bf 92       	push	r11
    10a0:	cf 92       	push	r12
    10a2:	df 92       	push	r13
    10a4:	ef 92       	push	r14
    10a6:	ff 92       	push	r15
    10a8:	cf 93       	push	r28
    10aa:	df 93       	push	r29
    10ac:	ec 01       	movw	r28, r24
    10ae:	80 e0       	ldi	r24, 0x00	; 0
    10b0:	90 e0       	ldi	r25, 0x00	; 0
    10b2:	0e 94 cc 16 	call	0x2d98	; 0x2d98 <__floatunsisf>
    10b6:	4b 01       	movw	r8, r22
    10b8:	5c 01       	movw	r10, r24
    10ba:	be 01       	movw	r22, r28
    10bc:	80 e0       	ldi	r24, 0x00	; 0
    10be:	90 e0       	ldi	r25, 0x00	; 0
    10c0:	0e 94 cc 16 	call	0x2d98	; 0x2d98 <__floatunsisf>
    10c4:	6b 01       	movw	r12, r22
    10c6:	7c 01       	movw	r14, r24
    10c8:	2d ec       	ldi	r18, 0xCD	; 205
    10ca:	3c ec       	ldi	r19, 0xCC	; 204
    10cc:	4c e4       	ldi	r20, 0x4C	; 76
    10ce:	5f e3       	ldi	r21, 0x3F	; 63
    10d0:	0e 94 7e 17 	call	0x2efc	; 0x2efc <__mulsf3>
    10d4:	9b 01       	movw	r18, r22
    10d6:	ac 01       	movw	r20, r24
    10d8:	c5 01       	movw	r24, r10
    10da:	b4 01       	movw	r22, r8
    10dc:	0e 94 2f 16 	call	0x2c5e	; 0x2c5e <__cmpsf2>
    10e0:	88 23       	and	r24, r24
    10e2:	9c f0       	brlt	.+38     	; 0x110a <ir_compare+0x72>
    10e4:	2d ec       	ldi	r18, 0xCD	; 205
    10e6:	3c ec       	ldi	r19, 0xCC	; 204
    10e8:	4c e4       	ldi	r20, 0x4C	; 76
    10ea:	5f e3       	ldi	r21, 0x3F	; 63
    10ec:	c5 01       	movw	r24, r10
    10ee:	b4 01       	movw	r22, r8
    10f0:	0e 94 7e 17 	call	0x2efc	; 0x2efc <__mulsf3>
    10f4:	9b 01       	movw	r18, r22
    10f6:	ac 01       	movw	r20, r24
    10f8:	c7 01       	movw	r24, r14
    10fa:	b6 01       	movw	r22, r12
    10fc:	0e 94 2f 16 	call	0x2c5e	; 0x2c5e <__cmpsf2>
    1100:	88 23       	and	r24, r24
    1102:	34 f4       	brge	.+12     	; 0x1110 <ir_compare+0x78>
    1104:	82 e0       	ldi	r24, 0x02	; 2
    1106:	90 e0       	ldi	r25, 0x00	; 0
    1108:	05 c0       	rjmp	.+10     	; 0x1114 <ir_compare+0x7c>
    110a:	80 e0       	ldi	r24, 0x00	; 0
    110c:	90 e0       	ldi	r25, 0x00	; 0
    110e:	02 c0       	rjmp	.+4      	; 0x1114 <ir_compare+0x7c>
    1110:	81 e0       	ldi	r24, 0x01	; 1
    1112:	90 e0       	ldi	r25, 0x00	; 0
    1114:	df 91       	pop	r29
    1116:	cf 91       	pop	r28
    1118:	ff 90       	pop	r15
    111a:	ef 90       	pop	r14
    111c:	df 90       	pop	r13
    111e:	cf 90       	pop	r12
    1120:	bf 90       	pop	r11
    1122:	af 90       	pop	r10
    1124:	9f 90       	pop	r9
    1126:	8f 90       	pop	r8
    1128:	08 95       	ret

0000112a <ir_decodeHash>:
    112a:	af 92       	push	r10
    112c:	bf 92       	push	r11
    112e:	cf 92       	push	r12
    1130:	df 92       	push	r13
    1132:	ef 92       	push	r14
    1134:	ff 92       	push	r15
    1136:	0f 93       	push	r16
    1138:	1f 93       	push	r17
    113a:	cf 93       	push	r28
    113c:	df 93       	push	r29
    113e:	fc 01       	movw	r30, r24
    1140:	a4 84       	ldd	r10, Z+12	; 0x0c
    1142:	b5 84       	ldd	r11, Z+13	; 0x0d
    1144:	f6 e0       	ldi	r31, 0x06	; 6
    1146:	af 16       	cp	r10, r31
    1148:	b1 04       	cpc	r11, r1
    114a:	0c f4       	brge	.+2      	; 0x114e <ir_decodeHash+0x24>
    114c:	49 c0       	rjmp	.+146    	; 0x11e0 <ir_decodeHash+0xb6>
    114e:	ec 01       	movw	r28, r24
    1150:	01 e0       	ldi	r16, 0x01	; 1
    1152:	10 e0       	ldi	r17, 0x00	; 0
    1154:	0f 2e       	mov	r0, r31
    1156:	f5 ec       	ldi	r31, 0xC5	; 197
    1158:	cf 2e       	mov	r12, r31
    115a:	fd e9       	ldi	r31, 0x9D	; 157
    115c:	df 2e       	mov	r13, r31
    115e:	fc e1       	ldi	r31, 0x1C	; 28
    1160:	ef 2e       	mov	r14, r31
    1162:	f1 e8       	ldi	r31, 0x81	; 129
    1164:	ff 2e       	mov	r15, r31
    1166:	f0 2d       	mov	r31, r0
    1168:	25 c0       	rjmp	.+74     	; 0x11b4 <ir_decodeHash+0x8a>
    116a:	8a 85       	ldd	r24, Y+10	; 0x0a
    116c:	9b 85       	ldd	r25, Y+11	; 0x0b
    116e:	f8 01       	movw	r30, r16
    1170:	32 96       	adiw	r30, 0x02	; 2
    1172:	ee 0f       	add	r30, r30
    1174:	ff 1f       	adc	r31, r31
    1176:	e8 0f       	add	r30, r24
    1178:	f9 1f       	adc	r31, r25
    117a:	60 81       	ld	r22, Z
    117c:	71 81       	ldd	r23, Z+1	; 0x01
    117e:	f8 01       	movw	r30, r16
    1180:	ee 0f       	add	r30, r30
    1182:	ff 1f       	adc	r31, r31
    1184:	e8 0f       	add	r30, r24
    1186:	f9 1f       	adc	r31, r25
    1188:	80 81       	ld	r24, Z
    118a:	91 81       	ldd	r25, Z+1	; 0x01
    118c:	85 df       	rcall	.-246    	; 0x1098 <ir_compare>
    118e:	fc 01       	movw	r30, r24
    1190:	a7 01       	movw	r20, r14
    1192:	96 01       	movw	r18, r12
    1194:	63 e9       	ldi	r22, 0x93	; 147
    1196:	71 e0       	ldi	r23, 0x01	; 1
    1198:	80 e0       	ldi	r24, 0x00	; 0
    119a:	91 e0       	ldi	r25, 0x01	; 1
    119c:	0e 94 e1 17 	call	0x2fc2	; 0x2fc2 <__mulsi3>
    11a0:	6f 01       	movw	r12, r30
    11a2:	ff 0f       	add	r31, r31
    11a4:	ee 08       	sbc	r14, r14
    11a6:	ff 08       	sbc	r15, r15
    11a8:	c6 26       	eor	r12, r22
    11aa:	d7 26       	eor	r13, r23
    11ac:	e8 26       	eor	r14, r24
    11ae:	f9 26       	eor	r15, r25
    11b0:	0f 5f       	subi	r16, 0xFF	; 255
    11b2:	1f 4f       	sbci	r17, 0xFF	; 255
    11b4:	c8 01       	movw	r24, r16
    11b6:	02 96       	adiw	r24, 0x02	; 2
    11b8:	8a 15       	cp	r24, r10
    11ba:	9b 05       	cpc	r25, r11
    11bc:	b4 f2       	brlt	.-84     	; 0x116a <ir_decodeHash+0x40>
    11be:	cc 82       	std	Y+4, r12	; 0x04
    11c0:	dd 82       	std	Y+5, r13	; 0x05
    11c2:	ee 82       	std	Y+6, r14	; 0x06
    11c4:	ff 82       	std	Y+7, r15	; 0x07
    11c6:	80 e2       	ldi	r24, 0x20	; 32
    11c8:	90 e0       	ldi	r25, 0x00	; 0
    11ca:	99 87       	std	Y+9, r25	; 0x09
    11cc:	88 87       	std	Y+8, r24	; 0x08
    11ce:	8f ef       	ldi	r24, 0xFF	; 255
    11d0:	9f ef       	ldi	r25, 0xFF	; 255
    11d2:	99 83       	std	Y+1, r25	; 0x01
    11d4:	88 83       	st	Y, r24
    11d6:	61 e0       	ldi	r22, 0x01	; 1
    11d8:	70 e0       	ldi	r23, 0x00	; 0
    11da:	80 e0       	ldi	r24, 0x00	; 0
    11dc:	90 e0       	ldi	r25, 0x00	; 0
    11de:	03 c0       	rjmp	.+6      	; 0x11e6 <ir_decodeHash+0xbc>
    11e0:	60 e0       	ldi	r22, 0x00	; 0
    11e2:	70 e0       	ldi	r23, 0x00	; 0
    11e4:	cb 01       	movw	r24, r22
    11e6:	df 91       	pop	r29
    11e8:	cf 91       	pop	r28
    11ea:	1f 91       	pop	r17
    11ec:	0f 91       	pop	r16
    11ee:	ff 90       	pop	r15
    11f0:	ef 90       	pop	r14
    11f2:	df 90       	pop	r13
    11f4:	cf 90       	pop	r12
    11f6:	bf 90       	pop	r11
    11f8:	af 90       	pop	r10
    11fa:	08 95       	ret

000011fc <MATCH>:
    11fc:	cf 92       	push	r12
    11fe:	df 92       	push	r13
    1200:	ef 92       	push	r14
    1202:	ff 92       	push	r15
    1204:	cf 93       	push	r28
    1206:	df 93       	push	r29
    1208:	ec 01       	movw	r28, r24
    120a:	07 2e       	mov	r0, r23
    120c:	00 0c       	add	r0, r0
    120e:	88 0b       	sbc	r24, r24
    1210:	99 0b       	sbc	r25, r25
    1212:	0e 94 ce 16 	call	0x2d9c	; 0x2d9c <__floatsisf>
    1216:	6b 01       	movw	r12, r22
    1218:	7c 01       	movw	r14, r24
    121a:	20 e0       	ldi	r18, 0x00	; 0
    121c:	30 e0       	ldi	r19, 0x00	; 0
    121e:	40 e4       	ldi	r20, 0x40	; 64
    1220:	5f e3       	ldi	r21, 0x3F	; 63
    1222:	0e 94 7e 17 	call	0x2efc	; 0x2efc <__mulsf3>
    1226:	20 e0       	ldi	r18, 0x00	; 0
    1228:	30 e0       	ldi	r19, 0x00	; 0
    122a:	48 e4       	ldi	r20, 0x48	; 72
    122c:	52 e4       	ldi	r21, 0x42	; 66
    122e:	0e 94 33 16 	call	0x2c66	; 0x2c66 <__divsf3>
    1232:	0e 94 9b 16 	call	0x2d36	; 0x2d36 <__fixsfsi>
    1236:	c6 17       	cp	r28, r22
    1238:	d7 07       	cpc	r29, r23
    123a:	e4 f0       	brlt	.+56     	; 0x1274 <MATCH+0x78>
    123c:	20 e0       	ldi	r18, 0x00	; 0
    123e:	30 e0       	ldi	r19, 0x00	; 0
    1240:	40 ea       	ldi	r20, 0xA0	; 160
    1242:	5f e3       	ldi	r21, 0x3F	; 63
    1244:	c7 01       	movw	r24, r14
    1246:	b6 01       	movw	r22, r12
    1248:	0e 94 7e 17 	call	0x2efc	; 0x2efc <__mulsf3>
    124c:	20 e0       	ldi	r18, 0x00	; 0
    124e:	30 e0       	ldi	r19, 0x00	; 0
    1250:	48 e4       	ldi	r20, 0x48	; 72
    1252:	52 e4       	ldi	r21, 0x42	; 66
    1254:	0e 94 33 16 	call	0x2c66	; 0x2c66 <__divsf3>
    1258:	20 e0       	ldi	r18, 0x00	; 0
    125a:	30 e0       	ldi	r19, 0x00	; 0
    125c:	40 e8       	ldi	r20, 0x80	; 128
    125e:	5f e3       	ldi	r21, 0x3F	; 63
    1260:	0e 94 cb 15 	call	0x2b96	; 0x2b96 <__addsf3>
    1264:	0e 94 9b 16 	call	0x2d36	; 0x2d36 <__fixsfsi>
    1268:	6c 17       	cp	r22, r28
    126a:	7d 07       	cpc	r23, r29
    126c:	34 f4       	brge	.+12     	; 0x127a <MATCH+0x7e>
    126e:	80 e0       	ldi	r24, 0x00	; 0
    1270:	90 e0       	ldi	r25, 0x00	; 0
    1272:	05 c0       	rjmp	.+10     	; 0x127e <MATCH+0x82>
    1274:	80 e0       	ldi	r24, 0x00	; 0
    1276:	90 e0       	ldi	r25, 0x00	; 0
    1278:	02 c0       	rjmp	.+4      	; 0x127e <MATCH+0x82>
    127a:	81 e0       	ldi	r24, 0x01	; 1
    127c:	90 e0       	ldi	r25, 0x00	; 0
    127e:	df 91       	pop	r29
    1280:	cf 91       	pop	r28
    1282:	ff 90       	pop	r15
    1284:	ef 90       	pop	r14
    1286:	df 90       	pop	r13
    1288:	cf 90       	pop	r12
    128a:	08 95       	ret

0000128c <ir_getRClevel>:
    128c:	af 92       	push	r10
    128e:	bf 92       	push	r11
    1290:	cf 92       	push	r12
    1292:	df 92       	push	r13
    1294:	ef 92       	push	r14
    1296:	ff 92       	push	r15
    1298:	0f 93       	push	r16
    129a:	1f 93       	push	r17
    129c:	cf 93       	push	r28
    129e:	df 93       	push	r29
    12a0:	db 01       	movw	r26, r22
    12a2:	ed 91       	ld	r30, X+
    12a4:	fc 91       	ld	r31, X
    12a6:	ec 01       	movw	r28, r24
    12a8:	ac 85       	ldd	r26, Y+12	; 0x0c
    12aa:	bd 85       	ldd	r27, Y+13	; 0x0d
    12ac:	ea 17       	cp	r30, r26
    12ae:	fb 07       	cpc	r31, r27
    12b0:	0c f0       	brlt	.+2      	; 0x12b4 <ir_getRClevel+0x28>
    12b2:	41 c0       	rjmp	.+130    	; 0x1336 <ir_getRClevel+0xaa>
    12b4:	aa 85       	ldd	r26, Y+10	; 0x0a
    12b6:	bb 85       	ldd	r27, Y+11	; 0x0b
    12b8:	cf 01       	movw	r24, r30
    12ba:	88 0f       	add	r24, r24
    12bc:	99 1f       	adc	r25, r25
    12be:	a8 0f       	add	r26, r24
    12c0:	b9 1f       	adc	r27, r25
    12c2:	ad 90       	ld	r10, X+
    12c4:	bc 90       	ld	r11, X
    12c6:	81 e0       	ldi	r24, 0x01	; 1
    12c8:	e0 ff       	sbrs	r30, 0
    12ca:	80 e0       	ldi	r24, 0x00	; 0
    12cc:	79 01       	movw	r14, r18
    12ce:	8a 01       	movw	r16, r20
    12d0:	eb 01       	movw	r28, r22
    12d2:	c8 2e       	mov	r12, r24
    12d4:	d1 2c       	mov	r13, r1
    12d6:	b9 01       	movw	r22, r18
    12d8:	c5 01       	movw	r24, r10
    12da:	90 df       	rcall	.-224    	; 0x11fc <MATCH>
    12dc:	89 2b       	or	r24, r25
    12de:	99 f4       	brne	.+38     	; 0x1306 <ir_getRClevel+0x7a>
    12e0:	b7 01       	movw	r22, r14
    12e2:	66 0f       	add	r22, r22
    12e4:	77 1f       	adc	r23, r23
    12e6:	c5 01       	movw	r24, r10
    12e8:	89 df       	rcall	.-238    	; 0x11fc <MATCH>
    12ea:	89 2b       	or	r24, r25
    12ec:	79 f4       	brne	.+30     	; 0x130c <ir_getRClevel+0x80>
    12ee:	b7 01       	movw	r22, r14
    12f0:	66 0f       	add	r22, r22
    12f2:	77 1f       	adc	r23, r23
    12f4:	6e 0d       	add	r22, r14
    12f6:	7f 1d       	adc	r23, r15
    12f8:	c5 01       	movw	r24, r10
    12fa:	80 df       	rcall	.-256    	; 0x11fc <MATCH>
    12fc:	89 2b       	or	r24, r25
    12fe:	f1 f0       	breq	.+60     	; 0x133c <ir_getRClevel+0xb0>
    1300:	23 e0       	ldi	r18, 0x03	; 3
    1302:	30 e0       	ldi	r19, 0x00	; 0
    1304:	05 c0       	rjmp	.+10     	; 0x1310 <ir_getRClevel+0x84>
    1306:	21 e0       	ldi	r18, 0x01	; 1
    1308:	30 e0       	ldi	r19, 0x00	; 0
    130a:	02 c0       	rjmp	.+4      	; 0x1310 <ir_getRClevel+0x84>
    130c:	22 e0       	ldi	r18, 0x02	; 2
    130e:	30 e0       	ldi	r19, 0x00	; 0
    1310:	f8 01       	movw	r30, r16
    1312:	80 81       	ld	r24, Z
    1314:	91 81       	ldd	r25, Z+1	; 0x01
    1316:	01 96       	adiw	r24, 0x01	; 1
    1318:	91 83       	std	Z+1, r25	; 0x01
    131a:	80 83       	st	Z, r24
    131c:	82 17       	cp	r24, r18
    131e:	93 07       	cpc	r25, r19
    1320:	84 f0       	brlt	.+32     	; 0x1342 <ir_getRClevel+0xb6>
    1322:	11 82       	std	Z+1, r1	; 0x01
    1324:	10 82       	st	Z, r1
    1326:	88 81       	ld	r24, Y
    1328:	99 81       	ldd	r25, Y+1	; 0x01
    132a:	01 96       	adiw	r24, 0x01	; 1
    132c:	99 83       	std	Y+1, r25	; 0x01
    132e:	88 83       	st	Y, r24
    1330:	8c 2d       	mov	r24, r12
    1332:	9d 2d       	mov	r25, r13
    1334:	08 c0       	rjmp	.+16     	; 0x1346 <ir_getRClevel+0xba>
    1336:	80 e0       	ldi	r24, 0x00	; 0
    1338:	90 e0       	ldi	r25, 0x00	; 0
    133a:	05 c0       	rjmp	.+10     	; 0x1346 <ir_getRClevel+0xba>
    133c:	8f ef       	ldi	r24, 0xFF	; 255
    133e:	9f ef       	ldi	r25, 0xFF	; 255
    1340:	02 c0       	rjmp	.+4      	; 0x1346 <ir_getRClevel+0xba>
    1342:	8c 2d       	mov	r24, r12
    1344:	9d 2d       	mov	r25, r13
    1346:	df 91       	pop	r29
    1348:	cf 91       	pop	r28
    134a:	1f 91       	pop	r17
    134c:	0f 91       	pop	r16
    134e:	ff 90       	pop	r15
    1350:	ef 90       	pop	r14
    1352:	df 90       	pop	r13
    1354:	cf 90       	pop	r12
    1356:	bf 90       	pop	r11
    1358:	af 90       	pop	r10
    135a:	08 95       	ret

0000135c <ir_decodeRC5>:
    135c:	8f 92       	push	r8
    135e:	9f 92       	push	r9
    1360:	af 92       	push	r10
    1362:	bf 92       	push	r11
    1364:	cf 92       	push	r12
    1366:	df 92       	push	r13
    1368:	ef 92       	push	r14
    136a:	ff 92       	push	r15
    136c:	0f 93       	push	r16
    136e:	1f 93       	push	r17
    1370:	cf 93       	push	r28
    1372:	df 93       	push	r29
    1374:	00 d0       	rcall	.+0      	; 0x1376 <ir_decodeRC5+0x1a>
    1376:	00 d0       	rcall	.+0      	; 0x1378 <ir_decodeRC5+0x1c>
    1378:	cd b7       	in	r28, 0x3d	; 61
    137a:	de b7       	in	r29, 0x3e	; 62
    137c:	21 e0       	ldi	r18, 0x01	; 1
    137e:	30 e0       	ldi	r19, 0x00	; 0
    1380:	3a 83       	std	Y+2, r19	; 0x02
    1382:	29 83       	std	Y+1, r18	; 0x01
    1384:	1c 82       	std	Y+4, r1	; 0x04
    1386:	1b 82       	std	Y+3, r1	; 0x03
    1388:	20 91 d3 02 	lds	r18, 0x02D3	; 0x8002d3 <irparams+0xcc>
    138c:	30 91 d4 02 	lds	r19, 0x02D4	; 0x8002d4 <irparams+0xcd>
    1390:	2d 30       	cpi	r18, 0x0D	; 13
    1392:	31 05       	cpc	r19, r1
    1394:	08 f4       	brcc	.+2      	; 0x1398 <ir_decodeRC5+0x3c>
    1396:	74 c0       	rjmp	.+232    	; 0x1480 <ir_decodeRC5+0x124>
    1398:	8c 01       	movw	r16, r24
    139a:	29 e7       	ldi	r18, 0x79	; 121
    139c:	33 e0       	ldi	r19, 0x03	; 3
    139e:	ae 01       	movw	r20, r28
    13a0:	4d 5f       	subi	r20, 0xFD	; 253
    13a2:	5f 4f       	sbci	r21, 0xFF	; 255
    13a4:	be 01       	movw	r22, r28
    13a6:	6f 5f       	subi	r22, 0xFF	; 255
    13a8:	7f 4f       	sbci	r23, 0xFF	; 255
    13aa:	70 df       	rcall	.-288    	; 0x128c <ir_getRClevel>
    13ac:	01 97       	sbiw	r24, 0x01	; 1
    13ae:	09 f0       	breq	.+2      	; 0x13b2 <ir_decodeRC5+0x56>
    13b0:	6b c0       	rjmp	.+214    	; 0x1488 <ir_decodeRC5+0x12c>
    13b2:	29 e7       	ldi	r18, 0x79	; 121
    13b4:	33 e0       	ldi	r19, 0x03	; 3
    13b6:	ae 01       	movw	r20, r28
    13b8:	4d 5f       	subi	r20, 0xFD	; 253
    13ba:	5f 4f       	sbci	r21, 0xFF	; 255
    13bc:	be 01       	movw	r22, r28
    13be:	6f 5f       	subi	r22, 0xFF	; 255
    13c0:	7f 4f       	sbci	r23, 0xFF	; 255
    13c2:	c8 01       	movw	r24, r16
    13c4:	63 df       	rcall	.-314    	; 0x128c <ir_getRClevel>
    13c6:	89 2b       	or	r24, r25
    13c8:	09 f0       	breq	.+2      	; 0x13cc <ir_decodeRC5+0x70>
    13ca:	62 c0       	rjmp	.+196    	; 0x1490 <ir_decodeRC5+0x134>
    13cc:	29 e7       	ldi	r18, 0x79	; 121
    13ce:	33 e0       	ldi	r19, 0x03	; 3
    13d0:	ae 01       	movw	r20, r28
    13d2:	4d 5f       	subi	r20, 0xFD	; 253
    13d4:	5f 4f       	sbci	r21, 0xFF	; 255
    13d6:	be 01       	movw	r22, r28
    13d8:	6f 5f       	subi	r22, 0xFF	; 255
    13da:	7f 4f       	sbci	r23, 0xFF	; 255
    13dc:	c8 01       	movw	r24, r16
    13de:	56 df       	rcall	.-340    	; 0x128c <ir_getRClevel>
    13e0:	01 97       	sbiw	r24, 0x01	; 1
    13e2:	09 f0       	breq	.+2      	; 0x13e6 <ir_decodeRC5+0x8a>
    13e4:	59 c0       	rjmp	.+178    	; 0x1498 <ir_decodeRC5+0x13c>
    13e6:	c1 2c       	mov	r12, r1
    13e8:	d1 2c       	mov	r13, r1
    13ea:	81 2c       	mov	r8, r1
    13ec:	91 2c       	mov	r9, r1
    13ee:	54 01       	movw	r10, r8
    13f0:	2e c0       	rjmp	.+92     	; 0x144e <ir_decodeRC5+0xf2>
    13f2:	29 e7       	ldi	r18, 0x79	; 121
    13f4:	33 e0       	ldi	r19, 0x03	; 3
    13f6:	ae 01       	movw	r20, r28
    13f8:	4d 5f       	subi	r20, 0xFD	; 253
    13fa:	5f 4f       	sbci	r21, 0xFF	; 255
    13fc:	be 01       	movw	r22, r28
    13fe:	6f 5f       	subi	r22, 0xFF	; 255
    1400:	7f 4f       	sbci	r23, 0xFF	; 255
    1402:	c8 01       	movw	r24, r16
    1404:	43 df       	rcall	.-378    	; 0x128c <ir_getRClevel>
    1406:	7c 01       	movw	r14, r24
    1408:	29 e7       	ldi	r18, 0x79	; 121
    140a:	33 e0       	ldi	r19, 0x03	; 3
    140c:	ae 01       	movw	r20, r28
    140e:	4d 5f       	subi	r20, 0xFD	; 253
    1410:	5f 4f       	sbci	r21, 0xFF	; 255
    1412:	be 01       	movw	r22, r28
    1414:	6f 5f       	subi	r22, 0xFF	; 255
    1416:	7f 4f       	sbci	r23, 0xFF	; 255
    1418:	c8 01       	movw	r24, r16
    141a:	38 df       	rcall	.-400    	; 0x128c <ir_getRClevel>
    141c:	e1 14       	cp	r14, r1
    141e:	f1 04       	cpc	r15, r1
    1420:	51 f4       	brne	.+20     	; 0x1436 <ir_decodeRC5+0xda>
    1422:	81 30       	cpi	r24, 0x01	; 1
    1424:	91 05       	cpc	r25, r1
    1426:	39 f4       	brne	.+14     	; 0x1436 <ir_decodeRC5+0xda>
    1428:	88 0c       	add	r8, r8
    142a:	99 1c       	adc	r9, r9
    142c:	aa 1c       	adc	r10, r10
    142e:	bb 1c       	adc	r11, r11
    1430:	68 94       	set
    1432:	80 f8       	bld	r8, 0
    1434:	09 c0       	rjmp	.+18     	; 0x1448 <ir_decodeRC5+0xec>
    1436:	ea 94       	dec	r14
    1438:	ef 28       	or	r14, r15
    143a:	91 f5       	brne	.+100    	; 0x14a0 <ir_decodeRC5+0x144>
    143c:	89 2b       	or	r24, r25
    143e:	a1 f5       	brne	.+104    	; 0x14a8 <ir_decodeRC5+0x14c>
    1440:	88 0c       	add	r8, r8
    1442:	99 1c       	adc	r9, r9
    1444:	aa 1c       	adc	r10, r10
    1446:	bb 1c       	adc	r11, r11
    1448:	8f ef       	ldi	r24, 0xFF	; 255
    144a:	c8 1a       	sub	r12, r24
    144c:	d8 0a       	sbc	r13, r24
    144e:	20 91 d3 02 	lds	r18, 0x02D3	; 0x8002d3 <irparams+0xcc>
    1452:	30 91 d4 02 	lds	r19, 0x02D4	; 0x8002d4 <irparams+0xcd>
    1456:	89 81       	ldd	r24, Y+1	; 0x01
    1458:	9a 81       	ldd	r25, Y+2	; 0x02
    145a:	82 17       	cp	r24, r18
    145c:	93 07       	cpc	r25, r19
    145e:	48 f2       	brcs	.-110    	; 0x13f2 <ir_decodeRC5+0x96>
    1460:	f8 01       	movw	r30, r16
    1462:	d1 86       	std	Z+9, r13	; 0x09
    1464:	c0 86       	std	Z+8, r12	; 0x08
    1466:	84 82       	std	Z+4, r8	; 0x04
    1468:	95 82       	std	Z+5, r9	; 0x05
    146a:	a6 82       	std	Z+6, r10	; 0x06
    146c:	b7 82       	std	Z+7, r11	; 0x07
    146e:	83 e0       	ldi	r24, 0x03	; 3
    1470:	90 e0       	ldi	r25, 0x00	; 0
    1472:	91 83       	std	Z+1, r25	; 0x01
    1474:	80 83       	st	Z, r24
    1476:	61 e0       	ldi	r22, 0x01	; 1
    1478:	70 e0       	ldi	r23, 0x00	; 0
    147a:	80 e0       	ldi	r24, 0x00	; 0
    147c:	90 e0       	ldi	r25, 0x00	; 0
    147e:	17 c0       	rjmp	.+46     	; 0x14ae <ir_decodeRC5+0x152>
    1480:	60 e0       	ldi	r22, 0x00	; 0
    1482:	70 e0       	ldi	r23, 0x00	; 0
    1484:	cb 01       	movw	r24, r22
    1486:	13 c0       	rjmp	.+38     	; 0x14ae <ir_decodeRC5+0x152>
    1488:	60 e0       	ldi	r22, 0x00	; 0
    148a:	70 e0       	ldi	r23, 0x00	; 0
    148c:	cb 01       	movw	r24, r22
    148e:	0f c0       	rjmp	.+30     	; 0x14ae <ir_decodeRC5+0x152>
    1490:	60 e0       	ldi	r22, 0x00	; 0
    1492:	70 e0       	ldi	r23, 0x00	; 0
    1494:	cb 01       	movw	r24, r22
    1496:	0b c0       	rjmp	.+22     	; 0x14ae <ir_decodeRC5+0x152>
    1498:	60 e0       	ldi	r22, 0x00	; 0
    149a:	70 e0       	ldi	r23, 0x00	; 0
    149c:	cb 01       	movw	r24, r22
    149e:	07 c0       	rjmp	.+14     	; 0x14ae <ir_decodeRC5+0x152>
    14a0:	60 e0       	ldi	r22, 0x00	; 0
    14a2:	70 e0       	ldi	r23, 0x00	; 0
    14a4:	cb 01       	movw	r24, r22
    14a6:	03 c0       	rjmp	.+6      	; 0x14ae <ir_decodeRC5+0x152>
    14a8:	60 e0       	ldi	r22, 0x00	; 0
    14aa:	70 e0       	ldi	r23, 0x00	; 0
    14ac:	cb 01       	movw	r24, r22
    14ae:	0f 90       	pop	r0
    14b0:	0f 90       	pop	r0
    14b2:	0f 90       	pop	r0
    14b4:	0f 90       	pop	r0
    14b6:	df 91       	pop	r29
    14b8:	cf 91       	pop	r28
    14ba:	1f 91       	pop	r17
    14bc:	0f 91       	pop	r16
    14be:	ff 90       	pop	r15
    14c0:	ef 90       	pop	r14
    14c2:	df 90       	pop	r13
    14c4:	cf 90       	pop	r12
    14c6:	bf 90       	pop	r11
    14c8:	af 90       	pop	r10
    14ca:	9f 90       	pop	r9
    14cc:	8f 90       	pop	r8
    14ce:	08 95       	ret

000014d0 <MATCH_MARK>:
    14d0:	95 ce       	rjmp	.-726    	; 0x11fc <MATCH>
    14d2:	08 95       	ret

000014d4 <MATCH_SPACE>:
    14d4:	93 ce       	rjmp	.-730    	; 0x11fc <MATCH>
    14d6:	08 95       	ret

000014d8 <ir_decodeSigma>:
    14d8:	6f 92       	push	r6
    14da:	7f 92       	push	r7
    14dc:	8f 92       	push	r8
    14de:	9f 92       	push	r9
    14e0:	af 92       	push	r10
    14e2:	bf 92       	push	r11
    14e4:	cf 92       	push	r12
    14e6:	df 92       	push	r13
    14e8:	ef 92       	push	r14
    14ea:	ff 92       	push	r15
    14ec:	0f 93       	push	r16
    14ee:	1f 93       	push	r17
    14f0:	cf 93       	push	r28
    14f2:	df 93       	push	r29
    14f4:	3c 01       	movw	r6, r24
    14f6:	fc 01       	movw	r30, r24
    14f8:	c2 84       	ldd	r12, Z+10	; 0x0a
    14fa:	d3 84       	ldd	r13, Z+11	; 0x0b
    14fc:	f6 01       	movw	r30, r12
    14fe:	82 81       	ldd	r24, Z+2	; 0x02
    1500:	93 81       	ldd	r25, Z+3	; 0x03
    1502:	68 ef       	ldi	r22, 0xF8	; 248
    1504:	70 e2       	ldi	r23, 0x20	; 32
    1506:	e4 df       	rcall	.-56     	; 0x14d0 <MATCH_MARK>
    1508:	89 2b       	or	r24, r25
    150a:	09 f4       	brne	.+2      	; 0x150e <ir_decodeSigma+0x36>
    150c:	8f c0       	rjmp	.+286    	; 0x162c <ir_decodeSigma+0x154>
    150e:	80 91 d3 02 	lds	r24, 0x02D3	; 0x8002d3 <irparams+0xcc>
    1512:	90 91 d4 02 	lds	r25, 0x02D4	; 0x8002d4 <irparams+0xcd>
    1516:	86 97       	sbiw	r24, 0x26	; 38
    1518:	08 f4       	brcc	.+2      	; 0x151c <ir_decodeSigma+0x44>
    151a:	8c c0       	rjmp	.+280    	; 0x1634 <ir_decodeSigma+0x15c>
    151c:	f6 01       	movw	r30, r12
    151e:	84 81       	ldd	r24, Z+4	; 0x04
    1520:	95 81       	ldd	r25, Z+5	; 0x05
    1522:	60 e9       	ldi	r22, 0x90	; 144
    1524:	70 e1       	ldi	r23, 0x10	; 16
    1526:	d6 df       	rcall	.-84     	; 0x14d4 <MATCH_SPACE>
    1528:	89 2b       	or	r24, r25
    152a:	09 f4       	brne	.+2      	; 0x152e <ir_decodeSigma+0x56>
    152c:	87 c0       	rjmp	.+270    	; 0x163c <ir_decodeSigma+0x164>
    152e:	03 e0       	ldi	r16, 0x03	; 3
    1530:	10 e0       	ldi	r17, 0x00	; 0
    1532:	81 2c       	mov	r8, r1
    1534:	91 2c       	mov	r9, r1
    1536:	54 01       	movw	r10, r8
    1538:	e1 2c       	mov	r14, r1
    153a:	f1 2c       	mov	r15, r1
    153c:	54 c0       	rjmp	.+168    	; 0x15e6 <ir_decodeSigma+0x10e>
    153e:	f8 01       	movw	r30, r16
    1540:	ee 0f       	add	r30, r30
    1542:	ff 1f       	adc	r31, r31
    1544:	ec 0d       	add	r30, r12
    1546:	fd 1d       	adc	r31, r13
    1548:	80 81       	ld	r24, Z
    154a:	91 81       	ldd	r25, Z+1	; 0x01
    154c:	68 e0       	ldi	r22, 0x08	; 8
    154e:	72 e0       	ldi	r23, 0x02	; 2
    1550:	bf df       	rcall	.-130    	; 0x14d0 <MATCH_MARK>
    1552:	89 2b       	or	r24, r25
    1554:	09 f4       	brne	.+2      	; 0x1558 <ir_decodeSigma+0x80>
    1556:	76 c0       	rjmp	.+236    	; 0x1644 <ir_decodeSigma+0x16c>
    1558:	e8 01       	movw	r28, r16
    155a:	21 96       	adiw	r28, 0x01	; 1
    155c:	cc 0f       	add	r28, r28
    155e:	dd 1f       	adc	r29, r29
    1560:	cc 0d       	add	r28, r12
    1562:	dd 1d       	adc	r29, r13
    1564:	88 81       	ld	r24, Y
    1566:	99 81       	ldd	r25, Y+1	; 0x01
    1568:	60 e4       	ldi	r22, 0x40	; 64
    156a:	76 e0       	ldi	r23, 0x06	; 6
    156c:	b3 df       	rcall	.-154    	; 0x14d4 <MATCH_SPACE>
    156e:	89 2b       	or	r24, r25
    1570:	39 f0       	breq	.+14     	; 0x1580 <ir_decodeSigma+0xa8>
    1572:	88 0c       	add	r8, r8
    1574:	99 1c       	adc	r9, r9
    1576:	aa 1c       	adc	r10, r10
    1578:	bb 1c       	adc	r11, r11
    157a:	68 94       	set
    157c:	80 f8       	bld	r8, 0
    157e:	0c c0       	rjmp	.+24     	; 0x1598 <ir_decodeSigma+0xc0>
    1580:	88 81       	ld	r24, Y
    1582:	99 81       	ldd	r25, Y+1	; 0x01
    1584:	68 e0       	ldi	r22, 0x08	; 8
    1586:	72 e0       	ldi	r23, 0x02	; 2
    1588:	a5 df       	rcall	.-182    	; 0x14d4 <MATCH_SPACE>
    158a:	89 2b       	or	r24, r25
    158c:	09 f4       	brne	.+2      	; 0x1590 <ir_decodeSigma+0xb8>
    158e:	5e c0       	rjmp	.+188    	; 0x164c <ir_decodeSigma+0x174>
    1590:	88 0c       	add	r8, r8
    1592:	99 1c       	adc	r9, r9
    1594:	aa 1c       	adc	r10, r10
    1596:	bb 1c       	adc	r11, r11
    1598:	c8 01       	movw	r24, r16
    159a:	02 96       	adiw	r24, 0x02	; 2
    159c:	f7 e0       	ldi	r31, 0x07	; 7
    159e:	ef 16       	cp	r14, r31
    15a0:	f1 04       	cpc	r15, r1
    15a2:	e9 f4       	brne	.+58     	; 0x15de <ir_decodeSigma+0x106>
    15a4:	88 0f       	add	r24, r24
    15a6:	99 1f       	adc	r25, r25
    15a8:	f6 01       	movw	r30, r12
    15aa:	e8 0f       	add	r30, r24
    15ac:	f9 1f       	adc	r31, r25
    15ae:	80 81       	ld	r24, Z
    15b0:	91 81       	ldd	r25, Z+1	; 0x01
    15b2:	68 e0       	ldi	r22, 0x08	; 8
    15b4:	72 e0       	ldi	r23, 0x02	; 2
    15b6:	8c df       	rcall	.-232    	; 0x14d0 <MATCH_MARK>
    15b8:	89 2b       	or	r24, r25
    15ba:	09 f4       	brne	.+2      	; 0x15be <ir_decodeSigma+0xe6>
    15bc:	4b c0       	rjmp	.+150    	; 0x1654 <ir_decodeSigma+0x17c>
    15be:	f8 01       	movw	r30, r16
    15c0:	33 96       	adiw	r30, 0x03	; 3
    15c2:	ee 0f       	add	r30, r30
    15c4:	ff 1f       	adc	r31, r31
    15c6:	ec 0d       	add	r30, r12
    15c8:	fd 1d       	adc	r31, r13
    15ca:	80 81       	ld	r24, Z
    15cc:	91 81       	ldd	r25, Z+1	; 0x01
    15ce:	60 e9       	ldi	r22, 0x90	; 144
    15d0:	70 e1       	ldi	r23, 0x10	; 16
    15d2:	80 df       	rcall	.-256    	; 0x14d4 <MATCH_SPACE>
    15d4:	89 2b       	or	r24, r25
    15d6:	09 f4       	brne	.+2      	; 0x15da <ir_decodeSigma+0x102>
    15d8:	41 c0       	rjmp	.+130    	; 0x165c <ir_decodeSigma+0x184>
    15da:	c8 01       	movw	r24, r16
    15dc:	04 96       	adiw	r24, 0x04	; 4
    15de:	2f ef       	ldi	r18, 0xFF	; 255
    15e0:	e2 1a       	sub	r14, r18
    15e2:	f2 0a       	sbc	r15, r18
    15e4:	8c 01       	movw	r16, r24
    15e6:	80 e1       	ldi	r24, 0x10	; 16
    15e8:	e8 16       	cp	r14, r24
    15ea:	f1 04       	cpc	r15, r1
    15ec:	0c f4       	brge	.+2      	; 0x15f0 <ir_decodeSigma+0x118>
    15ee:	a7 cf       	rjmp	.-178    	; 0x153e <ir_decodeSigma+0x66>
    15f0:	00 0f       	add	r16, r16
    15f2:	11 1f       	adc	r17, r17
    15f4:	f6 01       	movw	r30, r12
    15f6:	e0 0f       	add	r30, r16
    15f8:	f1 1f       	adc	r31, r17
    15fa:	80 81       	ld	r24, Z
    15fc:	91 81       	ldd	r25, Z+1	; 0x01
    15fe:	68 e0       	ldi	r22, 0x08	; 8
    1600:	72 e0       	ldi	r23, 0x02	; 2
    1602:	66 df       	rcall	.-308    	; 0x14d0 <MATCH_MARK>
    1604:	89 2b       	or	r24, r25
    1606:	71 f1       	breq	.+92     	; 0x1664 <ir_decodeSigma+0x18c>
    1608:	80 e2       	ldi	r24, 0x20	; 32
    160a:	90 e0       	ldi	r25, 0x00	; 0
    160c:	f3 01       	movw	r30, r6
    160e:	91 87       	std	Z+9, r25	; 0x09
    1610:	80 87       	std	Z+8, r24	; 0x08
    1612:	84 82       	std	Z+4, r8	; 0x04
    1614:	95 82       	std	Z+5, r9	; 0x05
    1616:	a6 82       	std	Z+6, r10	; 0x06
    1618:	b7 82       	std	Z+7, r11	; 0x07
    161a:	8b e0       	ldi	r24, 0x0B	; 11
    161c:	90 e0       	ldi	r25, 0x00	; 0
    161e:	91 83       	std	Z+1, r25	; 0x01
    1620:	80 83       	st	Z, r24
    1622:	61 e0       	ldi	r22, 0x01	; 1
    1624:	70 e0       	ldi	r23, 0x00	; 0
    1626:	80 e0       	ldi	r24, 0x00	; 0
    1628:	90 e0       	ldi	r25, 0x00	; 0
    162a:	1f c0       	rjmp	.+62     	; 0x166a <ir_decodeSigma+0x192>
    162c:	60 e0       	ldi	r22, 0x00	; 0
    162e:	70 e0       	ldi	r23, 0x00	; 0
    1630:	cb 01       	movw	r24, r22
    1632:	1b c0       	rjmp	.+54     	; 0x166a <ir_decodeSigma+0x192>
    1634:	60 e0       	ldi	r22, 0x00	; 0
    1636:	70 e0       	ldi	r23, 0x00	; 0
    1638:	cb 01       	movw	r24, r22
    163a:	17 c0       	rjmp	.+46     	; 0x166a <ir_decodeSigma+0x192>
    163c:	60 e0       	ldi	r22, 0x00	; 0
    163e:	70 e0       	ldi	r23, 0x00	; 0
    1640:	cb 01       	movw	r24, r22
    1642:	13 c0       	rjmp	.+38     	; 0x166a <ir_decodeSigma+0x192>
    1644:	60 e0       	ldi	r22, 0x00	; 0
    1646:	70 e0       	ldi	r23, 0x00	; 0
    1648:	cb 01       	movw	r24, r22
    164a:	0f c0       	rjmp	.+30     	; 0x166a <ir_decodeSigma+0x192>
    164c:	60 e0       	ldi	r22, 0x00	; 0
    164e:	70 e0       	ldi	r23, 0x00	; 0
    1650:	cb 01       	movw	r24, r22
    1652:	0b c0       	rjmp	.+22     	; 0x166a <ir_decodeSigma+0x192>
    1654:	60 e0       	ldi	r22, 0x00	; 0
    1656:	70 e0       	ldi	r23, 0x00	; 0
    1658:	cb 01       	movw	r24, r22
    165a:	07 c0       	rjmp	.+14     	; 0x166a <ir_decodeSigma+0x192>
    165c:	60 e0       	ldi	r22, 0x00	; 0
    165e:	70 e0       	ldi	r23, 0x00	; 0
    1660:	cb 01       	movw	r24, r22
    1662:	03 c0       	rjmp	.+6      	; 0x166a <ir_decodeSigma+0x192>
    1664:	60 e0       	ldi	r22, 0x00	; 0
    1666:	70 e0       	ldi	r23, 0x00	; 0
    1668:	cb 01       	movw	r24, r22
    166a:	df 91       	pop	r29
    166c:	cf 91       	pop	r28
    166e:	1f 91       	pop	r17
    1670:	0f 91       	pop	r16
    1672:	ff 90       	pop	r15
    1674:	ef 90       	pop	r14
    1676:	df 90       	pop	r13
    1678:	cf 90       	pop	r12
    167a:	bf 90       	pop	r11
    167c:	af 90       	pop	r10
    167e:	9f 90       	pop	r9
    1680:	8f 90       	pop	r8
    1682:	7f 90       	pop	r7
    1684:	6f 90       	pop	r6
    1686:	08 95       	ret

00001688 <ir_decodeNEC>:
    1688:	6f 92       	push	r6
    168a:	7f 92       	push	r7
    168c:	8f 92       	push	r8
    168e:	9f 92       	push	r9
    1690:	af 92       	push	r10
    1692:	bf 92       	push	r11
    1694:	cf 92       	push	r12
    1696:	df 92       	push	r13
    1698:	ef 92       	push	r14
    169a:	ff 92       	push	r15
    169c:	0f 93       	push	r16
    169e:	1f 93       	push	r17
    16a0:	cf 93       	push	r28
    16a2:	df 93       	push	r29
    16a4:	3c 01       	movw	r6, r24
    16a6:	fc 01       	movw	r30, r24
    16a8:	c2 84       	ldd	r12, Z+10	; 0x0a
    16aa:	d3 84       	ldd	r13, Z+11	; 0x0b
    16ac:	f6 01       	movw	r30, r12
    16ae:	82 81       	ldd	r24, Z+2	; 0x02
    16b0:	93 81       	ldd	r25, Z+3	; 0x03
    16b2:	68 e2       	ldi	r22, 0x28	; 40
    16b4:	73 e2       	ldi	r23, 0x23	; 35
    16b6:	0c df       	rcall	.-488    	; 0x14d0 <MATCH_MARK>
    16b8:	89 2b       	or	r24, r25
    16ba:	09 f4       	brne	.+2      	; 0x16be <ir_decodeNEC+0x36>
    16bc:	89 c0       	rjmp	.+274    	; 0x17d0 <ir_decodeNEC+0x148>
    16be:	80 91 d3 02 	lds	r24, 0x02D3	; 0x8002d3 <irparams+0xcc>
    16c2:	90 91 d4 02 	lds	r25, 0x02D4	; 0x8002d4 <irparams+0xcd>
    16c6:	04 97       	sbiw	r24, 0x04	; 4
    16c8:	19 f5       	brne	.+70     	; 0x1710 <ir_decodeNEC+0x88>
    16ca:	f6 01       	movw	r30, r12
    16cc:	84 81       	ldd	r24, Z+4	; 0x04
    16ce:	95 81       	ldd	r25, Z+5	; 0x05
    16d0:	6a ec       	ldi	r22, 0xCA	; 202
    16d2:	78 e0       	ldi	r23, 0x08	; 8
    16d4:	ff de       	rcall	.-514    	; 0x14d4 <MATCH_SPACE>
    16d6:	89 2b       	or	r24, r25
    16d8:	d9 f0       	breq	.+54     	; 0x1710 <ir_decodeNEC+0x88>
    16da:	f6 01       	movw	r30, r12
    16dc:	86 81       	ldd	r24, Z+6	; 0x06
    16de:	97 81       	ldd	r25, Z+7	; 0x07
    16e0:	60 e3       	ldi	r22, 0x30	; 48
    16e2:	72 e0       	ldi	r23, 0x02	; 2
    16e4:	f5 de       	rcall	.-534    	; 0x14d0 <MATCH_MARK>
    16e6:	89 2b       	or	r24, r25
    16e8:	99 f0       	breq	.+38     	; 0x1710 <ir_decodeNEC+0x88>
    16ea:	f3 01       	movw	r30, r6
    16ec:	11 86       	std	Z+9, r1	; 0x09
    16ee:	10 86       	std	Z+8, r1	; 0x08
    16f0:	8f ef       	ldi	r24, 0xFF	; 255
    16f2:	9f ef       	ldi	r25, 0xFF	; 255
    16f4:	dc 01       	movw	r26, r24
    16f6:	84 83       	std	Z+4, r24	; 0x04
    16f8:	95 83       	std	Z+5, r25	; 0x05
    16fa:	a6 83       	std	Z+6, r26	; 0x06
    16fc:	b7 83       	std	Z+7, r27	; 0x07
    16fe:	81 e0       	ldi	r24, 0x01	; 1
    1700:	90 e0       	ldi	r25, 0x00	; 0
    1702:	91 83       	std	Z+1, r25	; 0x01
    1704:	80 83       	st	Z, r24
    1706:	61 e0       	ldi	r22, 0x01	; 1
    1708:	70 e0       	ldi	r23, 0x00	; 0
    170a:	80 e0       	ldi	r24, 0x00	; 0
    170c:	90 e0       	ldi	r25, 0x00	; 0
    170e:	73 c0       	rjmp	.+230    	; 0x17f6 <ir_decodeNEC+0x16e>
    1710:	80 91 d3 02 	lds	r24, 0x02D3	; 0x8002d3 <irparams+0xcc>
    1714:	90 91 d4 02 	lds	r25, 0x02D4	; 0x8002d4 <irparams+0xcd>
    1718:	84 34       	cpi	r24, 0x44	; 68
    171a:	91 05       	cpc	r25, r1
    171c:	08 f4       	brcc	.+2      	; 0x1720 <ir_decodeNEC+0x98>
    171e:	5c c0       	rjmp	.+184    	; 0x17d8 <ir_decodeNEC+0x150>
    1720:	f6 01       	movw	r30, r12
    1722:	84 81       	ldd	r24, Z+4	; 0x04
    1724:	95 81       	ldd	r25, Z+5	; 0x05
    1726:	64 e9       	ldi	r22, 0x94	; 148
    1728:	71 e1       	ldi	r23, 0x11	; 17
    172a:	d4 de       	rcall	.-600    	; 0x14d4 <MATCH_SPACE>
    172c:	89 2b       	or	r24, r25
    172e:	09 f4       	brne	.+2      	; 0x1732 <ir_decodeNEC+0xaa>
    1730:	57 c0       	rjmp	.+174    	; 0x17e0 <ir_decodeNEC+0x158>
    1732:	03 e0       	ldi	r16, 0x03	; 3
    1734:	10 e0       	ldi	r17, 0x00	; 0
    1736:	81 2c       	mov	r8, r1
    1738:	91 2c       	mov	r9, r1
    173a:	54 01       	movw	r10, r8
    173c:	e1 2c       	mov	r14, r1
    173e:	f1 2c       	mov	r15, r1
    1740:	31 c0       	rjmp	.+98     	; 0x17a4 <ir_decodeNEC+0x11c>
    1742:	f8 01       	movw	r30, r16
    1744:	ee 0f       	add	r30, r30
    1746:	ff 1f       	adc	r31, r31
    1748:	ec 0d       	add	r30, r12
    174a:	fd 1d       	adc	r31, r13
    174c:	80 81       	ld	r24, Z
    174e:	91 81       	ldd	r25, Z+1	; 0x01
    1750:	60 e3       	ldi	r22, 0x30	; 48
    1752:	72 e0       	ldi	r23, 0x02	; 2
    1754:	bd de       	rcall	.-646    	; 0x14d0 <MATCH_MARK>
    1756:	89 2b       	or	r24, r25
    1758:	09 f4       	brne	.+2      	; 0x175c <ir_decodeNEC+0xd4>
    175a:	46 c0       	rjmp	.+140    	; 0x17e8 <ir_decodeNEC+0x160>
    175c:	e8 01       	movw	r28, r16
    175e:	21 96       	adiw	r28, 0x01	; 1
    1760:	cc 0f       	add	r28, r28
    1762:	dd 1f       	adc	r29, r29
    1764:	cc 0d       	add	r28, r12
    1766:	dd 1d       	adc	r29, r13
    1768:	88 81       	ld	r24, Y
    176a:	99 81       	ldd	r25, Y+1	; 0x01
    176c:	60 e4       	ldi	r22, 0x40	; 64
    176e:	76 e0       	ldi	r23, 0x06	; 6
    1770:	b1 de       	rcall	.-670    	; 0x14d4 <MATCH_SPACE>
    1772:	89 2b       	or	r24, r25
    1774:	39 f0       	breq	.+14     	; 0x1784 <ir_decodeNEC+0xfc>
    1776:	88 0c       	add	r8, r8
    1778:	99 1c       	adc	r9, r9
    177a:	aa 1c       	adc	r10, r10
    177c:	bb 1c       	adc	r11, r11
    177e:	68 94       	set
    1780:	80 f8       	bld	r8, 0
    1782:	0b c0       	rjmp	.+22     	; 0x179a <ir_decodeNEC+0x112>
    1784:	88 81       	ld	r24, Y
    1786:	99 81       	ldd	r25, Y+1	; 0x01
    1788:	60 e3       	ldi	r22, 0x30	; 48
    178a:	72 e0       	ldi	r23, 0x02	; 2
    178c:	a3 de       	rcall	.-698    	; 0x14d4 <MATCH_SPACE>
    178e:	89 2b       	or	r24, r25
    1790:	79 f1       	breq	.+94     	; 0x17f0 <ir_decodeNEC+0x168>
    1792:	88 0c       	add	r8, r8
    1794:	99 1c       	adc	r9, r9
    1796:	aa 1c       	adc	r10, r10
    1798:	bb 1c       	adc	r11, r11
    179a:	0e 5f       	subi	r16, 0xFE	; 254
    179c:	1f 4f       	sbci	r17, 0xFF	; 255
    179e:	ff ef       	ldi	r31, 0xFF	; 255
    17a0:	ef 1a       	sub	r14, r31
    17a2:	ff 0a       	sbc	r15, r31
    17a4:	80 e2       	ldi	r24, 0x20	; 32
    17a6:	e8 16       	cp	r14, r24
    17a8:	f1 04       	cpc	r15, r1
    17aa:	5c f2       	brlt	.-106    	; 0x1742 <ir_decodeNEC+0xba>
    17ac:	80 e2       	ldi	r24, 0x20	; 32
    17ae:	90 e0       	ldi	r25, 0x00	; 0
    17b0:	f3 01       	movw	r30, r6
    17b2:	91 87       	std	Z+9, r25	; 0x09
    17b4:	80 87       	std	Z+8, r24	; 0x08
    17b6:	84 82       	std	Z+4, r8	; 0x04
    17b8:	95 82       	std	Z+5, r9	; 0x05
    17ba:	a6 82       	std	Z+6, r10	; 0x06
    17bc:	b7 82       	std	Z+7, r11	; 0x07
    17be:	81 e0       	ldi	r24, 0x01	; 1
    17c0:	90 e0       	ldi	r25, 0x00	; 0
    17c2:	91 83       	std	Z+1, r25	; 0x01
    17c4:	80 83       	st	Z, r24
    17c6:	61 e0       	ldi	r22, 0x01	; 1
    17c8:	70 e0       	ldi	r23, 0x00	; 0
    17ca:	80 e0       	ldi	r24, 0x00	; 0
    17cc:	90 e0       	ldi	r25, 0x00	; 0
    17ce:	13 c0       	rjmp	.+38     	; 0x17f6 <ir_decodeNEC+0x16e>
    17d0:	60 e0       	ldi	r22, 0x00	; 0
    17d2:	70 e0       	ldi	r23, 0x00	; 0
    17d4:	cb 01       	movw	r24, r22
    17d6:	0f c0       	rjmp	.+30     	; 0x17f6 <ir_decodeNEC+0x16e>
    17d8:	60 e0       	ldi	r22, 0x00	; 0
    17da:	70 e0       	ldi	r23, 0x00	; 0
    17dc:	cb 01       	movw	r24, r22
    17de:	0b c0       	rjmp	.+22     	; 0x17f6 <ir_decodeNEC+0x16e>
    17e0:	60 e0       	ldi	r22, 0x00	; 0
    17e2:	70 e0       	ldi	r23, 0x00	; 0
    17e4:	cb 01       	movw	r24, r22
    17e6:	07 c0       	rjmp	.+14     	; 0x17f6 <ir_decodeNEC+0x16e>
    17e8:	60 e0       	ldi	r22, 0x00	; 0
    17ea:	70 e0       	ldi	r23, 0x00	; 0
    17ec:	cb 01       	movw	r24, r22
    17ee:	03 c0       	rjmp	.+6      	; 0x17f6 <ir_decodeNEC+0x16e>
    17f0:	60 e0       	ldi	r22, 0x00	; 0
    17f2:	70 e0       	ldi	r23, 0x00	; 0
    17f4:	cb 01       	movw	r24, r22
    17f6:	df 91       	pop	r29
    17f8:	cf 91       	pop	r28
    17fa:	1f 91       	pop	r17
    17fc:	0f 91       	pop	r16
    17fe:	ff 90       	pop	r15
    1800:	ef 90       	pop	r14
    1802:	df 90       	pop	r13
    1804:	cf 90       	pop	r12
    1806:	bf 90       	pop	r11
    1808:	af 90       	pop	r10
    180a:	9f 90       	pop	r9
    180c:	8f 90       	pop	r8
    180e:	7f 90       	pop	r7
    1810:	6f 90       	pop	r6
    1812:	08 95       	ret

00001814 <ir_decodeSony>:
    1814:	8f 92       	push	r8
    1816:	9f 92       	push	r9
    1818:	af 92       	push	r10
    181a:	bf 92       	push	r11
    181c:	cf 92       	push	r12
    181e:	df 92       	push	r13
    1820:	ef 92       	push	r14
    1822:	ff 92       	push	r15
    1824:	0f 93       	push	r16
    1826:	1f 93       	push	r17
    1828:	cf 93       	push	r28
    182a:	df 93       	push	r29
    182c:	20 91 d3 02 	lds	r18, 0x02D3	; 0x8002d3 <irparams+0xcc>
    1830:	30 91 d4 02 	lds	r19, 0x02D4	; 0x8002d4 <irparams+0xcd>
    1834:	2a 31       	cpi	r18, 0x1A	; 26
    1836:	31 05       	cpc	r19, r1
    1838:	08 f4       	brcc	.+2      	; 0x183c <ir_decodeSony+0x28>
    183a:	81 c0       	rjmp	.+258    	; 0x193e <ir_decodeSony+0x12a>
    183c:	fc 01       	movw	r30, r24
    183e:	e2 84       	ldd	r14, Z+10	; 0x0a
    1840:	f3 84       	ldd	r15, Z+11	; 0x0b
    1842:	f7 01       	movw	r30, r14
    1844:	20 81       	ld	r18, Z
    1846:	31 81       	ldd	r19, Z+1	; 0x01
    1848:	24 3f       	cpi	r18, 0xF4	; 244
    184a:	31 40       	sbci	r19, 0x01	; 1
    184c:	98 f4       	brcc	.+38     	; 0x1874 <ir_decodeSony+0x60>
    184e:	fc 01       	movw	r30, r24
    1850:	11 86       	std	Z+9, r1	; 0x09
    1852:	10 86       	std	Z+8, r1	; 0x08
    1854:	4f ef       	ldi	r20, 0xFF	; 255
    1856:	5f ef       	ldi	r21, 0xFF	; 255
    1858:	ba 01       	movw	r22, r20
    185a:	44 83       	std	Z+4, r20	; 0x04
    185c:	55 83       	std	Z+5, r21	; 0x05
    185e:	66 83       	std	Z+6, r22	; 0x06
    1860:	77 83       	std	Z+7, r23	; 0x07
    1862:	29 e0       	ldi	r18, 0x09	; 9
    1864:	30 e0       	ldi	r19, 0x00	; 0
    1866:	31 83       	std	Z+1, r19	; 0x01
    1868:	20 83       	st	Z, r18
    186a:	61 e0       	ldi	r22, 0x01	; 1
    186c:	70 e0       	ldi	r23, 0x00	; 0
    186e:	80 e0       	ldi	r24, 0x00	; 0
    1870:	90 e0       	ldi	r25, 0x00	; 0
    1872:	70 c0       	rjmp	.+224    	; 0x1954 <ir_decodeSony+0x140>
    1874:	6c 01       	movw	r12, r24
    1876:	f7 01       	movw	r30, r14
    1878:	82 81       	ldd	r24, Z+2	; 0x02
    187a:	93 81       	ldd	r25, Z+3	; 0x03
    187c:	60 e6       	ldi	r22, 0x60	; 96
    187e:	79 e0       	ldi	r23, 0x09	; 9
    1880:	27 de       	rcall	.-946    	; 0x14d0 <MATCH_MARK>
    1882:	89 2b       	or	r24, r25
    1884:	09 f4       	brne	.+2      	; 0x1888 <ir_decodeSony+0x74>
    1886:	5f c0       	rjmp	.+190    	; 0x1946 <ir_decodeSony+0x132>
    1888:	02 e0       	ldi	r16, 0x02	; 2
    188a:	10 e0       	ldi	r17, 0x00	; 0
    188c:	81 2c       	mov	r8, r1
    188e:	91 2c       	mov	r9, r1
    1890:	54 01       	movw	r10, r8
    1892:	2b c0       	rjmp	.+86     	; 0x18ea <ir_decodeSony+0xd6>
    1894:	f8 01       	movw	r30, r16
    1896:	ee 0f       	add	r30, r30
    1898:	ff 1f       	adc	r31, r31
    189a:	ee 0d       	add	r30, r14
    189c:	ff 1d       	adc	r31, r15
    189e:	80 81       	ld	r24, Z
    18a0:	91 81       	ldd	r25, Z+1	; 0x01
    18a2:	68 e5       	ldi	r22, 0x58	; 88
    18a4:	72 e0       	ldi	r23, 0x02	; 2
    18a6:	16 de       	rcall	.-980    	; 0x14d4 <MATCH_SPACE>
    18a8:	89 2b       	or	r24, r25
    18aa:	41 f1       	breq	.+80     	; 0x18fc <ir_decodeSony+0xe8>
    18ac:	cc 0f       	add	r28, r28
    18ae:	dd 1f       	adc	r29, r29
    18b0:	ce 0d       	add	r28, r14
    18b2:	df 1d       	adc	r29, r15
    18b4:	88 81       	ld	r24, Y
    18b6:	99 81       	ldd	r25, Y+1	; 0x01
    18b8:	60 eb       	ldi	r22, 0xB0	; 176
    18ba:	74 e0       	ldi	r23, 0x04	; 4
    18bc:	09 de       	rcall	.-1006   	; 0x14d0 <MATCH_MARK>
    18be:	89 2b       	or	r24, r25
    18c0:	39 f0       	breq	.+14     	; 0x18d0 <ir_decodeSony+0xbc>
    18c2:	88 0c       	add	r8, r8
    18c4:	99 1c       	adc	r9, r9
    18c6:	aa 1c       	adc	r10, r10
    18c8:	bb 1c       	adc	r11, r11
    18ca:	68 94       	set
    18cc:	80 f8       	bld	r8, 0
    18ce:	0b c0       	rjmp	.+22     	; 0x18e6 <ir_decodeSony+0xd2>
    18d0:	88 81       	ld	r24, Y
    18d2:	99 81       	ldd	r25, Y+1	; 0x01
    18d4:	68 e5       	ldi	r22, 0x58	; 88
    18d6:	72 e0       	ldi	r23, 0x02	; 2
    18d8:	fb dd       	rcall	.-1034   	; 0x14d0 <MATCH_MARK>
    18da:	89 2b       	or	r24, r25
    18dc:	c1 f1       	breq	.+112    	; 0x194e <ir_decodeSony+0x13a>
    18de:	88 0c       	add	r8, r8
    18e0:	99 1c       	adc	r9, r9
    18e2:	aa 1c       	adc	r10, r10
    18e4:	bb 1c       	adc	r11, r11
    18e6:	0e 5f       	subi	r16, 0xFE	; 254
    18e8:	1f 4f       	sbci	r17, 0xFF	; 255
    18ea:	e8 01       	movw	r28, r16
    18ec:	21 96       	adiw	r28, 0x01	; 1
    18ee:	80 91 d3 02 	lds	r24, 0x02D3	; 0x8002d3 <irparams+0xcc>
    18f2:	90 91 d4 02 	lds	r25, 0x02D4	; 0x8002d4 <irparams+0xcd>
    18f6:	c8 17       	cp	r28, r24
    18f8:	d9 07       	cpc	r29, r25
    18fa:	60 f2       	brcs	.-104    	; 0x1894 <ir_decodeSony+0x80>
    18fc:	01 50       	subi	r16, 0x01	; 1
    18fe:	11 09       	sbc	r17, r1
    1900:	c8 01       	movw	r24, r16
    1902:	99 23       	and	r25, r25
    1904:	0c f4       	brge	.+2      	; 0x1908 <ir_decodeSony+0xf4>
    1906:	01 96       	adiw	r24, 0x01	; 1
    1908:	95 95       	asr	r25
    190a:	87 95       	ror	r24
    190c:	f6 01       	movw	r30, r12
    190e:	91 87       	std	Z+9, r25	; 0x09
    1910:	80 87       	std	Z+8, r24	; 0x08
    1912:	0c 97       	sbiw	r24, 0x0c	; 12
    1914:	34 f4       	brge	.+12     	; 0x1922 <ir_decodeSony+0x10e>
    1916:	11 86       	std	Z+9, r1	; 0x09
    1918:	10 86       	std	Z+8, r1	; 0x08
    191a:	60 e0       	ldi	r22, 0x00	; 0
    191c:	70 e0       	ldi	r23, 0x00	; 0
    191e:	cb 01       	movw	r24, r22
    1920:	19 c0       	rjmp	.+50     	; 0x1954 <ir_decodeSony+0x140>
    1922:	f6 01       	movw	r30, r12
    1924:	84 82       	std	Z+4, r8	; 0x04
    1926:	95 82       	std	Z+5, r9	; 0x05
    1928:	a6 82       	std	Z+6, r10	; 0x06
    192a:	b7 82       	std	Z+7, r11	; 0x07
    192c:	82 e0       	ldi	r24, 0x02	; 2
    192e:	90 e0       	ldi	r25, 0x00	; 0
    1930:	91 83       	std	Z+1, r25	; 0x01
    1932:	80 83       	st	Z, r24
    1934:	61 e0       	ldi	r22, 0x01	; 1
    1936:	70 e0       	ldi	r23, 0x00	; 0
    1938:	80 e0       	ldi	r24, 0x00	; 0
    193a:	90 e0       	ldi	r25, 0x00	; 0
    193c:	0b c0       	rjmp	.+22     	; 0x1954 <ir_decodeSony+0x140>
    193e:	60 e0       	ldi	r22, 0x00	; 0
    1940:	70 e0       	ldi	r23, 0x00	; 0
    1942:	cb 01       	movw	r24, r22
    1944:	07 c0       	rjmp	.+14     	; 0x1954 <ir_decodeSony+0x140>
    1946:	60 e0       	ldi	r22, 0x00	; 0
    1948:	70 e0       	ldi	r23, 0x00	; 0
    194a:	cb 01       	movw	r24, r22
    194c:	03 c0       	rjmp	.+6      	; 0x1954 <ir_decodeSony+0x140>
    194e:	60 e0       	ldi	r22, 0x00	; 0
    1950:	70 e0       	ldi	r23, 0x00	; 0
    1952:	cb 01       	movw	r24, r22
    1954:	df 91       	pop	r29
    1956:	cf 91       	pop	r28
    1958:	1f 91       	pop	r17
    195a:	0f 91       	pop	r16
    195c:	ff 90       	pop	r15
    195e:	ef 90       	pop	r14
    1960:	df 90       	pop	r13
    1962:	cf 90       	pop	r12
    1964:	bf 90       	pop	r11
    1966:	af 90       	pop	r10
    1968:	9f 90       	pop	r9
    196a:	8f 90       	pop	r8
    196c:	08 95       	ret

0000196e <ir_decodeSanyo>:
    196e:	8f 92       	push	r8
    1970:	9f 92       	push	r9
    1972:	af 92       	push	r10
    1974:	bf 92       	push	r11
    1976:	cf 92       	push	r12
    1978:	df 92       	push	r13
    197a:	ef 92       	push	r14
    197c:	ff 92       	push	r15
    197e:	0f 93       	push	r16
    1980:	1f 93       	push	r17
    1982:	cf 93       	push	r28
    1984:	df 93       	push	r29
    1986:	20 91 d3 02 	lds	r18, 0x02D3	; 0x8002d3 <irparams+0xcc>
    198a:	30 91 d4 02 	lds	r19, 0x02D4	; 0x8002d4 <irparams+0xcd>
    198e:	2a 31       	cpi	r18, 0x1A	; 26
    1990:	31 05       	cpc	r19, r1
    1992:	08 f4       	brcc	.+2      	; 0x1996 <ir_decodeSanyo+0x28>
    1994:	8a c0       	rjmp	.+276    	; 0x1aaa <ir_decodeSanyo+0x13c>
    1996:	fc 01       	movw	r30, r24
    1998:	e2 84       	ldd	r14, Z+10	; 0x0a
    199a:	f3 84       	ldd	r15, Z+11	; 0x0b
    199c:	f7 01       	movw	r30, r14
    199e:	20 81       	ld	r18, Z
    19a0:	31 81       	ldd	r19, Z+1	; 0x01
    19a2:	20 32       	cpi	r18, 0x20	; 32
    19a4:	33 40       	sbci	r19, 0x03	; 3
    19a6:	98 f4       	brcc	.+38     	; 0x19ce <ir_decodeSanyo+0x60>
    19a8:	fc 01       	movw	r30, r24
    19aa:	11 86       	std	Z+9, r1	; 0x09
    19ac:	10 86       	std	Z+8, r1	; 0x08
    19ae:	4f ef       	ldi	r20, 0xFF	; 255
    19b0:	5f ef       	ldi	r21, 0xFF	; 255
    19b2:	ba 01       	movw	r22, r20
    19b4:	44 83       	std	Z+4, r20	; 0x04
    19b6:	55 83       	std	Z+5, r21	; 0x05
    19b8:	66 83       	std	Z+6, r22	; 0x06
    19ba:	77 83       	std	Z+7, r23	; 0x07
    19bc:	29 e0       	ldi	r18, 0x09	; 9
    19be:	30 e0       	ldi	r19, 0x00	; 0
    19c0:	31 83       	std	Z+1, r19	; 0x01
    19c2:	20 83       	st	Z, r18
    19c4:	61 e0       	ldi	r22, 0x01	; 1
    19c6:	70 e0       	ldi	r23, 0x00	; 0
    19c8:	80 e0       	ldi	r24, 0x00	; 0
    19ca:	90 e0       	ldi	r25, 0x00	; 0
    19cc:	7d c0       	rjmp	.+250    	; 0x1ac8 <ir_decodeSanyo+0x15a>
    19ce:	6c 01       	movw	r12, r24
    19d0:	f7 01       	movw	r30, r14
    19d2:	82 81       	ldd	r24, Z+2	; 0x02
    19d4:	93 81       	ldd	r25, Z+3	; 0x03
    19d6:	6c ea       	ldi	r22, 0xAC	; 172
    19d8:	7d e0       	ldi	r23, 0x0D	; 13
    19da:	7a dd       	rcall	.-1292   	; 0x14d0 <MATCH_MARK>
    19dc:	89 2b       	or	r24, r25
    19de:	09 f4       	brne	.+2      	; 0x19e2 <ir_decodeSanyo+0x74>
    19e0:	68 c0       	rjmp	.+208    	; 0x1ab2 <ir_decodeSanyo+0x144>
    19e2:	f7 01       	movw	r30, r14
    19e4:	84 81       	ldd	r24, Z+4	; 0x04
    19e6:	95 81       	ldd	r25, Z+5	; 0x05
    19e8:	6c ea       	ldi	r22, 0xAC	; 172
    19ea:	7d e0       	ldi	r23, 0x0D	; 13
    19ec:	71 dd       	rcall	.-1310   	; 0x14d0 <MATCH_MARK>
    19ee:	89 2b       	or	r24, r25
    19f0:	09 f4       	brne	.+2      	; 0x19f4 <ir_decodeSanyo+0x86>
    19f2:	63 c0       	rjmp	.+198    	; 0x1aba <ir_decodeSanyo+0x14c>
    19f4:	03 e0       	ldi	r16, 0x03	; 3
    19f6:	10 e0       	ldi	r17, 0x00	; 0
    19f8:	81 2c       	mov	r8, r1
    19fa:	91 2c       	mov	r9, r1
    19fc:	54 01       	movw	r10, r8
    19fe:	2b c0       	rjmp	.+86     	; 0x1a56 <ir_decodeSanyo+0xe8>
    1a00:	f8 01       	movw	r30, r16
    1a02:	ee 0f       	add	r30, r30
    1a04:	ff 1f       	adc	r31, r31
    1a06:	ee 0d       	add	r30, r14
    1a08:	ff 1d       	adc	r31, r15
    1a0a:	80 81       	ld	r24, Z
    1a0c:	91 81       	ldd	r25, Z+1	; 0x01
    1a0e:	66 eb       	ldi	r22, 0xB6	; 182
    1a10:	73 e0       	ldi	r23, 0x03	; 3
    1a12:	60 dd       	rcall	.-1344   	; 0x14d4 <MATCH_SPACE>
    1a14:	89 2b       	or	r24, r25
    1a16:	41 f1       	breq	.+80     	; 0x1a68 <ir_decodeSanyo+0xfa>
    1a18:	cc 0f       	add	r28, r28
    1a1a:	dd 1f       	adc	r29, r29
    1a1c:	ce 0d       	add	r28, r14
    1a1e:	df 1d       	adc	r29, r15
    1a20:	88 81       	ld	r24, Y
    1a22:	99 81       	ldd	r25, Y+1	; 0x01
    1a24:	60 e6       	ldi	r22, 0x60	; 96
    1a26:	79 e0       	ldi	r23, 0x09	; 9
    1a28:	53 dd       	rcall	.-1370   	; 0x14d0 <MATCH_MARK>
    1a2a:	89 2b       	or	r24, r25
    1a2c:	39 f0       	breq	.+14     	; 0x1a3c <ir_decodeSanyo+0xce>
    1a2e:	88 0c       	add	r8, r8
    1a30:	99 1c       	adc	r9, r9
    1a32:	aa 1c       	adc	r10, r10
    1a34:	bb 1c       	adc	r11, r11
    1a36:	68 94       	set
    1a38:	80 f8       	bld	r8, 0
    1a3a:	0b c0       	rjmp	.+22     	; 0x1a52 <ir_decodeSanyo+0xe4>
    1a3c:	88 81       	ld	r24, Y
    1a3e:	99 81       	ldd	r25, Y+1	; 0x01
    1a40:	6c eb       	ldi	r22, 0xBC	; 188
    1a42:	72 e0       	ldi	r23, 0x02	; 2
    1a44:	45 dd       	rcall	.-1398   	; 0x14d0 <MATCH_MARK>
    1a46:	89 2b       	or	r24, r25
    1a48:	e1 f1       	breq	.+120    	; 0x1ac2 <ir_decodeSanyo+0x154>
    1a4a:	88 0c       	add	r8, r8
    1a4c:	99 1c       	adc	r9, r9
    1a4e:	aa 1c       	adc	r10, r10
    1a50:	bb 1c       	adc	r11, r11
    1a52:	0e 5f       	subi	r16, 0xFE	; 254
    1a54:	1f 4f       	sbci	r17, 0xFF	; 255
    1a56:	e8 01       	movw	r28, r16
    1a58:	21 96       	adiw	r28, 0x01	; 1
    1a5a:	80 91 d3 02 	lds	r24, 0x02D3	; 0x8002d3 <irparams+0xcc>
    1a5e:	90 91 d4 02 	lds	r25, 0x02D4	; 0x8002d4 <irparams+0xcd>
    1a62:	c8 17       	cp	r28, r24
    1a64:	d9 07       	cpc	r29, r25
    1a66:	60 f2       	brcs	.-104    	; 0x1a00 <ir_decodeSanyo+0x92>
    1a68:	01 50       	subi	r16, 0x01	; 1
    1a6a:	11 09       	sbc	r17, r1
    1a6c:	c8 01       	movw	r24, r16
    1a6e:	99 23       	and	r25, r25
    1a70:	0c f4       	brge	.+2      	; 0x1a74 <ir_decodeSanyo+0x106>
    1a72:	01 96       	adiw	r24, 0x01	; 1
    1a74:	95 95       	asr	r25
    1a76:	87 95       	ror	r24
    1a78:	f6 01       	movw	r30, r12
    1a7a:	91 87       	std	Z+9, r25	; 0x09
    1a7c:	80 87       	std	Z+8, r24	; 0x08
    1a7e:	0c 97       	sbiw	r24, 0x0c	; 12
    1a80:	34 f4       	brge	.+12     	; 0x1a8e <ir_decodeSanyo+0x120>
    1a82:	11 86       	std	Z+9, r1	; 0x09
    1a84:	10 86       	std	Z+8, r1	; 0x08
    1a86:	60 e0       	ldi	r22, 0x00	; 0
    1a88:	70 e0       	ldi	r23, 0x00	; 0
    1a8a:	cb 01       	movw	r24, r22
    1a8c:	1d c0       	rjmp	.+58     	; 0x1ac8 <ir_decodeSanyo+0x15a>
    1a8e:	f6 01       	movw	r30, r12
    1a90:	84 82       	std	Z+4, r8	; 0x04
    1a92:	95 82       	std	Z+5, r9	; 0x05
    1a94:	a6 82       	std	Z+6, r10	; 0x06
    1a96:	b7 82       	std	Z+7, r11	; 0x07
    1a98:	89 e0       	ldi	r24, 0x09	; 9
    1a9a:	90 e0       	ldi	r25, 0x00	; 0
    1a9c:	91 83       	std	Z+1, r25	; 0x01
    1a9e:	80 83       	st	Z, r24
    1aa0:	61 e0       	ldi	r22, 0x01	; 1
    1aa2:	70 e0       	ldi	r23, 0x00	; 0
    1aa4:	80 e0       	ldi	r24, 0x00	; 0
    1aa6:	90 e0       	ldi	r25, 0x00	; 0
    1aa8:	0f c0       	rjmp	.+30     	; 0x1ac8 <ir_decodeSanyo+0x15a>
    1aaa:	60 e0       	ldi	r22, 0x00	; 0
    1aac:	70 e0       	ldi	r23, 0x00	; 0
    1aae:	cb 01       	movw	r24, r22
    1ab0:	0b c0       	rjmp	.+22     	; 0x1ac8 <ir_decodeSanyo+0x15a>
    1ab2:	60 e0       	ldi	r22, 0x00	; 0
    1ab4:	70 e0       	ldi	r23, 0x00	; 0
    1ab6:	cb 01       	movw	r24, r22
    1ab8:	07 c0       	rjmp	.+14     	; 0x1ac8 <ir_decodeSanyo+0x15a>
    1aba:	60 e0       	ldi	r22, 0x00	; 0
    1abc:	70 e0       	ldi	r23, 0x00	; 0
    1abe:	cb 01       	movw	r24, r22
    1ac0:	03 c0       	rjmp	.+6      	; 0x1ac8 <ir_decodeSanyo+0x15a>
    1ac2:	60 e0       	ldi	r22, 0x00	; 0
    1ac4:	70 e0       	ldi	r23, 0x00	; 0
    1ac6:	cb 01       	movw	r24, r22
    1ac8:	df 91       	pop	r29
    1aca:	cf 91       	pop	r28
    1acc:	1f 91       	pop	r17
    1ace:	0f 91       	pop	r16
    1ad0:	ff 90       	pop	r15
    1ad2:	ef 90       	pop	r14
    1ad4:	df 90       	pop	r13
    1ad6:	cf 90       	pop	r12
    1ad8:	bf 90       	pop	r11
    1ada:	af 90       	pop	r10
    1adc:	9f 90       	pop	r9
    1ade:	8f 90       	pop	r8
    1ae0:	08 95       	ret

00001ae2 <ir_decodeMitsubishi>:
    1ae2:	6f 92       	push	r6
    1ae4:	7f 92       	push	r7
    1ae6:	8f 92       	push	r8
    1ae8:	9f 92       	push	r9
    1aea:	af 92       	push	r10
    1aec:	bf 92       	push	r11
    1aee:	cf 92       	push	r12
    1af0:	df 92       	push	r13
    1af2:	ef 92       	push	r14
    1af4:	ff 92       	push	r15
    1af6:	0f 93       	push	r16
    1af8:	1f 93       	push	r17
    1afa:	cf 93       	push	r28
    1afc:	df 93       	push	r29
    1afe:	20 91 d3 02 	lds	r18, 0x02D3	; 0x8002d3 <irparams+0xcc>
    1b02:	30 91 d4 02 	lds	r19, 0x02D4	; 0x8002d4 <irparams+0xcd>
    1b06:	22 32       	cpi	r18, 0x22	; 34
    1b08:	31 05       	cpc	r19, r1
    1b0a:	08 f4       	brcc	.+2      	; 0x1b0e <ir_decodeMitsubishi+0x2c>
    1b0c:	6e c0       	rjmp	.+220    	; 0x1bea <ir_decodeMitsubishi+0x108>
    1b0e:	3c 01       	movw	r6, r24
    1b10:	fc 01       	movw	r30, r24
    1b12:	c2 84       	ldd	r12, Z+10	; 0x0a
    1b14:	d3 84       	ldd	r13, Z+11	; 0x0b
    1b16:	f6 01       	movw	r30, r12
    1b18:	82 81       	ldd	r24, Z+2	; 0x02
    1b1a:	93 81       	ldd	r25, Z+3	; 0x03
    1b1c:	6e e5       	ldi	r22, 0x5E	; 94
    1b1e:	71 e0       	ldi	r23, 0x01	; 1
    1b20:	d7 dc       	rcall	.-1618   	; 0x14d0 <MATCH_MARK>
    1b22:	89 2b       	or	r24, r25
    1b24:	09 f4       	brne	.+2      	; 0x1b28 <ir_decodeMitsubishi+0x46>
    1b26:	65 c0       	rjmp	.+202    	; 0x1bf2 <ir_decodeMitsubishi+0x110>
    1b28:	02 e0       	ldi	r16, 0x02	; 2
    1b2a:	10 e0       	ldi	r17, 0x00	; 0
    1b2c:	81 2c       	mov	r8, r1
    1b2e:	91 2c       	mov	r9, r1
    1b30:	54 01       	movw	r10, r8
    1b32:	2d c0       	rjmp	.+90     	; 0x1b8e <ir_decodeMitsubishi+0xac>
    1b34:	e8 01       	movw	r28, r16
    1b36:	cc 0f       	add	r28, r28
    1b38:	dd 1f       	adc	r29, r29
    1b3a:	cc 0d       	add	r28, r12
    1b3c:	dd 1d       	adc	r29, r13
    1b3e:	88 81       	ld	r24, Y
    1b40:	99 81       	ldd	r25, Y+1	; 0x01
    1b42:	6e e9       	ldi	r22, 0x9E	; 158
    1b44:	77 e0       	ldi	r23, 0x07	; 7
    1b46:	c4 dc       	rcall	.-1656   	; 0x14d0 <MATCH_MARK>
    1b48:	89 2b       	or	r24, r25
    1b4a:	39 f0       	breq	.+14     	; 0x1b5a <ir_decodeMitsubishi+0x78>
    1b4c:	88 0c       	add	r8, r8
    1b4e:	99 1c       	adc	r9, r9
    1b50:	aa 1c       	adc	r10, r10
    1b52:	bb 1c       	adc	r11, r11
    1b54:	68 94       	set
    1b56:	80 f8       	bld	r8, 0
    1b58:	0c c0       	rjmp	.+24     	; 0x1b72 <ir_decodeMitsubishi+0x90>
    1b5a:	88 81       	ld	r24, Y
    1b5c:	99 81       	ldd	r25, Y+1	; 0x01
    1b5e:	6e ee       	ldi	r22, 0xEE	; 238
    1b60:	72 e0       	ldi	r23, 0x02	; 2
    1b62:	b6 dc       	rcall	.-1684   	; 0x14d0 <MATCH_MARK>
    1b64:	89 2b       	or	r24, r25
    1b66:	09 f4       	brne	.+2      	; 0x1b6a <ir_decodeMitsubishi+0x88>
    1b68:	48 c0       	rjmp	.+144    	; 0x1bfa <ir_decodeMitsubishi+0x118>
    1b6a:	88 0c       	add	r8, r8
    1b6c:	99 1c       	adc	r9, r9
    1b6e:	aa 1c       	adc	r10, r10
    1b70:	bb 1c       	adc	r11, r11
    1b72:	f7 01       	movw	r30, r14
    1b74:	ee 0f       	add	r30, r30
    1b76:	ff 1f       	adc	r31, r31
    1b78:	ec 0d       	add	r30, r12
    1b7a:	fd 1d       	adc	r31, r13
    1b7c:	80 81       	ld	r24, Z
    1b7e:	91 81       	ldd	r25, Z+1	; 0x01
    1b80:	6e e5       	ldi	r22, 0x5E	; 94
    1b82:	71 e0       	ldi	r23, 0x01	; 1
    1b84:	a7 dc       	rcall	.-1714   	; 0x14d4 <MATCH_SPACE>
    1b86:	89 2b       	or	r24, r25
    1b88:	71 f0       	breq	.+28     	; 0x1ba6 <ir_decodeMitsubishi+0xc4>
    1b8a:	0e 5f       	subi	r16, 0xFE	; 254
    1b8c:	1f 4f       	sbci	r17, 0xFF	; 255
    1b8e:	78 01       	movw	r14, r16
    1b90:	ff ef       	ldi	r31, 0xFF	; 255
    1b92:	ef 1a       	sub	r14, r31
    1b94:	ff 0a       	sbc	r15, r31
    1b96:	80 91 d3 02 	lds	r24, 0x02D3	; 0x8002d3 <irparams+0xcc>
    1b9a:	90 91 d4 02 	lds	r25, 0x02D4	; 0x8002d4 <irparams+0xcd>
    1b9e:	e8 16       	cp	r14, r24
    1ba0:	f9 06       	cpc	r15, r25
    1ba2:	40 f2       	brcs	.-112    	; 0x1b34 <ir_decodeMitsubishi+0x52>
    1ba4:	01 c0       	rjmp	.+2      	; 0x1ba8 <ir_decodeMitsubishi+0xc6>
    1ba6:	87 01       	movw	r16, r14
    1ba8:	01 50       	subi	r16, 0x01	; 1
    1baa:	11 09       	sbc	r17, r1
    1bac:	c8 01       	movw	r24, r16
    1bae:	99 23       	and	r25, r25
    1bb0:	0c f4       	brge	.+2      	; 0x1bb4 <ir_decodeMitsubishi+0xd2>
    1bb2:	01 96       	adiw	r24, 0x01	; 1
    1bb4:	95 95       	asr	r25
    1bb6:	87 95       	ror	r24
    1bb8:	f3 01       	movw	r30, r6
    1bba:	91 87       	std	Z+9, r25	; 0x09
    1bbc:	80 87       	std	Z+8, r24	; 0x08
    1bbe:	40 97       	sbiw	r24, 0x10	; 16
    1bc0:	34 f4       	brge	.+12     	; 0x1bce <ir_decodeMitsubishi+0xec>
    1bc2:	11 86       	std	Z+9, r1	; 0x09
    1bc4:	10 86       	std	Z+8, r1	; 0x08
    1bc6:	60 e0       	ldi	r22, 0x00	; 0
    1bc8:	70 e0       	ldi	r23, 0x00	; 0
    1bca:	cb 01       	movw	r24, r22
    1bcc:	19 c0       	rjmp	.+50     	; 0x1c00 <ir_decodeMitsubishi+0x11e>
    1bce:	f3 01       	movw	r30, r6
    1bd0:	84 82       	std	Z+4, r8	; 0x04
    1bd2:	95 82       	std	Z+5, r9	; 0x05
    1bd4:	a6 82       	std	Z+6, r10	; 0x06
    1bd6:	b7 82       	std	Z+7, r11	; 0x07
    1bd8:	8a e0       	ldi	r24, 0x0A	; 10
    1bda:	90 e0       	ldi	r25, 0x00	; 0
    1bdc:	91 83       	std	Z+1, r25	; 0x01
    1bde:	80 83       	st	Z, r24
    1be0:	61 e0       	ldi	r22, 0x01	; 1
    1be2:	70 e0       	ldi	r23, 0x00	; 0
    1be4:	80 e0       	ldi	r24, 0x00	; 0
    1be6:	90 e0       	ldi	r25, 0x00	; 0
    1be8:	0b c0       	rjmp	.+22     	; 0x1c00 <ir_decodeMitsubishi+0x11e>
    1bea:	60 e0       	ldi	r22, 0x00	; 0
    1bec:	70 e0       	ldi	r23, 0x00	; 0
    1bee:	cb 01       	movw	r24, r22
    1bf0:	07 c0       	rjmp	.+14     	; 0x1c00 <ir_decodeMitsubishi+0x11e>
    1bf2:	60 e0       	ldi	r22, 0x00	; 0
    1bf4:	70 e0       	ldi	r23, 0x00	; 0
    1bf6:	cb 01       	movw	r24, r22
    1bf8:	03 c0       	rjmp	.+6      	; 0x1c00 <ir_decodeMitsubishi+0x11e>
    1bfa:	60 e0       	ldi	r22, 0x00	; 0
    1bfc:	70 e0       	ldi	r23, 0x00	; 0
    1bfe:	cb 01       	movw	r24, r22
    1c00:	df 91       	pop	r29
    1c02:	cf 91       	pop	r28
    1c04:	1f 91       	pop	r17
    1c06:	0f 91       	pop	r16
    1c08:	ff 90       	pop	r15
    1c0a:	ef 90       	pop	r14
    1c0c:	df 90       	pop	r13
    1c0e:	cf 90       	pop	r12
    1c10:	bf 90       	pop	r11
    1c12:	af 90       	pop	r10
    1c14:	9f 90       	pop	r9
    1c16:	8f 90       	pop	r8
    1c18:	7f 90       	pop	r7
    1c1a:	6f 90       	pop	r6
    1c1c:	08 95       	ret

00001c1e <ir_decodeRC6>:
    1c1e:	4f 92       	push	r4
    1c20:	5f 92       	push	r5
    1c22:	6f 92       	push	r6
    1c24:	7f 92       	push	r7
    1c26:	af 92       	push	r10
    1c28:	bf 92       	push	r11
    1c2a:	cf 92       	push	r12
    1c2c:	df 92       	push	r13
    1c2e:	ef 92       	push	r14
    1c30:	ff 92       	push	r15
    1c32:	0f 93       	push	r16
    1c34:	1f 93       	push	r17
    1c36:	cf 93       	push	r28
    1c38:	df 93       	push	r29
    1c3a:	00 d0       	rcall	.+0      	; 0x1c3c <ir_decodeRC6+0x1e>
    1c3c:	00 d0       	rcall	.+0      	; 0x1c3e <ir_decodeRC6+0x20>
    1c3e:	cd b7       	in	r28, 0x3d	; 61
    1c40:	de b7       	in	r29, 0x3e	; 62
    1c42:	21 e0       	ldi	r18, 0x01	; 1
    1c44:	30 e0       	ldi	r19, 0x00	; 0
    1c46:	3a 83       	std	Y+2, r19	; 0x02
    1c48:	29 83       	std	Y+1, r18	; 0x01
    1c4a:	1c 82       	std	Y+4, r1	; 0x04
    1c4c:	1b 82       	std	Y+3, r1	; 0x03
    1c4e:	fc 01       	movw	r30, r24
    1c50:	24 85       	ldd	r18, Z+12	; 0x0c
    1c52:	35 85       	ldd	r19, Z+13	; 0x0d
    1c54:	12 16       	cp	r1, r18
    1c56:	13 06       	cpc	r1, r19
    1c58:	0c f0       	brlt	.+2      	; 0x1c5c <ir_decodeRC6+0x3e>
    1c5a:	aa c0       	rjmp	.+340    	; 0x1db0 <ir_decodeRC6+0x192>
    1c5c:	8c 01       	movw	r16, r24
    1c5e:	e2 84       	ldd	r14, Z+10	; 0x0a
    1c60:	f3 84       	ldd	r15, Z+11	; 0x0b
    1c62:	f7 01       	movw	r30, r14
    1c64:	82 81       	ldd	r24, Z+2	; 0x02
    1c66:	93 81       	ldd	r25, Z+3	; 0x03
    1c68:	6a e6       	ldi	r22, 0x6A	; 106
    1c6a:	7a e0       	ldi	r23, 0x0A	; 10
    1c6c:	31 dc       	rcall	.-1950   	; 0x14d0 <MATCH_MARK>
    1c6e:	89 2b       	or	r24, r25
    1c70:	09 f4       	brne	.+2      	; 0x1c74 <ir_decodeRC6+0x56>
    1c72:	a2 c0       	rjmp	.+324    	; 0x1db8 <ir_decodeRC6+0x19a>
    1c74:	82 e0       	ldi	r24, 0x02	; 2
    1c76:	90 e0       	ldi	r25, 0x00	; 0
    1c78:	9a 83       	std	Y+2, r25	; 0x02
    1c7a:	89 83       	std	Y+1, r24	; 0x01
    1c7c:	f7 01       	movw	r30, r14
    1c7e:	84 81       	ldd	r24, Z+4	; 0x04
    1c80:	95 81       	ldd	r25, Z+5	; 0x05
    1c82:	69 e7       	ldi	r22, 0x79	; 121
    1c84:	73 e0       	ldi	r23, 0x03	; 3
    1c86:	26 dc       	rcall	.-1972   	; 0x14d4 <MATCH_SPACE>
    1c88:	89 2b       	or	r24, r25
    1c8a:	09 f4       	brne	.+2      	; 0x1c8e <ir_decodeRC6+0x70>
    1c8c:	99 c0       	rjmp	.+306    	; 0x1dc0 <ir_decodeRC6+0x1a2>
    1c8e:	83 e0       	ldi	r24, 0x03	; 3
    1c90:	90 e0       	ldi	r25, 0x00	; 0
    1c92:	9a 83       	std	Y+2, r25	; 0x02
    1c94:	89 83       	std	Y+1, r24	; 0x01
    1c96:	2c eb       	ldi	r18, 0xBC	; 188
    1c98:	31 e0       	ldi	r19, 0x01	; 1
    1c9a:	ae 01       	movw	r20, r28
    1c9c:	4d 5f       	subi	r20, 0xFD	; 253
    1c9e:	5f 4f       	sbci	r21, 0xFF	; 255
    1ca0:	be 01       	movw	r22, r28
    1ca2:	6f 5f       	subi	r22, 0xFF	; 255
    1ca4:	7f 4f       	sbci	r23, 0xFF	; 255
    1ca6:	c8 01       	movw	r24, r16
    1ca8:	f1 da       	rcall	.-2590   	; 0x128c <ir_getRClevel>
    1caa:	01 97       	sbiw	r24, 0x01	; 1
    1cac:	09 f0       	breq	.+2      	; 0x1cb0 <ir_decodeRC6+0x92>
    1cae:	8c c0       	rjmp	.+280    	; 0x1dc8 <ir_decodeRC6+0x1aa>
    1cb0:	2c eb       	ldi	r18, 0xBC	; 188
    1cb2:	31 e0       	ldi	r19, 0x01	; 1
    1cb4:	ae 01       	movw	r20, r28
    1cb6:	4d 5f       	subi	r20, 0xFD	; 253
    1cb8:	5f 4f       	sbci	r21, 0xFF	; 255
    1cba:	be 01       	movw	r22, r28
    1cbc:	6f 5f       	subi	r22, 0xFF	; 255
    1cbe:	7f 4f       	sbci	r23, 0xFF	; 255
    1cc0:	c8 01       	movw	r24, r16
    1cc2:	e4 da       	rcall	.-2616   	; 0x128c <ir_getRClevel>
    1cc4:	89 2b       	or	r24, r25
    1cc6:	09 f0       	breq	.+2      	; 0x1cca <ir_decodeRC6+0xac>
    1cc8:	83 c0       	rjmp	.+262    	; 0x1dd0 <ir_decodeRC6+0x1b2>
    1cca:	e1 2c       	mov	r14, r1
    1ccc:	f1 2c       	mov	r15, r1
    1cce:	41 2c       	mov	r4, r1
    1cd0:	51 2c       	mov	r5, r1
    1cd2:	32 01       	movw	r6, r4
    1cd4:	55 c0       	rjmp	.+170    	; 0x1d80 <ir_decodeRC6+0x162>
    1cd6:	2c eb       	ldi	r18, 0xBC	; 188
    1cd8:	31 e0       	ldi	r19, 0x01	; 1
    1cda:	ae 01       	movw	r20, r28
    1cdc:	4d 5f       	subi	r20, 0xFD	; 253
    1cde:	5f 4f       	sbci	r21, 0xFF	; 255
    1ce0:	be 01       	movw	r22, r28
    1ce2:	6f 5f       	subi	r22, 0xFF	; 255
    1ce4:	7f 4f       	sbci	r23, 0xFF	; 255
    1ce6:	c8 01       	movw	r24, r16
    1ce8:	d1 da       	rcall	.-2654   	; 0x128c <ir_getRClevel>
    1cea:	5c 01       	movw	r10, r24
    1cec:	f3 e0       	ldi	r31, 0x03	; 3
    1cee:	ef 16       	cp	r14, r31
    1cf0:	f1 04       	cpc	r15, r1
    1cf2:	71 f4       	brne	.+28     	; 0x1d10 <ir_decodeRC6+0xf2>
    1cf4:	2c eb       	ldi	r18, 0xBC	; 188
    1cf6:	31 e0       	ldi	r19, 0x01	; 1
    1cf8:	ae 01       	movw	r20, r28
    1cfa:	4d 5f       	subi	r20, 0xFD	; 253
    1cfc:	5f 4f       	sbci	r21, 0xFF	; 255
    1cfe:	be 01       	movw	r22, r28
    1d00:	6f 5f       	subi	r22, 0xFF	; 255
    1d02:	7f 4f       	sbci	r23, 0xFF	; 255
    1d04:	c8 01       	movw	r24, r16
    1d06:	c2 da       	rcall	.-2684   	; 0x128c <ir_getRClevel>
    1d08:	a8 16       	cp	r10, r24
    1d0a:	b9 06       	cpc	r11, r25
    1d0c:	09 f0       	breq	.+2      	; 0x1d10 <ir_decodeRC6+0xf2>
    1d0e:	64 c0       	rjmp	.+200    	; 0x1dd8 <ir_decodeRC6+0x1ba>
    1d10:	2c eb       	ldi	r18, 0xBC	; 188
    1d12:	31 e0       	ldi	r19, 0x01	; 1
    1d14:	ae 01       	movw	r20, r28
    1d16:	4d 5f       	subi	r20, 0xFD	; 253
    1d18:	5f 4f       	sbci	r21, 0xFF	; 255
    1d1a:	be 01       	movw	r22, r28
    1d1c:	6f 5f       	subi	r22, 0xFF	; 255
    1d1e:	7f 4f       	sbci	r23, 0xFF	; 255
    1d20:	c8 01       	movw	r24, r16
    1d22:	b4 da       	rcall	.-2712   	; 0x128c <ir_getRClevel>
    1d24:	6c 01       	movw	r12, r24
    1d26:	83 e0       	ldi	r24, 0x03	; 3
    1d28:	e8 16       	cp	r14, r24
    1d2a:	f1 04       	cpc	r15, r1
    1d2c:	71 f4       	brne	.+28     	; 0x1d4a <ir_decodeRC6+0x12c>
    1d2e:	2c eb       	ldi	r18, 0xBC	; 188
    1d30:	31 e0       	ldi	r19, 0x01	; 1
    1d32:	ae 01       	movw	r20, r28
    1d34:	4d 5f       	subi	r20, 0xFD	; 253
    1d36:	5f 4f       	sbci	r21, 0xFF	; 255
    1d38:	be 01       	movw	r22, r28
    1d3a:	6f 5f       	subi	r22, 0xFF	; 255
    1d3c:	7f 4f       	sbci	r23, 0xFF	; 255
    1d3e:	c8 01       	movw	r24, r16
    1d40:	a5 da       	rcall	.-2742   	; 0x128c <ir_getRClevel>
    1d42:	c8 16       	cp	r12, r24
    1d44:	d9 06       	cpc	r13, r25
    1d46:	09 f0       	breq	.+2      	; 0x1d4a <ir_decodeRC6+0x12c>
    1d48:	4b c0       	rjmp	.+150    	; 0x1de0 <ir_decodeRC6+0x1c2>
    1d4a:	e1 e0       	ldi	r30, 0x01	; 1
    1d4c:	ae 16       	cp	r10, r30
    1d4e:	b1 04       	cpc	r11, r1
    1d50:	51 f4       	brne	.+20     	; 0x1d66 <ir_decodeRC6+0x148>
    1d52:	c1 14       	cp	r12, r1
    1d54:	d1 04       	cpc	r13, r1
    1d56:	39 f4       	brne	.+14     	; 0x1d66 <ir_decodeRC6+0x148>
    1d58:	44 0c       	add	r4, r4
    1d5a:	55 1c       	adc	r5, r5
    1d5c:	66 1c       	adc	r6, r6
    1d5e:	77 1c       	adc	r7, r7
    1d60:	68 94       	set
    1d62:	40 f8       	bld	r4, 0
    1d64:	0a c0       	rjmp	.+20     	; 0x1d7a <ir_decodeRC6+0x15c>
    1d66:	ab 28       	or	r10, r11
    1d68:	f9 f5       	brne	.+126    	; 0x1de8 <ir_decodeRC6+0x1ca>
    1d6a:	ca 94       	dec	r12
    1d6c:	cd 28       	or	r12, r13
    1d6e:	09 f0       	breq	.+2      	; 0x1d72 <ir_decodeRC6+0x154>
    1d70:	3f c0       	rjmp	.+126    	; 0x1df0 <ir_decodeRC6+0x1d2>
    1d72:	44 0c       	add	r4, r4
    1d74:	55 1c       	adc	r5, r5
    1d76:	66 1c       	adc	r6, r6
    1d78:	77 1c       	adc	r7, r7
    1d7a:	8f ef       	ldi	r24, 0xFF	; 255
    1d7c:	e8 1a       	sub	r14, r24
    1d7e:	f8 0a       	sbc	r15, r24
    1d80:	f8 01       	movw	r30, r16
    1d82:	24 85       	ldd	r18, Z+12	; 0x0c
    1d84:	35 85       	ldd	r19, Z+13	; 0x0d
    1d86:	89 81       	ldd	r24, Y+1	; 0x01
    1d88:	9a 81       	ldd	r25, Y+2	; 0x02
    1d8a:	82 17       	cp	r24, r18
    1d8c:	93 07       	cpc	r25, r19
    1d8e:	0c f4       	brge	.+2      	; 0x1d92 <ir_decodeRC6+0x174>
    1d90:	a2 cf       	rjmp	.-188    	; 0x1cd6 <ir_decodeRC6+0xb8>
    1d92:	f1 86       	std	Z+9, r15	; 0x09
    1d94:	e0 86       	std	Z+8, r14	; 0x08
    1d96:	44 82       	std	Z+4, r4	; 0x04
    1d98:	55 82       	std	Z+5, r5	; 0x05
    1d9a:	66 82       	std	Z+6, r6	; 0x06
    1d9c:	77 82       	std	Z+7, r7	; 0x07
    1d9e:	84 e0       	ldi	r24, 0x04	; 4
    1da0:	90 e0       	ldi	r25, 0x00	; 0
    1da2:	91 83       	std	Z+1, r25	; 0x01
    1da4:	80 83       	st	Z, r24
    1da6:	61 e0       	ldi	r22, 0x01	; 1
    1da8:	70 e0       	ldi	r23, 0x00	; 0
    1daa:	80 e0       	ldi	r24, 0x00	; 0
    1dac:	90 e0       	ldi	r25, 0x00	; 0
    1dae:	23 c0       	rjmp	.+70     	; 0x1df6 <ir_decodeRC6+0x1d8>
    1db0:	60 e0       	ldi	r22, 0x00	; 0
    1db2:	70 e0       	ldi	r23, 0x00	; 0
    1db4:	cb 01       	movw	r24, r22
    1db6:	1f c0       	rjmp	.+62     	; 0x1df6 <ir_decodeRC6+0x1d8>
    1db8:	60 e0       	ldi	r22, 0x00	; 0
    1dba:	70 e0       	ldi	r23, 0x00	; 0
    1dbc:	cb 01       	movw	r24, r22
    1dbe:	1b c0       	rjmp	.+54     	; 0x1df6 <ir_decodeRC6+0x1d8>
    1dc0:	60 e0       	ldi	r22, 0x00	; 0
    1dc2:	70 e0       	ldi	r23, 0x00	; 0
    1dc4:	cb 01       	movw	r24, r22
    1dc6:	17 c0       	rjmp	.+46     	; 0x1df6 <ir_decodeRC6+0x1d8>
    1dc8:	60 e0       	ldi	r22, 0x00	; 0
    1dca:	70 e0       	ldi	r23, 0x00	; 0
    1dcc:	cb 01       	movw	r24, r22
    1dce:	13 c0       	rjmp	.+38     	; 0x1df6 <ir_decodeRC6+0x1d8>
    1dd0:	60 e0       	ldi	r22, 0x00	; 0
    1dd2:	70 e0       	ldi	r23, 0x00	; 0
    1dd4:	cb 01       	movw	r24, r22
    1dd6:	0f c0       	rjmp	.+30     	; 0x1df6 <ir_decodeRC6+0x1d8>
    1dd8:	60 e0       	ldi	r22, 0x00	; 0
    1dda:	70 e0       	ldi	r23, 0x00	; 0
    1ddc:	cb 01       	movw	r24, r22
    1dde:	0b c0       	rjmp	.+22     	; 0x1df6 <ir_decodeRC6+0x1d8>
    1de0:	60 e0       	ldi	r22, 0x00	; 0
    1de2:	70 e0       	ldi	r23, 0x00	; 0
    1de4:	cb 01       	movw	r24, r22
    1de6:	07 c0       	rjmp	.+14     	; 0x1df6 <ir_decodeRC6+0x1d8>
    1de8:	60 e0       	ldi	r22, 0x00	; 0
    1dea:	70 e0       	ldi	r23, 0x00	; 0
    1dec:	cb 01       	movw	r24, r22
    1dee:	03 c0       	rjmp	.+6      	; 0x1df6 <ir_decodeRC6+0x1d8>
    1df0:	60 e0       	ldi	r22, 0x00	; 0
    1df2:	70 e0       	ldi	r23, 0x00	; 0
    1df4:	cb 01       	movw	r24, r22
    1df6:	0f 90       	pop	r0
    1df8:	0f 90       	pop	r0
    1dfa:	0f 90       	pop	r0
    1dfc:	0f 90       	pop	r0
    1dfe:	df 91       	pop	r29
    1e00:	cf 91       	pop	r28
    1e02:	1f 91       	pop	r17
    1e04:	0f 91       	pop	r16
    1e06:	ff 90       	pop	r15
    1e08:	ef 90       	pop	r14
    1e0a:	df 90       	pop	r13
    1e0c:	cf 90       	pop	r12
    1e0e:	bf 90       	pop	r11
    1e10:	af 90       	pop	r10
    1e12:	7f 90       	pop	r7
    1e14:	6f 90       	pop	r6
    1e16:	5f 90       	pop	r5
    1e18:	4f 90       	pop	r4
    1e1a:	08 95       	ret

00001e1c <ir_decodePanasonic>:
    1e1c:	6f 92       	push	r6
    1e1e:	7f 92       	push	r7
    1e20:	8f 92       	push	r8
    1e22:	9f 92       	push	r9
    1e24:	af 92       	push	r10
    1e26:	bf 92       	push	r11
    1e28:	cf 92       	push	r12
    1e2a:	df 92       	push	r13
    1e2c:	ef 92       	push	r14
    1e2e:	ff 92       	push	r15
    1e30:	0f 93       	push	r16
    1e32:	1f 93       	push	r17
    1e34:	cf 93       	push	r28
    1e36:	df 93       	push	r29
    1e38:	4c 01       	movw	r8, r24
    1e3a:	fc 01       	movw	r30, r24
    1e3c:	02 85       	ldd	r16, Z+10	; 0x0a
    1e3e:	13 85       	ldd	r17, Z+11	; 0x0b
    1e40:	f8 01       	movw	r30, r16
    1e42:	82 81       	ldd	r24, Z+2	; 0x02
    1e44:	93 81       	ldd	r25, Z+3	; 0x03
    1e46:	6e ea       	ldi	r22, 0xAE	; 174
    1e48:	7d e0       	ldi	r23, 0x0D	; 13
    1e4a:	42 db       	rcall	.-2428   	; 0x14d0 <MATCH_MARK>
    1e4c:	89 2b       	or	r24, r25
    1e4e:	09 f4       	brne	.+2      	; 0x1e52 <ir_decodePanasonic+0x36>
    1e50:	9a c0       	rjmp	.+308    	; 0x1f86 <ir_decodePanasonic+0x16a>
    1e52:	f8 01       	movw	r30, r16
    1e54:	84 81       	ldd	r24, Z+4	; 0x04
    1e56:	95 81       	ldd	r25, Z+5	; 0x05
    1e58:	66 ed       	ldi	r22, 0xD6	; 214
    1e5a:	76 e0       	ldi	r23, 0x06	; 6
    1e5c:	39 db       	rcall	.-2446   	; 0x14d0 <MATCH_MARK>
    1e5e:	89 2b       	or	r24, r25
    1e60:	09 f4       	brne	.+2      	; 0x1e64 <ir_decodePanasonic+0x48>
    1e62:	95 c0       	rjmp	.+298    	; 0x1f8e <ir_decodePanasonic+0x172>
    1e64:	61 2c       	mov	r6, r1
    1e66:	71 2c       	mov	r7, r1
    1e68:	c3 e0       	ldi	r28, 0x03	; 3
    1e6a:	d0 e0       	ldi	r29, 0x00	; 0
    1e6c:	c1 2c       	mov	r12, r1
    1e6e:	d1 2c       	mov	r13, r1
    1e70:	76 01       	movw	r14, r12
    1e72:	35 c0       	rjmp	.+106    	; 0x1ede <ir_decodePanasonic+0xc2>
    1e74:	5e 01       	movw	r10, r28
    1e76:	ff ef       	ldi	r31, 0xFF	; 255
    1e78:	af 1a       	sub	r10, r31
    1e7a:	bf 0a       	sbc	r11, r31
    1e7c:	fe 01       	movw	r30, r28
    1e7e:	ee 0f       	add	r30, r30
    1e80:	ff 1f       	adc	r31, r31
    1e82:	e0 0f       	add	r30, r16
    1e84:	f1 1f       	adc	r31, r17
    1e86:	80 81       	ld	r24, Z
    1e88:	91 81       	ldd	r25, Z+1	; 0x01
    1e8a:	66 ef       	ldi	r22, 0xF6	; 246
    1e8c:	71 e0       	ldi	r23, 0x01	; 1
    1e8e:	20 db       	rcall	.-2496   	; 0x14d0 <MATCH_MARK>
    1e90:	89 2b       	or	r24, r25
    1e92:	09 f4       	brne	.+2      	; 0x1e96 <ir_decodePanasonic+0x7a>
    1e94:	80 c0       	rjmp	.+256    	; 0x1f96 <ir_decodePanasonic+0x17a>
    1e96:	aa 0c       	add	r10, r10
    1e98:	bb 1c       	adc	r11, r11
    1e9a:	a0 0e       	add	r10, r16
    1e9c:	b1 1e       	adc	r11, r17
    1e9e:	f5 01       	movw	r30, r10
    1ea0:	80 81       	ld	r24, Z
    1ea2:	91 81       	ldd	r25, Z+1	; 0x01
    1ea4:	6c ed       	ldi	r22, 0xDC	; 220
    1ea6:	74 e0       	ldi	r23, 0x04	; 4
    1ea8:	15 db       	rcall	.-2518   	; 0x14d4 <MATCH_SPACE>
    1eaa:	89 2b       	or	r24, r25
    1eac:	39 f0       	breq	.+14     	; 0x1ebc <ir_decodePanasonic+0xa0>
    1eae:	cc 0c       	add	r12, r12
    1eb0:	dd 1c       	adc	r13, r13
    1eb2:	ee 1c       	adc	r14, r14
    1eb4:	ff 1c       	adc	r15, r15
    1eb6:	68 94       	set
    1eb8:	c0 f8       	bld	r12, 0
    1eba:	0d c0       	rjmp	.+26     	; 0x1ed6 <ir_decodePanasonic+0xba>
    1ebc:	f5 01       	movw	r30, r10
    1ebe:	80 81       	ld	r24, Z
    1ec0:	91 81       	ldd	r25, Z+1	; 0x01
    1ec2:	60 e9       	ldi	r22, 0x90	; 144
    1ec4:	71 e0       	ldi	r23, 0x01	; 1
    1ec6:	06 db       	rcall	.-2548   	; 0x14d4 <MATCH_SPACE>
    1ec8:	89 2b       	or	r24, r25
    1eca:	09 f4       	brne	.+2      	; 0x1ece <ir_decodePanasonic+0xb2>
    1ecc:	68 c0       	rjmp	.+208    	; 0x1f9e <ir_decodePanasonic+0x182>
    1ece:	cc 0c       	add	r12, r12
    1ed0:	dd 1c       	adc	r13, r13
    1ed2:	ee 1c       	adc	r14, r14
    1ed4:	ff 1c       	adc	r15, r15
    1ed6:	22 96       	adiw	r28, 0x02	; 2
    1ed8:	ff ef       	ldi	r31, 0xFF	; 255
    1eda:	6f 1a       	sub	r6, r31
    1edc:	7f 0a       	sbc	r7, r31
    1ede:	80 e1       	ldi	r24, 0x10	; 16
    1ee0:	68 16       	cp	r6, r24
    1ee2:	71 04       	cpc	r7, r1
    1ee4:	3c f2       	brlt	.-114    	; 0x1e74 <ir_decodePanasonic+0x58>
    1ee6:	f4 01       	movw	r30, r8
    1ee8:	d3 82       	std	Z+3, r13	; 0x03
    1eea:	c2 82       	std	Z+2, r12	; 0x02
    1eec:	61 2c       	mov	r6, r1
    1eee:	71 2c       	mov	r7, r1
    1ef0:	34 c0       	rjmp	.+104    	; 0x1f5a <ir_decodePanasonic+0x13e>
    1ef2:	5e 01       	movw	r10, r28
    1ef4:	ff ef       	ldi	r31, 0xFF	; 255
    1ef6:	af 1a       	sub	r10, r31
    1ef8:	bf 0a       	sbc	r11, r31
    1efa:	fe 01       	movw	r30, r28
    1efc:	ee 0f       	add	r30, r30
    1efe:	ff 1f       	adc	r31, r31
    1f00:	e0 0f       	add	r30, r16
    1f02:	f1 1f       	adc	r31, r17
    1f04:	80 81       	ld	r24, Z
    1f06:	91 81       	ldd	r25, Z+1	; 0x01
    1f08:	66 ef       	ldi	r22, 0xF6	; 246
    1f0a:	71 e0       	ldi	r23, 0x01	; 1
    1f0c:	e1 da       	rcall	.-2622   	; 0x14d0 <MATCH_MARK>
    1f0e:	89 2b       	or	r24, r25
    1f10:	09 f4       	brne	.+2      	; 0x1f14 <ir_decodePanasonic+0xf8>
    1f12:	49 c0       	rjmp	.+146    	; 0x1fa6 <ir_decodePanasonic+0x18a>
    1f14:	aa 0c       	add	r10, r10
    1f16:	bb 1c       	adc	r11, r11
    1f18:	a0 0e       	add	r10, r16
    1f1a:	b1 1e       	adc	r11, r17
    1f1c:	f5 01       	movw	r30, r10
    1f1e:	80 81       	ld	r24, Z
    1f20:	91 81       	ldd	r25, Z+1	; 0x01
    1f22:	6c ed       	ldi	r22, 0xDC	; 220
    1f24:	74 e0       	ldi	r23, 0x04	; 4
    1f26:	d6 da       	rcall	.-2644   	; 0x14d4 <MATCH_SPACE>
    1f28:	89 2b       	or	r24, r25
    1f2a:	39 f0       	breq	.+14     	; 0x1f3a <ir_decodePanasonic+0x11e>
    1f2c:	cc 0c       	add	r12, r12
    1f2e:	dd 1c       	adc	r13, r13
    1f30:	ee 1c       	adc	r14, r14
    1f32:	ff 1c       	adc	r15, r15
    1f34:	68 94       	set
    1f36:	c0 f8       	bld	r12, 0
    1f38:	0c c0       	rjmp	.+24     	; 0x1f52 <ir_decodePanasonic+0x136>
    1f3a:	f5 01       	movw	r30, r10
    1f3c:	80 81       	ld	r24, Z
    1f3e:	91 81       	ldd	r25, Z+1	; 0x01
    1f40:	60 e9       	ldi	r22, 0x90	; 144
    1f42:	71 e0       	ldi	r23, 0x01	; 1
    1f44:	c7 da       	rcall	.-2674   	; 0x14d4 <MATCH_SPACE>
    1f46:	89 2b       	or	r24, r25
    1f48:	91 f1       	breq	.+100    	; 0x1fae <ir_decodePanasonic+0x192>
    1f4a:	cc 0c       	add	r12, r12
    1f4c:	dd 1c       	adc	r13, r13
    1f4e:	ee 1c       	adc	r14, r14
    1f50:	ff 1c       	adc	r15, r15
    1f52:	22 96       	adiw	r28, 0x02	; 2
    1f54:	ff ef       	ldi	r31, 0xFF	; 255
    1f56:	6f 1a       	sub	r6, r31
    1f58:	7f 0a       	sbc	r7, r31
    1f5a:	80 e2       	ldi	r24, 0x20	; 32
    1f5c:	68 16       	cp	r6, r24
    1f5e:	71 04       	cpc	r7, r1
    1f60:	44 f2       	brlt	.-112    	; 0x1ef2 <ir_decodePanasonic+0xd6>
    1f62:	f4 01       	movw	r30, r8
    1f64:	c4 82       	std	Z+4, r12	; 0x04
    1f66:	d5 82       	std	Z+5, r13	; 0x05
    1f68:	e6 82       	std	Z+6, r14	; 0x06
    1f6a:	f7 82       	std	Z+7, r15	; 0x07
    1f6c:	87 e0       	ldi	r24, 0x07	; 7
    1f6e:	90 e0       	ldi	r25, 0x00	; 0
    1f70:	91 83       	std	Z+1, r25	; 0x01
    1f72:	80 83       	st	Z, r24
    1f74:	80 e3       	ldi	r24, 0x30	; 48
    1f76:	90 e0       	ldi	r25, 0x00	; 0
    1f78:	91 87       	std	Z+9, r25	; 0x09
    1f7a:	80 87       	std	Z+8, r24	; 0x08
    1f7c:	61 e0       	ldi	r22, 0x01	; 1
    1f7e:	70 e0       	ldi	r23, 0x00	; 0
    1f80:	80 e0       	ldi	r24, 0x00	; 0
    1f82:	90 e0       	ldi	r25, 0x00	; 0
    1f84:	17 c0       	rjmp	.+46     	; 0x1fb4 <ir_decodePanasonic+0x198>
    1f86:	60 e0       	ldi	r22, 0x00	; 0
    1f88:	70 e0       	ldi	r23, 0x00	; 0
    1f8a:	cb 01       	movw	r24, r22
    1f8c:	13 c0       	rjmp	.+38     	; 0x1fb4 <ir_decodePanasonic+0x198>
    1f8e:	60 e0       	ldi	r22, 0x00	; 0
    1f90:	70 e0       	ldi	r23, 0x00	; 0
    1f92:	cb 01       	movw	r24, r22
    1f94:	0f c0       	rjmp	.+30     	; 0x1fb4 <ir_decodePanasonic+0x198>
    1f96:	60 e0       	ldi	r22, 0x00	; 0
    1f98:	70 e0       	ldi	r23, 0x00	; 0
    1f9a:	cb 01       	movw	r24, r22
    1f9c:	0b c0       	rjmp	.+22     	; 0x1fb4 <ir_decodePanasonic+0x198>
    1f9e:	60 e0       	ldi	r22, 0x00	; 0
    1fa0:	70 e0       	ldi	r23, 0x00	; 0
    1fa2:	cb 01       	movw	r24, r22
    1fa4:	07 c0       	rjmp	.+14     	; 0x1fb4 <ir_decodePanasonic+0x198>
    1fa6:	60 e0       	ldi	r22, 0x00	; 0
    1fa8:	70 e0       	ldi	r23, 0x00	; 0
    1faa:	cb 01       	movw	r24, r22
    1fac:	03 c0       	rjmp	.+6      	; 0x1fb4 <ir_decodePanasonic+0x198>
    1fae:	60 e0       	ldi	r22, 0x00	; 0
    1fb0:	70 e0       	ldi	r23, 0x00	; 0
    1fb2:	cb 01       	movw	r24, r22
    1fb4:	df 91       	pop	r29
    1fb6:	cf 91       	pop	r28
    1fb8:	1f 91       	pop	r17
    1fba:	0f 91       	pop	r16
    1fbc:	ff 90       	pop	r15
    1fbe:	ef 90       	pop	r14
    1fc0:	df 90       	pop	r13
    1fc2:	cf 90       	pop	r12
    1fc4:	bf 90       	pop	r11
    1fc6:	af 90       	pop	r10
    1fc8:	9f 90       	pop	r9
    1fca:	8f 90       	pop	r8
    1fcc:	7f 90       	pop	r7
    1fce:	6f 90       	pop	r6
    1fd0:	08 95       	ret

00001fd2 <ir_decodeJVC>:
    1fd2:	6f 92       	push	r6
    1fd4:	7f 92       	push	r7
    1fd6:	8f 92       	push	r8
    1fd8:	9f 92       	push	r9
    1fda:	af 92       	push	r10
    1fdc:	bf 92       	push	r11
    1fde:	cf 92       	push	r12
    1fe0:	df 92       	push	r13
    1fe2:	ef 92       	push	r14
    1fe4:	ff 92       	push	r15
    1fe6:	0f 93       	push	r16
    1fe8:	1f 93       	push	r17
    1fea:	cf 93       	push	r28
    1fec:	df 93       	push	r29
    1fee:	8c 01       	movw	r16, r24
    1ff0:	80 91 d3 02 	lds	r24, 0x02D3	; 0x8002d3 <irparams+0xcc>
    1ff4:	90 91 d4 02 	lds	r25, 0x02D4	; 0x8002d4 <irparams+0xcd>
    1ff8:	82 97       	sbiw	r24, 0x22	; 34
    1ffa:	71 f5       	brne	.+92     	; 0x2058 <ir_decodeJVC+0x86>
    1ffc:	f8 01       	movw	r30, r16
    1ffe:	c2 85       	ldd	r28, Z+10	; 0x0a
    2000:	d3 85       	ldd	r29, Z+11	; 0x0b
    2002:	8a 81       	ldd	r24, Y+2	; 0x02
    2004:	9b 81       	ldd	r25, Y+3	; 0x03
    2006:	68 e5       	ldi	r22, 0x58	; 88
    2008:	72 e0       	ldi	r23, 0x02	; 2
    200a:	62 da       	rcall	.-2876   	; 0x14d0 <MATCH_MARK>
    200c:	89 2b       	or	r24, r25
    200e:	21 f1       	breq	.+72     	; 0x2058 <ir_decodeJVC+0x86>
    2010:	e0 91 d3 02 	lds	r30, 0x02D3	; 0x8002d3 <irparams+0xcc>
    2014:	f0 91 d4 02 	lds	r31, 0x02D4	; 0x8002d4 <irparams+0xcd>
    2018:	e1 50       	subi	r30, 0x01	; 1
    201a:	f0 48       	sbci	r31, 0x80	; 128
    201c:	ee 0f       	add	r30, r30
    201e:	ff 1f       	adc	r31, r31
    2020:	ec 0f       	add	r30, r28
    2022:	fd 1f       	adc	r31, r29
    2024:	80 81       	ld	r24, Z
    2026:	91 81       	ldd	r25, Z+1	; 0x01
    2028:	68 e5       	ldi	r22, 0x58	; 88
    202a:	72 e0       	ldi	r23, 0x02	; 2
    202c:	51 da       	rcall	.-2910   	; 0x14d0 <MATCH_MARK>
    202e:	89 2b       	or	r24, r25
    2030:	99 f0       	breq	.+38     	; 0x2058 <ir_decodeJVC+0x86>
    2032:	f8 01       	movw	r30, r16
    2034:	11 86       	std	Z+9, r1	; 0x09
    2036:	10 86       	std	Z+8, r1	; 0x08
    2038:	8f ef       	ldi	r24, 0xFF	; 255
    203a:	9f ef       	ldi	r25, 0xFF	; 255
    203c:	dc 01       	movw	r26, r24
    203e:	84 83       	std	Z+4, r24	; 0x04
    2040:	95 83       	std	Z+5, r25	; 0x05
    2042:	a6 83       	std	Z+6, r26	; 0x06
    2044:	b7 83       	std	Z+7, r27	; 0x07
    2046:	88 e0       	ldi	r24, 0x08	; 8
    2048:	90 e0       	ldi	r25, 0x00	; 0
    204a:	91 83       	std	Z+1, r25	; 0x01
    204c:	80 83       	st	Z, r24
    204e:	61 e0       	ldi	r22, 0x01	; 1
    2050:	70 e0       	ldi	r23, 0x00	; 0
    2052:	80 e0       	ldi	r24, 0x00	; 0
    2054:	90 e0       	ldi	r25, 0x00	; 0
    2056:	90 c0       	rjmp	.+288    	; 0x2178 <ir_decodeJVC+0x1a6>
    2058:	f8 01       	movw	r30, r16
    205a:	c2 84       	ldd	r12, Z+10	; 0x0a
    205c:	d3 84       	ldd	r13, Z+11	; 0x0b
    205e:	f6 01       	movw	r30, r12
    2060:	82 81       	ldd	r24, Z+2	; 0x02
    2062:	93 81       	ldd	r25, Z+3	; 0x03
    2064:	60 e4       	ldi	r22, 0x40	; 64
    2066:	7f e1       	ldi	r23, 0x1F	; 31
    2068:	33 da       	rcall	.-2970   	; 0x14d0 <MATCH_MARK>
    206a:	89 2b       	or	r24, r25
    206c:	09 f4       	brne	.+2      	; 0x2070 <ir_decodeJVC+0x9e>
    206e:	6d c0       	rjmp	.+218    	; 0x214a <ir_decodeJVC+0x178>
    2070:	80 91 d3 02 	lds	r24, 0x02D3	; 0x8002d3 <irparams+0xcc>
    2074:	90 91 d4 02 	lds	r25, 0x02D4	; 0x8002d4 <irparams+0xcd>
    2078:	81 97       	sbiw	r24, 0x21	; 33
    207a:	08 f4       	brcc	.+2      	; 0x207e <ir_decodeJVC+0xac>
    207c:	6a c0       	rjmp	.+212    	; 0x2152 <ir_decodeJVC+0x180>
    207e:	f6 01       	movw	r30, r12
    2080:	84 81       	ldd	r24, Z+4	; 0x04
    2082:	95 81       	ldd	r25, Z+5	; 0x05
    2084:	60 ea       	ldi	r22, 0xA0	; 160
    2086:	7f e0       	ldi	r23, 0x0F	; 15
    2088:	25 da       	rcall	.-2998   	; 0x14d4 <MATCH_SPACE>
    208a:	89 2b       	or	r24, r25
    208c:	09 f4       	brne	.+2      	; 0x2090 <ir_decodeJVC+0xbe>
    208e:	65 c0       	rjmp	.+202    	; 0x215a <ir_decodeJVC+0x188>
    2090:	c3 e0       	ldi	r28, 0x03	; 3
    2092:	d0 e0       	ldi	r29, 0x00	; 0
    2094:	81 2c       	mov	r8, r1
    2096:	91 2c       	mov	r9, r1
    2098:	54 01       	movw	r10, r8
    209a:	61 2c       	mov	r6, r1
    209c:	71 2c       	mov	r7, r1
    209e:	34 c0       	rjmp	.+104    	; 0x2108 <ir_decodeJVC+0x136>
    20a0:	fe 01       	movw	r30, r28
    20a2:	ee 0f       	add	r30, r30
    20a4:	ff 1f       	adc	r31, r31
    20a6:	ec 0d       	add	r30, r12
    20a8:	fd 1d       	adc	r31, r13
    20aa:	80 81       	ld	r24, Z
    20ac:	91 81       	ldd	r25, Z+1	; 0x01
    20ae:	68 e5       	ldi	r22, 0x58	; 88
    20b0:	72 e0       	ldi	r23, 0x02	; 2
    20b2:	0e da       	rcall	.-3044   	; 0x14d0 <MATCH_MARK>
    20b4:	89 2b       	or	r24, r25
    20b6:	09 f4       	brne	.+2      	; 0x20ba <ir_decodeJVC+0xe8>
    20b8:	54 c0       	rjmp	.+168    	; 0x2162 <ir_decodeJVC+0x190>
    20ba:	7e 01       	movw	r14, r28
    20bc:	ff ef       	ldi	r31, 0xFF	; 255
    20be:	ef 1a       	sub	r14, r31
    20c0:	ff 0a       	sbc	r15, r31
    20c2:	ee 0c       	add	r14, r14
    20c4:	ff 1c       	adc	r15, r15
    20c6:	ec 0c       	add	r14, r12
    20c8:	fd 1c       	adc	r15, r13
    20ca:	f7 01       	movw	r30, r14
    20cc:	80 81       	ld	r24, Z
    20ce:	91 81       	ldd	r25, Z+1	; 0x01
    20d0:	60 e4       	ldi	r22, 0x40	; 64
    20d2:	76 e0       	ldi	r23, 0x06	; 6
    20d4:	ff d9       	rcall	.-3074   	; 0x14d4 <MATCH_SPACE>
    20d6:	89 2b       	or	r24, r25
    20d8:	39 f0       	breq	.+14     	; 0x20e8 <ir_decodeJVC+0x116>
    20da:	88 0c       	add	r8, r8
    20dc:	99 1c       	adc	r9, r9
    20de:	aa 1c       	adc	r10, r10
    20e0:	bb 1c       	adc	r11, r11
    20e2:	68 94       	set
    20e4:	80 f8       	bld	r8, 0
    20e6:	0c c0       	rjmp	.+24     	; 0x2100 <ir_decodeJVC+0x12e>
    20e8:	f7 01       	movw	r30, r14
    20ea:	80 81       	ld	r24, Z
    20ec:	91 81       	ldd	r25, Z+1	; 0x01
    20ee:	66 e2       	ldi	r22, 0x26	; 38
    20f0:	72 e0       	ldi	r23, 0x02	; 2
    20f2:	f0 d9       	rcall	.-3104   	; 0x14d4 <MATCH_SPACE>
    20f4:	89 2b       	or	r24, r25
    20f6:	c9 f1       	breq	.+114    	; 0x216a <ir_decodeJVC+0x198>
    20f8:	88 0c       	add	r8, r8
    20fa:	99 1c       	adc	r9, r9
    20fc:	aa 1c       	adc	r10, r10
    20fe:	bb 1c       	adc	r11, r11
    2100:	22 96       	adiw	r28, 0x02	; 2
    2102:	ff ef       	ldi	r31, 0xFF	; 255
    2104:	6f 1a       	sub	r6, r31
    2106:	7f 0a       	sbc	r7, r31
    2108:	80 e1       	ldi	r24, 0x10	; 16
    210a:	68 16       	cp	r6, r24
    210c:	71 04       	cpc	r7, r1
    210e:	44 f2       	brlt	.-112    	; 0x20a0 <ir_decodeJVC+0xce>
    2110:	cc 0f       	add	r28, r28
    2112:	dd 1f       	adc	r29, r29
    2114:	cc 0d       	add	r28, r12
    2116:	dd 1d       	adc	r29, r13
    2118:	88 81       	ld	r24, Y
    211a:	99 81       	ldd	r25, Y+1	; 0x01
    211c:	68 e5       	ldi	r22, 0x58	; 88
    211e:	72 e0       	ldi	r23, 0x02	; 2
    2120:	d7 d9       	rcall	.-3154   	; 0x14d0 <MATCH_MARK>
    2122:	89 2b       	or	r24, r25
    2124:	31 f1       	breq	.+76     	; 0x2172 <ir_decodeJVC+0x1a0>
    2126:	80 e1       	ldi	r24, 0x10	; 16
    2128:	90 e0       	ldi	r25, 0x00	; 0
    212a:	f8 01       	movw	r30, r16
    212c:	91 87       	std	Z+9, r25	; 0x09
    212e:	80 87       	std	Z+8, r24	; 0x08
    2130:	84 82       	std	Z+4, r8	; 0x04
    2132:	95 82       	std	Z+5, r9	; 0x05
    2134:	a6 82       	std	Z+6, r10	; 0x06
    2136:	b7 82       	std	Z+7, r11	; 0x07
    2138:	88 e0       	ldi	r24, 0x08	; 8
    213a:	90 e0       	ldi	r25, 0x00	; 0
    213c:	91 83       	std	Z+1, r25	; 0x01
    213e:	80 83       	st	Z, r24
    2140:	61 e0       	ldi	r22, 0x01	; 1
    2142:	70 e0       	ldi	r23, 0x00	; 0
    2144:	80 e0       	ldi	r24, 0x00	; 0
    2146:	90 e0       	ldi	r25, 0x00	; 0
    2148:	17 c0       	rjmp	.+46     	; 0x2178 <ir_decodeJVC+0x1a6>
    214a:	60 e0       	ldi	r22, 0x00	; 0
    214c:	70 e0       	ldi	r23, 0x00	; 0
    214e:	cb 01       	movw	r24, r22
    2150:	13 c0       	rjmp	.+38     	; 0x2178 <ir_decodeJVC+0x1a6>
    2152:	60 e0       	ldi	r22, 0x00	; 0
    2154:	70 e0       	ldi	r23, 0x00	; 0
    2156:	cb 01       	movw	r24, r22
    2158:	0f c0       	rjmp	.+30     	; 0x2178 <ir_decodeJVC+0x1a6>
    215a:	60 e0       	ldi	r22, 0x00	; 0
    215c:	70 e0       	ldi	r23, 0x00	; 0
    215e:	cb 01       	movw	r24, r22
    2160:	0b c0       	rjmp	.+22     	; 0x2178 <ir_decodeJVC+0x1a6>
    2162:	60 e0       	ldi	r22, 0x00	; 0
    2164:	70 e0       	ldi	r23, 0x00	; 0
    2166:	cb 01       	movw	r24, r22
    2168:	07 c0       	rjmp	.+14     	; 0x2178 <ir_decodeJVC+0x1a6>
    216a:	60 e0       	ldi	r22, 0x00	; 0
    216c:	70 e0       	ldi	r23, 0x00	; 0
    216e:	cb 01       	movw	r24, r22
    2170:	03 c0       	rjmp	.+6      	; 0x2178 <ir_decodeJVC+0x1a6>
    2172:	60 e0       	ldi	r22, 0x00	; 0
    2174:	70 e0       	ldi	r23, 0x00	; 0
    2176:	cb 01       	movw	r24, r22
    2178:	df 91       	pop	r29
    217a:	cf 91       	pop	r28
    217c:	1f 91       	pop	r17
    217e:	0f 91       	pop	r16
    2180:	ff 90       	pop	r15
    2182:	ef 90       	pop	r14
    2184:	df 90       	pop	r13
    2186:	cf 90       	pop	r12
    2188:	bf 90       	pop	r11
    218a:	af 90       	pop	r10
    218c:	9f 90       	pop	r9
    218e:	8f 90       	pop	r8
    2190:	7f 90       	pop	r7
    2192:	6f 90       	pop	r6
    2194:	08 95       	ret

00002196 <ir_sendNEC>:
    2196:	cf 92       	push	r12
    2198:	df 92       	push	r13
    219a:	ef 92       	push	r14
    219c:	ff 92       	push	r15
    219e:	0f 93       	push	r16
    21a0:	1f 93       	push	r17
    21a2:	cf 93       	push	r28
    21a4:	df 93       	push	r29
    21a6:	6b 01       	movw	r12, r22
    21a8:	7c 01       	movw	r14, r24
    21aa:	8a 01       	movw	r16, r20
    21ac:	10 92 6e 00 	sts	0x006E, r1	; 0x80006e <__TEXT_REGION_LENGTH__+0x7e006e>
    21b0:	86 e2       	ldi	r24, 0x26	; 38
    21b2:	0e 94 44 08 	call	0x1088	; 0x1088 <ir_enableIROut>
    21b6:	88 e2       	ldi	r24, 0x28	; 40
    21b8:	93 e2       	ldi	r25, 0x23	; 35
    21ba:	0e 94 31 08 	call	0x1062	; 0x1062 <ir_mark>
    21be:	84 e9       	ldi	r24, 0x94	; 148
    21c0:	91 e1       	ldi	r25, 0x11	; 17
    21c2:	0e 94 3f 08 	call	0x107e	; 0x107e <ir_space>
    21c6:	c0 e0       	ldi	r28, 0x00	; 0
    21c8:	d0 e0       	ldi	r29, 0x00	; 0
    21ca:	18 c0       	rjmp	.+48     	; 0x21fc <ir_sendNEC+0x66>
    21cc:	ff 20       	and	r15, r15
    21ce:	4c f4       	brge	.+18     	; 0x21e2 <ir_sendNEC+0x4c>
    21d0:	80 e3       	ldi	r24, 0x30	; 48
    21d2:	92 e0       	ldi	r25, 0x02	; 2
    21d4:	0e 94 31 08 	call	0x1062	; 0x1062 <ir_mark>
    21d8:	80 e4       	ldi	r24, 0x40	; 64
    21da:	96 e0       	ldi	r25, 0x06	; 6
    21dc:	0e 94 3f 08 	call	0x107e	; 0x107e <ir_space>
    21e0:	08 c0       	rjmp	.+16     	; 0x21f2 <ir_sendNEC+0x5c>
    21e2:	80 e3       	ldi	r24, 0x30	; 48
    21e4:	92 e0       	ldi	r25, 0x02	; 2
    21e6:	0e 94 31 08 	call	0x1062	; 0x1062 <ir_mark>
    21ea:	80 e3       	ldi	r24, 0x30	; 48
    21ec:	92 e0       	ldi	r25, 0x02	; 2
    21ee:	0e 94 3f 08 	call	0x107e	; 0x107e <ir_space>
    21f2:	cc 0c       	add	r12, r12
    21f4:	dd 1c       	adc	r13, r13
    21f6:	ee 1c       	adc	r14, r14
    21f8:	ff 1c       	adc	r15, r15
    21fa:	21 96       	adiw	r28, 0x01	; 1
    21fc:	c0 17       	cp	r28, r16
    21fe:	d1 07       	cpc	r29, r17
    2200:	2c f3       	brlt	.-54     	; 0x21cc <ir_sendNEC+0x36>
    2202:	80 e3       	ldi	r24, 0x30	; 48
    2204:	92 e0       	ldi	r25, 0x02	; 2
    2206:	0e 94 31 08 	call	0x1062	; 0x1062 <ir_mark>
    220a:	80 e0       	ldi	r24, 0x00	; 0
    220c:	90 e0       	ldi	r25, 0x00	; 0
    220e:	0e 94 3f 08 	call	0x107e	; 0x107e <ir_space>
    2212:	df 91       	pop	r29
    2214:	cf 91       	pop	r28
    2216:	1f 91       	pop	r17
    2218:	0f 91       	pop	r16
    221a:	ff 90       	pop	r15
    221c:	ef 90       	pop	r14
    221e:	df 90       	pop	r13
    2220:	cf 90       	pop	r12
    2222:	08 95       	ret

00002224 <ir_sendSony>:
    2224:	cf 92       	push	r12
    2226:	df 92       	push	r13
    2228:	ef 92       	push	r14
    222a:	ff 92       	push	r15
    222c:	0f 93       	push	r16
    222e:	1f 93       	push	r17
    2230:	cf 93       	push	r28
    2232:	df 93       	push	r29
    2234:	6b 01       	movw	r12, r22
    2236:	7c 01       	movw	r14, r24
    2238:	ea 01       	movw	r28, r20
    223a:	88 e2       	ldi	r24, 0x28	; 40
    223c:	0e 94 44 08 	call	0x1088	; 0x1088 <ir_enableIROut>
    2240:	10 92 6e 00 	sts	0x006E, r1	; 0x80006e <__TEXT_REGION_LENGTH__+0x7e006e>
    2244:	80 e6       	ldi	r24, 0x60	; 96
    2246:	99 e0       	ldi	r25, 0x09	; 9
    2248:	0e 94 31 08 	call	0x1062	; 0x1062 <ir_mark>
    224c:	88 e5       	ldi	r24, 0x58	; 88
    224e:	92 e0       	ldi	r25, 0x02	; 2
    2250:	0e 94 3f 08 	call	0x107e	; 0x107e <ir_space>
    2254:	80 e2       	ldi	r24, 0x20	; 32
    2256:	90 e0       	ldi	r25, 0x00	; 0
    2258:	8c 1b       	sub	r24, r28
    225a:	9d 0b       	sbc	r25, r29
    225c:	04 c0       	rjmp	.+8      	; 0x2266 <ir_sendSony+0x42>
    225e:	cc 0c       	add	r12, r12
    2260:	dd 1c       	adc	r13, r13
    2262:	ee 1c       	adc	r14, r14
    2264:	ff 1c       	adc	r15, r15
    2266:	8a 95       	dec	r24
    2268:	d2 f7       	brpl	.-12     	; 0x225e <ir_sendSony+0x3a>
    226a:	00 e0       	ldi	r16, 0x00	; 0
    226c:	10 e0       	ldi	r17, 0x00	; 0
    226e:	19 c0       	rjmp	.+50     	; 0x22a2 <ir_sendSony+0x7e>
    2270:	ff 20       	and	r15, r15
    2272:	4c f4       	brge	.+18     	; 0x2286 <ir_sendSony+0x62>
    2274:	80 eb       	ldi	r24, 0xB0	; 176
    2276:	94 e0       	ldi	r25, 0x04	; 4
    2278:	0e 94 31 08 	call	0x1062	; 0x1062 <ir_mark>
    227c:	88 e5       	ldi	r24, 0x58	; 88
    227e:	92 e0       	ldi	r25, 0x02	; 2
    2280:	0e 94 3f 08 	call	0x107e	; 0x107e <ir_space>
    2284:	08 c0       	rjmp	.+16     	; 0x2296 <ir_sendSony+0x72>
    2286:	88 e5       	ldi	r24, 0x58	; 88
    2288:	92 e0       	ldi	r25, 0x02	; 2
    228a:	0e 94 31 08 	call	0x1062	; 0x1062 <ir_mark>
    228e:	88 e5       	ldi	r24, 0x58	; 88
    2290:	92 e0       	ldi	r25, 0x02	; 2
    2292:	0e 94 3f 08 	call	0x107e	; 0x107e <ir_space>
    2296:	cc 0c       	add	r12, r12
    2298:	dd 1c       	adc	r13, r13
    229a:	ee 1c       	adc	r14, r14
    229c:	ff 1c       	adc	r15, r15
    229e:	0f 5f       	subi	r16, 0xFF	; 255
    22a0:	1f 4f       	sbci	r17, 0xFF	; 255
    22a2:	0c 17       	cp	r16, r28
    22a4:	1d 07       	cpc	r17, r29
    22a6:	24 f3       	brlt	.-56     	; 0x2270 <ir_sendSony+0x4c>
    22a8:	df 91       	pop	r29
    22aa:	cf 91       	pop	r28
    22ac:	1f 91       	pop	r17
    22ae:	0f 91       	pop	r16
    22b0:	ff 90       	pop	r15
    22b2:	ef 90       	pop	r14
    22b4:	df 90       	pop	r13
    22b6:	cf 90       	pop	r12
    22b8:	08 95       	ret

000022ba <ir_sendRC5>:
    22ba:	cf 92       	push	r12
    22bc:	df 92       	push	r13
    22be:	ef 92       	push	r14
    22c0:	ff 92       	push	r15
    22c2:	0f 93       	push	r16
    22c4:	1f 93       	push	r17
    22c6:	cf 93       	push	r28
    22c8:	df 93       	push	r29
    22ca:	6b 01       	movw	r12, r22
    22cc:	7c 01       	movw	r14, r24
    22ce:	ea 01       	movw	r28, r20
    22d0:	84 e2       	ldi	r24, 0x24	; 36
    22d2:	0e 94 44 08 	call	0x1088	; 0x1088 <ir_enableIROut>
    22d6:	10 92 6e 00 	sts	0x006E, r1	; 0x80006e <__TEXT_REGION_LENGTH__+0x7e006e>
    22da:	80 e2       	ldi	r24, 0x20	; 32
    22dc:	90 e0       	ldi	r25, 0x00	; 0
    22de:	8c 1b       	sub	r24, r28
    22e0:	9d 0b       	sbc	r25, r29
    22e2:	04 c0       	rjmp	.+8      	; 0x22ec <ir_sendRC5+0x32>
    22e4:	cc 0c       	add	r12, r12
    22e6:	dd 1c       	adc	r13, r13
    22e8:	ee 1c       	adc	r14, r14
    22ea:	ff 1c       	adc	r15, r15
    22ec:	8a 95       	dec	r24
    22ee:	d2 f7       	brpl	.-12     	; 0x22e4 <ir_sendRC5+0x2a>
    22f0:	89 e7       	ldi	r24, 0x79	; 121
    22f2:	93 e0       	ldi	r25, 0x03	; 3
    22f4:	0e 94 31 08 	call	0x1062	; 0x1062 <ir_mark>
    22f8:	89 e7       	ldi	r24, 0x79	; 121
    22fa:	93 e0       	ldi	r25, 0x03	; 3
    22fc:	0e 94 3f 08 	call	0x107e	; 0x107e <ir_space>
    2300:	89 e7       	ldi	r24, 0x79	; 121
    2302:	93 e0       	ldi	r25, 0x03	; 3
    2304:	0e 94 31 08 	call	0x1062	; 0x1062 <ir_mark>
    2308:	00 e0       	ldi	r16, 0x00	; 0
    230a:	10 e0       	ldi	r17, 0x00	; 0
    230c:	19 c0       	rjmp	.+50     	; 0x2340 <ir_sendRC5+0x86>
    230e:	ff 20       	and	r15, r15
    2310:	4c f4       	brge	.+18     	; 0x2324 <ir_sendRC5+0x6a>
    2312:	89 e7       	ldi	r24, 0x79	; 121
    2314:	93 e0       	ldi	r25, 0x03	; 3
    2316:	0e 94 3f 08 	call	0x107e	; 0x107e <ir_space>
    231a:	89 e7       	ldi	r24, 0x79	; 121
    231c:	93 e0       	ldi	r25, 0x03	; 3
    231e:	0e 94 31 08 	call	0x1062	; 0x1062 <ir_mark>
    2322:	08 c0       	rjmp	.+16     	; 0x2334 <ir_sendRC5+0x7a>
    2324:	89 e7       	ldi	r24, 0x79	; 121
    2326:	93 e0       	ldi	r25, 0x03	; 3
    2328:	0e 94 31 08 	call	0x1062	; 0x1062 <ir_mark>
    232c:	89 e7       	ldi	r24, 0x79	; 121
    232e:	93 e0       	ldi	r25, 0x03	; 3
    2330:	0e 94 3f 08 	call	0x107e	; 0x107e <ir_space>
    2334:	cc 0c       	add	r12, r12
    2336:	dd 1c       	adc	r13, r13
    2338:	ee 1c       	adc	r14, r14
    233a:	ff 1c       	adc	r15, r15
    233c:	0f 5f       	subi	r16, 0xFF	; 255
    233e:	1f 4f       	sbci	r17, 0xFF	; 255
    2340:	0c 17       	cp	r16, r28
    2342:	1d 07       	cpc	r17, r29
    2344:	24 f3       	brlt	.-56     	; 0x230e <ir_sendRC5+0x54>
    2346:	80 e0       	ldi	r24, 0x00	; 0
    2348:	90 e0       	ldi	r25, 0x00	; 0
    234a:	0e 94 3f 08 	call	0x107e	; 0x107e <ir_space>
    234e:	df 91       	pop	r29
    2350:	cf 91       	pop	r28
    2352:	1f 91       	pop	r17
    2354:	0f 91       	pop	r16
    2356:	ff 90       	pop	r15
    2358:	ef 90       	pop	r14
    235a:	df 90       	pop	r13
    235c:	cf 90       	pop	r12
    235e:	08 95       	ret

00002360 <ir_enableIRIn>:
    2360:	e7 e0       	ldi	r30, 0x07	; 7
    2362:	f2 e0       	ldi	r31, 0x02	; 2
    2364:	11 82       	std	Z+1, r1	; 0x01
    2366:	82 e0       	ldi	r24, 0x02	; 2
    2368:	80 83       	st	Z, r24
    236a:	10 92 d4 02 	sts	0x02D4, r1	; 0x8002d4 <irparams+0xcd>
    236e:	10 92 d3 02 	sts	0x02D3, r1	; 0x8002d3 <irparams+0xcc>
    2372:	8a b1       	in	r24, 0x0a	; 10
    2374:	8f 77       	andi	r24, 0x7F	; 127
    2376:	8a b9       	out	0x0a, r24	; 10
    2378:	f8 94       	cli
    237a:	0e 94 fa 07 	call	0xff4	; 0xff4 <ir_timerCfgNorm>
    237e:	0e 94 f8 07 	call	0xff0	; 0xff0 <ir_timerRst>
    2382:	78 94       	sei
    2384:	08 95       	ret

00002386 <ir_interruptService>:
{
  unsigned char irdata = 0;

  // timer is used for sampling IR signal

    ir_timerRst();
    2386:	0e 94 f8 07 	call	0xff0	; 0xff0 <ir_timerRst>

    //irdata = (unsigned char)ir_digitalRead(irparams.recvpin);
	irdata = (IR_RECEIVE_PINx & (1<<IR_RECEIVE_PIN))>>IR_RECEIVE_PIN;
    238a:	89 b1       	in	r24, 0x09	; 9
    238c:	28 2f       	mov	r18, r24
    238e:	22 1f       	adc	r18, r18
    2390:	22 27       	eor	r18, r18
    2392:	22 1f       	adc	r18, r18

    irparams.timer++; // One more 50us tick
    2394:	e7 e0       	ldi	r30, 0x07	; 7
    2396:	f2 e0       	ldi	r31, 0x02	; 2
    2398:	82 81       	ldd	r24, Z+2	; 0x02
    239a:	93 81       	ldd	r25, Z+3	; 0x03
    239c:	01 96       	adiw	r24, 0x01	; 1
    239e:	93 83       	std	Z+3, r25	; 0x03
    23a0:	82 83       	std	Z+2, r24	; 0x02
    if (irparams.rawlen >= RAWBUF) {
    23a2:	80 91 d3 02 	lds	r24, 0x02D3	; 0x8002d3 <irparams+0xcc>
    23a6:	90 91 d4 02 	lds	r25, 0x02D4	; 0x8002d4 <irparams+0xcd>
    23aa:	84 36       	cpi	r24, 0x64	; 100
    23ac:	91 05       	cpc	r25, r1
    23ae:	18 f0       	brcs	.+6      	; 0x23b6 <ir_interruptService+0x30>
        // Buffer overflow
        irparams.rcvstate = STATE_STOP;
    23b0:	85 e0       	ldi	r24, 0x05	; 5
    23b2:	80 93 07 02 	sts	0x0207, r24	; 0x800207 <irparams>
    }
    switch(irparams.rcvstate) {
    23b6:	80 91 07 02 	lds	r24, 0x0207	; 0x800207 <irparams>
    23ba:	83 30       	cpi	r24, 0x03	; 3
    23bc:	d1 f1       	breq	.+116    	; 0x2432 <ir_interruptService+0xac>
    23be:	18 f4       	brcc	.+6      	; 0x23c6 <ir_interruptService+0x40>
    23c0:	82 30       	cpi	r24, 0x02	; 2
    23c2:	41 f0       	breq	.+16     	; 0x23d4 <ir_interruptService+0x4e>
    23c4:	08 95       	ret
    23c6:	84 30       	cpi	r24, 0x04	; 4
    23c8:	09 f4       	brne	.+2      	; 0x23cc <ir_interruptService+0x46>
    23ca:	53 c0       	rjmp	.+166    	; 0x2472 <ir_interruptService+0xec>
    23cc:	85 30       	cpi	r24, 0x05	; 5
    23ce:	09 f4       	brne	.+2      	; 0x23d2 <ir_interruptService+0x4c>
    23d0:	7b c0       	rjmp	.+246    	; 0x24c8 <ir_interruptService+0x142>
    23d2:	08 95       	ret
      case STATE_IDLE: // In the middle of a gap
        if (irdata == MARK) {
    23d4:	21 30       	cpi	r18, 0x01	; 1
    23d6:	09 f0       	breq	.+2      	; 0x23da <ir_interruptService+0x54>
    23d8:	7d c0       	rjmp	.+250    	; 0x24d4 <ir_interruptService+0x14e>
        if (irparams.timer < GAP_TICKS) {
    23da:	80 91 09 02 	lds	r24, 0x0209	; 0x800209 <irparams+0x2>
    23de:	90 91 0a 02 	lds	r25, 0x020A	; 0x80020a <irparams+0x3>
    23e2:	84 36       	cpi	r24, 0x64	; 100
    23e4:	91 05       	cpc	r25, r1
    23e6:	28 f4       	brcc	.+10     	; 0x23f2 <ir_interruptService+0x6c>
            // Not big enough to be a gap.
            irparams.timer = 0;
    23e8:	10 92 0a 02 	sts	0x020A, r1	; 0x80020a <irparams+0x3>
    23ec:	10 92 09 02 	sts	0x0209, r1	; 0x800209 <irparams+0x2>
    23f0:	08 95       	ret
        } 
        else {
            // gap just ended, record duration and start recording transmission
            irparams.rawlen = 0;
    23f2:	a7 e0       	ldi	r26, 0x07	; 7
    23f4:	b2 e0       	ldi	r27, 0x02	; 2
    23f6:	e3 ed       	ldi	r30, 0xD3	; 211
    23f8:	f2 e0       	ldi	r31, 0x02	; 2
    23fa:	11 82       	std	Z+1, r1	; 0x01
    23fc:	10 82       	st	Z, r1
            irparams.rawbuf[irparams.rawlen++] = irparams.timer;
    23fe:	80 81       	ld	r24, Z
    2400:	91 81       	ldd	r25, Z+1	; 0x01
    2402:	9c 01       	movw	r18, r24
    2404:	2f 5f       	subi	r18, 0xFF	; 255
    2406:	3f 4f       	sbci	r19, 0xFF	; 255
    2408:	31 83       	std	Z+1, r19	; 0x01
    240a:	20 83       	st	Z, r18
    240c:	12 96       	adiw	r26, 0x02	; 2
    240e:	2d 91       	ld	r18, X+
    2410:	3c 91       	ld	r19, X
    2412:	13 97       	sbiw	r26, 0x03	; 3
    2414:	fc 01       	movw	r30, r24
    2416:	32 96       	adiw	r30, 0x02	; 2
    2418:	ee 0f       	add	r30, r30
    241a:	ff 1f       	adc	r31, r31
    241c:	e9 5f       	subi	r30, 0xF9	; 249
    241e:	fd 4f       	sbci	r31, 0xFD	; 253
    2420:	31 83       	std	Z+1, r19	; 0x01
    2422:	20 83       	st	Z, r18
            irparams.timer = 0;
    2424:	13 96       	adiw	r26, 0x03	; 3
    2426:	1c 92       	st	X, r1
    2428:	1e 92       	st	-X, r1
    242a:	12 97       	sbiw	r26, 0x02	; 2
            irparams.rcvstate = STATE_MARK;
    242c:	83 e0       	ldi	r24, 0x03	; 3
    242e:	8c 93       	st	X, r24
    2430:	08 95       	ret
        }
        }
        break;
      case STATE_MARK: // timing MARK
        if (irdata == SPACE) {   // MARK ended, record time
    2432:	21 11       	cpse	r18, r1
    2434:	4f c0       	rjmp	.+158    	; 0x24d4 <ir_interruptService+0x14e>
            irparams.rawbuf[irparams.rawlen++] = irparams.timer;
    2436:	a7 e0       	ldi	r26, 0x07	; 7
    2438:	b2 e0       	ldi	r27, 0x02	; 2
    243a:	e3 ed       	ldi	r30, 0xD3	; 211
    243c:	f2 e0       	ldi	r31, 0x02	; 2
    243e:	80 81       	ld	r24, Z
    2440:	91 81       	ldd	r25, Z+1	; 0x01
    2442:	9c 01       	movw	r18, r24
    2444:	2f 5f       	subi	r18, 0xFF	; 255
    2446:	3f 4f       	sbci	r19, 0xFF	; 255
    2448:	31 83       	std	Z+1, r19	; 0x01
    244a:	20 83       	st	Z, r18
    244c:	12 96       	adiw	r26, 0x02	; 2
    244e:	2d 91       	ld	r18, X+
    2450:	3c 91       	ld	r19, X
    2452:	13 97       	sbiw	r26, 0x03	; 3
    2454:	fc 01       	movw	r30, r24
    2456:	32 96       	adiw	r30, 0x02	; 2
    2458:	ee 0f       	add	r30, r30
    245a:	ff 1f       	adc	r31, r31
    245c:	e9 5f       	subi	r30, 0xF9	; 249
    245e:	fd 4f       	sbci	r31, 0xFD	; 253
    2460:	31 83       	std	Z+1, r19	; 0x01
    2462:	20 83       	st	Z, r18
            irparams.timer = 0;
    2464:	13 96       	adiw	r26, 0x03	; 3
    2466:	1c 92       	st	X, r1
    2468:	1e 92       	st	-X, r1
    246a:	12 97       	sbiw	r26, 0x02	; 2
            irparams.rcvstate = STATE_SPACE;
    246c:	84 e0       	ldi	r24, 0x04	; 4
    246e:	8c 93       	st	X, r24
    2470:	08 95       	ret
        }
        break;
      case STATE_SPACE: // timing SPACE
        if (irdata == MARK) { // SPACE just ended, record it
    2472:	21 30       	cpi	r18, 0x01	; 1
    2474:	f1 f4       	brne	.+60     	; 0x24b2 <ir_interruptService+0x12c>
            irparams.rawbuf[irparams.rawlen++] = irparams.timer;
    2476:	a7 e0       	ldi	r26, 0x07	; 7
    2478:	b2 e0       	ldi	r27, 0x02	; 2
    247a:	e3 ed       	ldi	r30, 0xD3	; 211
    247c:	f2 e0       	ldi	r31, 0x02	; 2
    247e:	80 81       	ld	r24, Z
    2480:	91 81       	ldd	r25, Z+1	; 0x01
    2482:	9c 01       	movw	r18, r24
    2484:	2f 5f       	subi	r18, 0xFF	; 255
    2486:	3f 4f       	sbci	r19, 0xFF	; 255
    2488:	31 83       	std	Z+1, r19	; 0x01
    248a:	20 83       	st	Z, r18
    248c:	12 96       	adiw	r26, 0x02	; 2
    248e:	2d 91       	ld	r18, X+
    2490:	3c 91       	ld	r19, X
    2492:	13 97       	sbiw	r26, 0x03	; 3
    2494:	fc 01       	movw	r30, r24
    2496:	32 96       	adiw	r30, 0x02	; 2
    2498:	ee 0f       	add	r30, r30
    249a:	ff 1f       	adc	r31, r31
    249c:	e9 5f       	subi	r30, 0xF9	; 249
    249e:	fd 4f       	sbci	r31, 0xFD	; 253
    24a0:	31 83       	std	Z+1, r19	; 0x01
    24a2:	20 83       	st	Z, r18
            irparams.timer = 0;
    24a4:	13 96       	adiw	r26, 0x03	; 3
    24a6:	1c 92       	st	X, r1
    24a8:	1e 92       	st	-X, r1
    24aa:	12 97       	sbiw	r26, 0x02	; 2
            irparams.rcvstate = STATE_MARK;
    24ac:	83 e0       	ldi	r24, 0x03	; 3
    24ae:	8c 93       	st	X, r24
    24b0:	08 95       	ret
        } 
        else { // SPACE
          if (irparams.timer > GAP_TICKS) {
    24b2:	80 91 09 02 	lds	r24, 0x0209	; 0x800209 <irparams+0x2>
    24b6:	90 91 0a 02 	lds	r25, 0x020A	; 0x80020a <irparams+0x3>
    24ba:	85 36       	cpi	r24, 0x65	; 101
    24bc:	91 05       	cpc	r25, r1
    24be:	50 f0       	brcs	.+20     	; 0x24d4 <ir_interruptService+0x14e>
            // big SPACE, indicates gap between codes
            // Mark current code as ready for processing
            // Switch to STOP
            // Don't reset timer; keep counting space width
            irparams.rcvstate = STATE_STOP;
    24c0:	85 e0       	ldi	r24, 0x05	; 5
    24c2:	80 93 07 02 	sts	0x0207, r24	; 0x800207 <irparams>
    24c6:	08 95       	ret
          } 
        }
        break;
     case STATE_STOP: // waiting, measuring gap
        if (irdata == MARK) { // reset gap timer
    24c8:	21 30       	cpi	r18, 0x01	; 1
    24ca:	21 f4       	brne	.+8      	; 0x24d4 <ir_interruptService+0x14e>
           irparams.timer = 0;
    24cc:	10 92 0a 02 	sts	0x020A, r1	; 0x80020a <irparams+0x3>
    24d0:	10 92 09 02 	sts	0x0209, r1	; 0x800209 <irparams+0x2>
    24d4:	08 95       	ret

000024d6 <ir_resume>:
        }
    }*/
}

void ir_resume(void) {
  irparams.rcvstate = STATE_IDLE;
    24d6:	82 e0       	ldi	r24, 0x02	; 2
    24d8:	80 93 07 02 	sts	0x0207, r24	; 0x800207 <irparams>
  irparams.rawlen = 0;
    24dc:	10 92 d4 02 	sts	0x02D4, r1	; 0x8002d4 <irparams+0xcd>
    24e0:	10 92 d3 02 	sts	0x02D3, r1	; 0x8002d3 <irparams+0xcc>
    24e4:	08 95       	ret

000024e6 <ir_decode>:


// Decodes the received IR message
// Returns 0 if no data ready, 1 if data ready.
// Results of decoding are stored in results
int ir_decode(decode_results *results) {
    24e6:	cf 93       	push	r28
    24e8:	df 93       	push	r29
  results->rawlen = irparams.rawlen;
    24ea:	20 91 d3 02 	lds	r18, 0x02D3	; 0x8002d3 <irparams+0xcc>
    24ee:	30 91 d4 02 	lds	r19, 0x02D4	; 0x8002d4 <irparams+0xcd>
    24f2:	fc 01       	movw	r30, r24
    24f4:	35 87       	std	Z+13, r19	; 0x0d
    24f6:	24 87       	std	Z+12, r18	; 0x0c
  results->rawbuf = (volatile unsigned int *)&irparams.rawbuf[0];
    24f8:	2b e0       	ldi	r18, 0x0B	; 11
    24fa:	32 e0       	ldi	r19, 0x02	; 2
    24fc:	33 87       	std	Z+11, r19	; 0x0b
    24fe:	22 87       	std	Z+10, r18	; 0x0a
  if (irparams.rcvstate != STATE_STOP) {
    2500:	20 91 07 02 	lds	r18, 0x0207	; 0x800207 <irparams>
    2504:	25 30       	cpi	r18, 0x05	; 5
    2506:	09 f0       	breq	.+2      	; 0x250a <ir_decode+0x24>
    2508:	46 c0       	rjmp	.+140    	; 0x2596 <ir_decode+0xb0>
    250a:	ec 01       	movw	r28, r24
    return ERR;
  }
  if (ir_decodeSigma(results)) {
    250c:	0e 94 6c 0a 	call	0x14d8	; 0x14d8 <ir_decodeSigma>
    2510:	67 2b       	or	r22, r23
    2512:	68 2b       	or	r22, r24
    2514:	69 2b       	or	r22, r25
    2516:	09 f0       	breq	.+2      	; 0x251a <ir_decode+0x34>
    2518:	41 c0       	rjmp	.+130    	; 0x259c <ir_decode+0xb6>
     return DECODED;
  }
  if (ir_decodeNEC(results)) {
    251a:	ce 01       	movw	r24, r28
    251c:	b5 d8       	rcall	.-3734   	; 0x1688 <ir_decodeNEC>
    251e:	67 2b       	or	r22, r23
    2520:	68 2b       	or	r22, r24
    2522:	69 2b       	or	r22, r25
    2524:	09 f0       	breq	.+2      	; 0x2528 <ir_decode+0x42>
    2526:	3d c0       	rjmp	.+122    	; 0x25a2 <ir_decode+0xbc>
    return DECODED;
  }
  if (ir_decodeSony(results)) {
    2528:	ce 01       	movw	r24, r28
    252a:	74 d9       	rcall	.-3352   	; 0x1814 <ir_decodeSony>
    252c:	67 2b       	or	r22, r23
    252e:	68 2b       	or	r22, r24
    2530:	69 2b       	or	r22, r25
    2532:	09 f0       	breq	.+2      	; 0x2536 <ir_decode+0x50>
    2534:	39 c0       	rjmp	.+114    	; 0x25a8 <ir_decode+0xc2>
    return DECODED;
  }
  if (ir_decodeSanyo(results)) {
    2536:	ce 01       	movw	r24, r28
    2538:	1a da       	rcall	.-3020   	; 0x196e <ir_decodeSanyo>
    253a:	67 2b       	or	r22, r23
    253c:	68 2b       	or	r22, r24
    253e:	69 2b       	or	r22, r25
    2540:	b1 f5       	brne	.+108    	; 0x25ae <ir_decode+0xc8>
    return DECODED;
  }
  if (ir_decodeMitsubishi(results)) {
    2542:	ce 01       	movw	r24, r28
    2544:	ce da       	rcall	.-2660   	; 0x1ae2 <ir_decodeMitsubishi>
    2546:	67 2b       	or	r22, r23
    2548:	68 2b       	or	r22, r24
    254a:	69 2b       	or	r22, r25
    254c:	99 f5       	brne	.+102    	; 0x25b4 <ir_decode+0xce>
    254e:	ce 01       	movw	r24, r28
    return DECODED;
  }
  if (ir_decodeRC5(results)) {
    2550:	0e 94 ae 09 	call	0x135c	; 0x135c <ir_decodeRC5>
    2554:	67 2b       	or	r22, r23
    2556:	68 2b       	or	r22, r24
    2558:	69 2b       	or	r22, r25
    255a:	79 f5       	brne	.+94     	; 0x25ba <ir_decode+0xd4>
    return DECODED;
  }
  if (ir_decodeRC6(results)) {
    255c:	ce 01       	movw	r24, r28
    255e:	5f db       	rcall	.-2370   	; 0x1c1e <ir_decodeRC6>
    2560:	67 2b       	or	r22, r23
    2562:	68 2b       	or	r22, r24
    2564:	69 2b       	or	r22, r25
    2566:	61 f5       	brne	.+88     	; 0x25c0 <ir_decode+0xda>
    return DECODED;
  }
  if (ir_decodePanasonic(results)) {
    2568:	ce 01       	movw	r24, r28
    256a:	58 dc       	rcall	.-1872   	; 0x1e1c <ir_decodePanasonic>
    256c:	67 2b       	or	r22, r23
    256e:	68 2b       	or	r22, r24
    2570:	69 2b       	or	r22, r25
    2572:	49 f5       	brne	.+82     	; 0x25c6 <ir_decode+0xe0>
     return DECODED;
  }
  if (ir_decodeJVC(results)) {
    2574:	ce 01       	movw	r24, r28
    2576:	2d dd       	rcall	.-1446   	; 0x1fd2 <ir_decodeJVC>
    2578:	67 2b       	or	r22, r23
    257a:	68 2b       	or	r22, r24
    257c:	69 2b       	or	r22, r25
    257e:	31 f5       	brne	.+76     	; 0x25cc <ir_decode+0xe6>
    2580:	ce 01       	movw	r24, r28
  }

  // decodeHash returns a hash on any input.
  // Thus, it needs to be last in the list.
  // If you add any decodes, add them before this.
  if (ir_decodeHash(results)) {
    2582:	0e 94 95 08 	call	0x112a	; 0x112a <ir_decodeHash>
    2586:	67 2b       	or	r22, r23
    2588:	68 2b       	or	r22, r24
    258a:	69 2b       	or	r22, r25
    258c:	11 f5       	brne	.+68     	; 0x25d2 <ir_decode+0xec>
    return DECODED;
  }
  // Throw away and start over
  ir_resume();
    258e:	a3 df       	rcall	.-186    	; 0x24d6 <ir_resume>
    2590:	80 e0       	ldi	r24, 0x00	; 0
  return ERR;
    2592:	90 e0       	ldi	r25, 0x00	; 0
    2594:	20 c0       	rjmp	.+64     	; 0x25d6 <ir_decode+0xf0>
    2596:	80 e0       	ldi	r24, 0x00	; 0
// Results of decoding are stored in results
int ir_decode(decode_results *results) {
  results->rawlen = irparams.rawlen;
  results->rawbuf = (volatile unsigned int *)&irparams.rawbuf[0];
  if (irparams.rcvstate != STATE_STOP) {
    return ERR;
    2598:	90 e0       	ldi	r25, 0x00	; 0
    259a:	1d c0       	rjmp	.+58     	; 0x25d6 <ir_decode+0xf0>
    259c:	81 e0       	ldi	r24, 0x01	; 1
  }
  if (ir_decodeSigma(results)) {
     return DECODED;
    259e:	90 e0       	ldi	r25, 0x00	; 0
    25a0:	1a c0       	rjmp	.+52     	; 0x25d6 <ir_decode+0xf0>
    25a2:	81 e0       	ldi	r24, 0x01	; 1
  }
  if (ir_decodeNEC(results)) {
    return DECODED;
    25a4:	90 e0       	ldi	r25, 0x00	; 0
    25a6:	17 c0       	rjmp	.+46     	; 0x25d6 <ir_decode+0xf0>
    25a8:	81 e0       	ldi	r24, 0x01	; 1
  }
  if (ir_decodeSony(results)) {
    return DECODED;
    25aa:	90 e0       	ldi	r25, 0x00	; 0
    25ac:	14 c0       	rjmp	.+40     	; 0x25d6 <ir_decode+0xf0>
    25ae:	81 e0       	ldi	r24, 0x01	; 1
  }
  if (ir_decodeSanyo(results)) {
    return DECODED;
    25b0:	90 e0       	ldi	r25, 0x00	; 0
    25b2:	11 c0       	rjmp	.+34     	; 0x25d6 <ir_decode+0xf0>
    25b4:	81 e0       	ldi	r24, 0x01	; 1
  }
  if (ir_decodeMitsubishi(results)) {
    return DECODED;
    25b6:	90 e0       	ldi	r25, 0x00	; 0
    25b8:	0e c0       	rjmp	.+28     	; 0x25d6 <ir_decode+0xf0>
    25ba:	81 e0       	ldi	r24, 0x01	; 1
  }
  if (ir_decodeRC5(results)) {
    return DECODED;
    25bc:	90 e0       	ldi	r25, 0x00	; 0
    25be:	0b c0       	rjmp	.+22     	; 0x25d6 <ir_decode+0xf0>
    25c0:	81 e0       	ldi	r24, 0x01	; 1
  }
  if (ir_decodeRC6(results)) {
    return DECODED;
    25c2:	90 e0       	ldi	r25, 0x00	; 0
    25c4:	08 c0       	rjmp	.+16     	; 0x25d6 <ir_decode+0xf0>
    25c6:	81 e0       	ldi	r24, 0x01	; 1
  }
  if (ir_decodePanasonic(results)) {
     return DECODED;
    25c8:	90 e0       	ldi	r25, 0x00	; 0
    25ca:	05 c0       	rjmp	.+10     	; 0x25d6 <ir_decode+0xf0>
    25cc:	81 e0       	ldi	r24, 0x01	; 1
  }
  if (ir_decodeJVC(results)) {
     return DECODED;
    25ce:	90 e0       	ldi	r25, 0x00	; 0
    25d0:	02 c0       	rjmp	.+4      	; 0x25d6 <ir_decode+0xf0>
    25d2:	81 e0       	ldi	r24, 0x01	; 1

  // decodeHash returns a hash on any input.
  // Thus, it needs to be last in the list.
  // If you add any decodes, add them before this.
  if (ir_decodeHash(results)) {
    return DECODED;
    25d4:	90 e0       	ldi	r25, 0x00	; 0
    25d6:	df 91       	pop	r29
  }
  // Throw away and start over
  ir_resume();
  return ERR;
}
    25d8:	cf 91       	pop	r28
    25da:	08 95       	ret

000025dc <lcd_read>:
    25dc:	cf 93       	push	r28

    while ( (c = pgm_read_byte(progmem_s++)) ) {
        lcd_putc(c);
    }

}/* lcd_puts_p */
    25de:	88 23       	and	r24, r24
    25e0:	31 f0       	breq	.+12     	; 0x25ee <lcd_read+0x12>
    25e2:	80 91 02 02 	lds	r24, 0x0202	; 0x800202 <dataport>
    25e6:	81 60       	ori	r24, 0x01	; 1
    25e8:	80 93 02 02 	sts	0x0202, r24	; 0x800202 <dataport>
    25ec:	05 c0       	rjmp	.+10     	; 0x25f8 <lcd_read+0x1c>
    25ee:	80 91 02 02 	lds	r24, 0x0202	; 0x800202 <dataport>
    25f2:	8e 7f       	andi	r24, 0xFE	; 254
    25f4:	80 93 02 02 	sts	0x0202, r24	; 0x800202 <dataport>
    25f8:	80 91 02 02 	lds	r24, 0x0202	; 0x800202 <dataport>
    25fc:	82 60       	ori	r24, 0x02	; 2
    25fe:	80 93 02 02 	sts	0x0202, r24	; 0x800202 <dataport>
    2602:	60 91 02 02 	lds	r22, 0x0202	; 0x800202 <dataport>
    2606:	87 e0       	ldi	r24, 0x07	; 7
    2608:	0e d2       	rcall	.+1052   	; 0x2a26 <pcf8574_setoutput>
    260a:	62 e0       	ldi	r22, 0x02	; 2
    260c:	87 e0       	ldi	r24, 0x07	; 7
    260e:	57 d2       	rcall	.+1198   	; 0x2abe <pcf8574_setoutputpinhigh>
    2610:	00 c0       	rjmp	.+0      	; 0x2612 <lcd_read+0x36>
    2612:	64 e0       	ldi	r22, 0x04	; 4
    2614:	87 e0       	ldi	r24, 0x07	; 7
    2616:	6e d2       	rcall	.+1244   	; 0x2af4 <pcf8574_getinputpin>
    2618:	88 23       	and	r24, r24
    261a:	11 f0       	breq	.+4      	; 0x2620 <lcd_read+0x44>
    261c:	c0 e0       	ldi	r28, 0x00	; 0
    261e:	01 c0       	rjmp	.+2      	; 0x2622 <lcd_read+0x46>
    2620:	c0 e1       	ldi	r28, 0x10	; 16
    2622:	65 e0       	ldi	r22, 0x05	; 5
    2624:	87 e0       	ldi	r24, 0x07	; 7
    2626:	66 d2       	rcall	.+1228   	; 0x2af4 <pcf8574_getinputpin>
    2628:	81 11       	cpse	r24, r1
    262a:	01 c0       	rjmp	.+2      	; 0x262e <lcd_read+0x52>
    262c:	c0 62       	ori	r28, 0x20	; 32
    262e:	66 e0       	ldi	r22, 0x06	; 6
    2630:	87 e0       	ldi	r24, 0x07	; 7
    2632:	60 d2       	rcall	.+1216   	; 0x2af4 <pcf8574_getinputpin>
    2634:	81 11       	cpse	r24, r1
    2636:	01 c0       	rjmp	.+2      	; 0x263a <lcd_read+0x5e>
    2638:	c0 64       	ori	r28, 0x40	; 64
    263a:	67 e0       	ldi	r22, 0x07	; 7
    263c:	87 e0       	ldi	r24, 0x07	; 7
    263e:	5a d2       	rcall	.+1204   	; 0x2af4 <pcf8574_getinputpin>
    2640:	81 11       	cpse	r24, r1
    2642:	01 c0       	rjmp	.+2      	; 0x2646 <lcd_read+0x6a>
    2644:	c0 68       	ori	r28, 0x80	; 128
    2646:	62 e0       	ldi	r22, 0x02	; 2
    2648:	87 e0       	ldi	r24, 0x07	; 7
    264a:	3c d2       	rcall	.+1144   	; 0x2ac4 <pcf8574_setoutputpinlow>
    264c:	00 c0       	rjmp	.+0      	; 0x264e <lcd_read+0x72>
    264e:	62 e0       	ldi	r22, 0x02	; 2
    2650:	87 e0       	ldi	r24, 0x07	; 7
    2652:	35 d2       	rcall	.+1130   	; 0x2abe <pcf8574_setoutputpinhigh>
    2654:	00 c0       	rjmp	.+0      	; 0x2656 <lcd_read+0x7a>
    2656:	64 e0       	ldi	r22, 0x04	; 4
    2658:	87 e0       	ldi	r24, 0x07	; 7
    265a:	4c d2       	rcall	.+1176   	; 0x2af4 <pcf8574_getinputpin>
    265c:	81 11       	cpse	r24, r1
    265e:	01 c0       	rjmp	.+2      	; 0x2662 <lcd_read+0x86>
    2660:	c1 60       	ori	r28, 0x01	; 1
    2662:	65 e0       	ldi	r22, 0x05	; 5
    2664:	87 e0       	ldi	r24, 0x07	; 7
    2666:	46 d2       	rcall	.+1164   	; 0x2af4 <pcf8574_getinputpin>
    2668:	81 11       	cpse	r24, r1
    266a:	01 c0       	rjmp	.+2      	; 0x266e <lcd_read+0x92>
    266c:	c2 60       	ori	r28, 0x02	; 2
    266e:	66 e0       	ldi	r22, 0x06	; 6
    2670:	87 e0       	ldi	r24, 0x07	; 7
    2672:	40 d2       	rcall	.+1152   	; 0x2af4 <pcf8574_getinputpin>
    2674:	81 11       	cpse	r24, r1
    2676:	01 c0       	rjmp	.+2      	; 0x267a <lcd_read+0x9e>
    2678:	c4 60       	ori	r28, 0x04	; 4
    267a:	67 e0       	ldi	r22, 0x07	; 7
    267c:	87 e0       	ldi	r24, 0x07	; 7
    267e:	3a d2       	rcall	.+1140   	; 0x2af4 <pcf8574_getinputpin>
    2680:	81 11       	cpse	r24, r1
    2682:	01 c0       	rjmp	.+2      	; 0x2686 <lcd_read+0xaa>
    2684:	c8 60       	ori	r28, 0x08	; 8
    2686:	62 e0       	ldi	r22, 0x02	; 2
    2688:	87 e0       	ldi	r24, 0x07	; 7
    268a:	1c d2       	rcall	.+1080   	; 0x2ac4 <pcf8574_setoutputpinlow>
    268c:	8c 2f       	mov	r24, r28
    268e:	cf 91       	pop	r28
    2690:	08 95       	ret

00002692 <lcd_waitbusy>:
    2692:	80 e0       	ldi	r24, 0x00	; 0
    2694:	a3 df       	rcall	.-186    	; 0x25dc <lcd_read>
    2696:	88 23       	and	r24, r24
    2698:	e4 f3       	brlt	.-8      	; 0x2692 <lcd_waitbusy>
    269a:	84 e0       	ldi	r24, 0x04	; 4
    269c:	90 e0       	ldi	r25, 0x00	; 0
    269e:	01 97       	sbiw	r24, 0x01	; 1
    26a0:	f1 f7       	brne	.-4      	; 0x269e <lcd_waitbusy+0xc>
    26a2:	80 e0       	ldi	r24, 0x00	; 0
    26a4:	9b cf       	rjmp	.-202    	; 0x25dc <lcd_read>
    26a6:	08 95       	ret

000026a8 <toggle_e>:
    26a8:	62 e0       	ldi	r22, 0x02	; 2
    26aa:	87 e0       	ldi	r24, 0x07	; 7
    26ac:	08 d2       	rcall	.+1040   	; 0x2abe <pcf8574_setoutputpinhigh>
    26ae:	00 c0       	rjmp	.+0      	; 0x26b0 <toggle_e+0x8>
    26b0:	62 e0       	ldi	r22, 0x02	; 2
    26b2:	87 e0       	ldi	r24, 0x07	; 7
    26b4:	07 c2       	rjmp	.+1038   	; 0x2ac4 <pcf8574_setoutputpinlow>
    26b6:	08 95       	ret

000026b8 <lcd_write>:
    26b8:	cf 93       	push	r28
    26ba:	c8 2f       	mov	r28, r24
    26bc:	66 23       	and	r22, r22
    26be:	31 f0       	breq	.+12     	; 0x26cc <lcd_write+0x14>
    26c0:	80 91 02 02 	lds	r24, 0x0202	; 0x800202 <dataport>
    26c4:	81 60       	ori	r24, 0x01	; 1
    26c6:	80 93 02 02 	sts	0x0202, r24	; 0x800202 <dataport>
    26ca:	05 c0       	rjmp	.+10     	; 0x26d6 <lcd_write+0x1e>
    26cc:	80 91 02 02 	lds	r24, 0x0202	; 0x800202 <dataport>
    26d0:	8e 7f       	andi	r24, 0xFE	; 254
    26d2:	80 93 02 02 	sts	0x0202, r24	; 0x800202 <dataport>
    26d6:	80 91 02 02 	lds	r24, 0x0202	; 0x800202 <dataport>
    26da:	8d 7f       	andi	r24, 0xFD	; 253
    26dc:	80 93 02 02 	sts	0x0202, r24	; 0x800202 <dataport>
    26e0:	60 91 02 02 	lds	r22, 0x0202	; 0x800202 <dataport>
    26e4:	87 e0       	ldi	r24, 0x07	; 7
    26e6:	9f d1       	rcall	.+830    	; 0x2a26 <pcf8574_setoutput>
    26e8:	80 91 02 02 	lds	r24, 0x0202	; 0x800202 <dataport>
    26ec:	8f 77       	andi	r24, 0x7F	; 127
    26ee:	80 93 02 02 	sts	0x0202, r24	; 0x800202 <dataport>
    26f2:	80 91 02 02 	lds	r24, 0x0202	; 0x800202 <dataport>
    26f6:	8f 7b       	andi	r24, 0xBF	; 191
    26f8:	80 93 02 02 	sts	0x0202, r24	; 0x800202 <dataport>
    26fc:	80 91 02 02 	lds	r24, 0x0202	; 0x800202 <dataport>
    2700:	8f 7d       	andi	r24, 0xDF	; 223
    2702:	80 93 02 02 	sts	0x0202, r24	; 0x800202 <dataport>
    2706:	80 91 02 02 	lds	r24, 0x0202	; 0x800202 <dataport>
    270a:	8f 7e       	andi	r24, 0xEF	; 239
    270c:	80 93 02 02 	sts	0x0202, r24	; 0x800202 <dataport>
    2710:	cc 23       	and	r28, r28
    2712:	2c f4       	brge	.+10     	; 0x271e <lcd_write+0x66>
    2714:	80 91 02 02 	lds	r24, 0x0202	; 0x800202 <dataport>
    2718:	80 68       	ori	r24, 0x80	; 128
    271a:	80 93 02 02 	sts	0x0202, r24	; 0x800202 <dataport>
    271e:	c6 ff       	sbrs	r28, 6
    2720:	05 c0       	rjmp	.+10     	; 0x272c <lcd_write+0x74>
    2722:	80 91 02 02 	lds	r24, 0x0202	; 0x800202 <dataport>
    2726:	80 64       	ori	r24, 0x40	; 64
    2728:	80 93 02 02 	sts	0x0202, r24	; 0x800202 <dataport>
    272c:	c5 ff       	sbrs	r28, 5
    272e:	05 c0       	rjmp	.+10     	; 0x273a <lcd_write+0x82>
    2730:	80 91 02 02 	lds	r24, 0x0202	; 0x800202 <dataport>
    2734:	80 62       	ori	r24, 0x20	; 32
    2736:	80 93 02 02 	sts	0x0202, r24	; 0x800202 <dataport>
    273a:	c4 ff       	sbrs	r28, 4
    273c:	05 c0       	rjmp	.+10     	; 0x2748 <lcd_write+0x90>
    273e:	80 91 02 02 	lds	r24, 0x0202	; 0x800202 <dataport>
    2742:	80 61       	ori	r24, 0x10	; 16
    2744:	80 93 02 02 	sts	0x0202, r24	; 0x800202 <dataport>
    2748:	60 91 02 02 	lds	r22, 0x0202	; 0x800202 <dataport>
    274c:	87 e0       	ldi	r24, 0x07	; 7
    274e:	6b d1       	rcall	.+726    	; 0x2a26 <pcf8574_setoutput>
    2750:	ab df       	rcall	.-170    	; 0x26a8 <toggle_e>
    2752:	80 91 02 02 	lds	r24, 0x0202	; 0x800202 <dataport>
    2756:	8f 77       	andi	r24, 0x7F	; 127
    2758:	80 93 02 02 	sts	0x0202, r24	; 0x800202 <dataport>
    275c:	80 91 02 02 	lds	r24, 0x0202	; 0x800202 <dataport>
    2760:	8f 7b       	andi	r24, 0xBF	; 191
    2762:	80 93 02 02 	sts	0x0202, r24	; 0x800202 <dataport>
    2766:	80 91 02 02 	lds	r24, 0x0202	; 0x800202 <dataport>
    276a:	8f 7d       	andi	r24, 0xDF	; 223
    276c:	80 93 02 02 	sts	0x0202, r24	; 0x800202 <dataport>
    2770:	80 91 02 02 	lds	r24, 0x0202	; 0x800202 <dataport>
    2774:	8f 7e       	andi	r24, 0xEF	; 239
    2776:	80 93 02 02 	sts	0x0202, r24	; 0x800202 <dataport>
    277a:	c3 ff       	sbrs	r28, 3
    277c:	05 c0       	rjmp	.+10     	; 0x2788 <lcd_write+0xd0>
    277e:	80 91 02 02 	lds	r24, 0x0202	; 0x800202 <dataport>
    2782:	80 68       	ori	r24, 0x80	; 128
    2784:	80 93 02 02 	sts	0x0202, r24	; 0x800202 <dataport>
    2788:	c2 ff       	sbrs	r28, 2
    278a:	05 c0       	rjmp	.+10     	; 0x2796 <lcd_write+0xde>
    278c:	80 91 02 02 	lds	r24, 0x0202	; 0x800202 <dataport>
    2790:	80 64       	ori	r24, 0x40	; 64
    2792:	80 93 02 02 	sts	0x0202, r24	; 0x800202 <dataport>
    2796:	c1 ff       	sbrs	r28, 1
    2798:	05 c0       	rjmp	.+10     	; 0x27a4 <lcd_write+0xec>
    279a:	80 91 02 02 	lds	r24, 0x0202	; 0x800202 <dataport>
    279e:	80 62       	ori	r24, 0x20	; 32
    27a0:	80 93 02 02 	sts	0x0202, r24	; 0x800202 <dataport>
    27a4:	c0 ff       	sbrs	r28, 0
    27a6:	05 c0       	rjmp	.+10     	; 0x27b2 <lcd_write+0xfa>
    27a8:	80 91 02 02 	lds	r24, 0x0202	; 0x800202 <dataport>
    27ac:	80 61       	ori	r24, 0x10	; 16
    27ae:	80 93 02 02 	sts	0x0202, r24	; 0x800202 <dataport>
    27b2:	60 91 02 02 	lds	r22, 0x0202	; 0x800202 <dataport>
    27b6:	87 e0       	ldi	r24, 0x07	; 7
    27b8:	36 d1       	rcall	.+620    	; 0x2a26 <pcf8574_setoutput>
    27ba:	76 df       	rcall	.-276    	; 0x26a8 <toggle_e>
    27bc:	80 91 02 02 	lds	r24, 0x0202	; 0x800202 <dataport>
    27c0:	80 61       	ori	r24, 0x10	; 16
    27c2:	80 93 02 02 	sts	0x0202, r24	; 0x800202 <dataport>
    27c6:	80 91 02 02 	lds	r24, 0x0202	; 0x800202 <dataport>
    27ca:	80 62       	ori	r24, 0x20	; 32
    27cc:	80 93 02 02 	sts	0x0202, r24	; 0x800202 <dataport>
    27d0:	80 91 02 02 	lds	r24, 0x0202	; 0x800202 <dataport>
    27d4:	80 64       	ori	r24, 0x40	; 64
    27d6:	80 93 02 02 	sts	0x0202, r24	; 0x800202 <dataport>
    27da:	80 91 02 02 	lds	r24, 0x0202	; 0x800202 <dataport>
    27de:	80 68       	ori	r24, 0x80	; 128
    27e0:	80 93 02 02 	sts	0x0202, r24	; 0x800202 <dataport>
    27e4:	60 91 02 02 	lds	r22, 0x0202	; 0x800202 <dataport>
    27e8:	87 e0       	ldi	r24, 0x07	; 7
    27ea:	1d d1       	rcall	.+570    	; 0x2a26 <pcf8574_setoutput>
    27ec:	cf 91       	pop	r28
    27ee:	08 95       	ret

000027f0 <lcd_command>:
    27f0:	cf 93       	push	r28
    27f2:	c8 2f       	mov	r28, r24
    27f4:	4e df       	rcall	.-356    	; 0x2692 <lcd_waitbusy>
    27f6:	60 e0       	ldi	r22, 0x00	; 0
    27f8:	8c 2f       	mov	r24, r28
    27fa:	5e df       	rcall	.-324    	; 0x26b8 <lcd_write>
    27fc:	cf 91       	pop	r28
    27fe:	08 95       	ret

00002800 <lcd_gotoxy>:
    2800:	61 11       	cpse	r22, r1
    2802:	03 c0       	rjmp	.+6      	; 0x280a <lcd_gotoxy+0xa>
    2804:	80 58       	subi	r24, 0x80	; 128
    2806:	f4 cf       	rjmp	.-24     	; 0x27f0 <lcd_command>
    2808:	08 95       	ret
    280a:	80 54       	subi	r24, 0x40	; 64
    280c:	f1 cf       	rjmp	.-30     	; 0x27f0 <lcd_command>
    280e:	08 95       	ret

00002810 <lcd_clrscr>:
    2810:	81 e0       	ldi	r24, 0x01	; 1
    2812:	ee cf       	rjmp	.-36     	; 0x27f0 <lcd_command>
    2814:	08 95       	ret

00002816 <lcd_led>:
    2816:	88 23       	and	r24, r24
    2818:	31 f0       	breq	.+12     	; 0x2826 <lcd_led+0x10>
    281a:	80 91 02 02 	lds	r24, 0x0202	; 0x800202 <dataport>
    281e:	87 7f       	andi	r24, 0xF7	; 247
    2820:	80 93 02 02 	sts	0x0202, r24	; 0x800202 <dataport>
    2824:	05 c0       	rjmp	.+10     	; 0x2830 <lcd_led+0x1a>
    2826:	80 91 02 02 	lds	r24, 0x0202	; 0x800202 <dataport>
    282a:	88 60       	ori	r24, 0x08	; 8
    282c:	80 93 02 02 	sts	0x0202, r24	; 0x800202 <dataport>
    2830:	60 91 02 02 	lds	r22, 0x0202	; 0x800202 <dataport>
    2834:	87 e0       	ldi	r24, 0x07	; 7
    2836:	f7 c0       	rjmp	.+494    	; 0x2a26 <pcf8574_setoutput>
    2838:	08 95       	ret

0000283a <lcd_home>:
    283a:	82 e0       	ldi	r24, 0x02	; 2
    283c:	d9 cf       	rjmp	.-78     	; 0x27f0 <lcd_command>
    283e:	08 95       	ret

00002840 <lcd_putc>:
    2840:	cf 93       	push	r28
    2842:	c8 2f       	mov	r28, r24
    2844:	26 df       	rcall	.-436    	; 0x2692 <lcd_waitbusy>
    2846:	ca 30       	cpi	r28, 0x0A	; 10
    2848:	41 f4       	brne	.+16     	; 0x285a <lcd_putc+0x1a>
    284a:	80 34       	cpi	r24, 0x40	; 64
    284c:	10 f4       	brcc	.+4      	; 0x2852 <lcd_putc+0x12>
    284e:	80 e4       	ldi	r24, 0x40	; 64
    2850:	01 c0       	rjmp	.+2      	; 0x2854 <lcd_putc+0x14>
    2852:	80 e0       	ldi	r24, 0x00	; 0
    2854:	80 58       	subi	r24, 0x80	; 128
    2856:	cc df       	rcall	.-104    	; 0x27f0 <lcd_command>
    2858:	03 c0       	rjmp	.+6      	; 0x2860 <lcd_putc+0x20>
    285a:	61 e0       	ldi	r22, 0x01	; 1
    285c:	8c 2f       	mov	r24, r28
    285e:	2c df       	rcall	.-424    	; 0x26b8 <lcd_write>
    2860:	cf 91       	pop	r28
    2862:	08 95       	ret

00002864 <lcd_puts>:
    2864:	cf 93       	push	r28
    2866:	df 93       	push	r29
    2868:	fc 01       	movw	r30, r24
    286a:	02 c0       	rjmp	.+4      	; 0x2870 <lcd_puts+0xc>
    286c:	e9 df       	rcall	.-46     	; 0x2840 <lcd_putc>
    286e:	fe 01       	movw	r30, r28
    2870:	ef 01       	movw	r28, r30
    2872:	21 96       	adiw	r28, 0x01	; 1
    2874:	80 81       	ld	r24, Z
    2876:	81 11       	cpse	r24, r1
    2878:	f9 cf       	rjmp	.-14     	; 0x286c <lcd_puts+0x8>
    287a:	df 91       	pop	r29
    287c:	cf 91       	pop	r28
    287e:	08 95       	ret

00002880 <lcd_init>:
                   LCD_DISP_ON_CURSOR      display on, cursor on
                   LCD_DISP_CURSOR_BLINK   display on, cursor on flashing
Returns:  none
*************************************************************************/
void lcd_init(uint8_t dispAttr)
{
    2880:	1f 93       	push	r17
    2882:	cf 93       	push	r28
    2884:	df 93       	push	r29
    2886:	18 2f       	mov	r17, r24
	#if LCD_PCF8574_INIT == 1
	//init pcf8574
	pcf8574_init();
    2888:	bd d0       	rcall	.+378    	; 0x2a04 <pcf8574_init>
	#endif

	dataport = 0;
    288a:	10 92 02 02 	sts	0x0202, r1	; 0x800202 <dataport>
	pcf8574_setoutput(LCD_PCF8574_DEVICEID, dataport);
    288e:	60 91 02 02 	lds	r22, 0x0202	; 0x800202 <dataport>
    2892:	87 e0       	ldi	r24, 0x07	; 7
    2894:	c8 d0       	rcall	.+400    	; 0x2a26 <pcf8574_setoutput>
static inline void _delayFourCycles(unsigned int __count)
{
    if ( __count == 0 )    
        __asm__ __volatile__( "rjmp 1f\n 1:" );    // 2 cycles
    else
        __asm__ __volatile__ (
    2896:	80 e0       	ldi	r24, 0x00	; 0
    2898:	9d e7       	ldi	r25, 0x7D	; 125
    289a:	01 97       	sbiw	r24, 0x01	; 1
    289c:	f1 f7       	brne	.-4      	; 0x289a <lcd_init+0x1a>
	pcf8574_setoutput(LCD_PCF8574_DEVICEID, dataport);

	delay(16000);        /* wait 16ms or more after power-on       */

    /* initial write to lcd is 8bit */
    dataport |= _BV(LCD_DATA1_PIN);  // _BV(LCD_FUNCTION)>>4;
    289e:	80 91 02 02 	lds	r24, 0x0202	; 0x800202 <dataport>
    28a2:	80 62       	ori	r24, 0x20	; 32
    28a4:	80 93 02 02 	sts	0x0202, r24	; 0x800202 <dataport>
    dataport |= _BV(LCD_DATA0_PIN);  // _BV(LCD_FUNCTION_8BIT)>>4;
    28a8:	80 91 02 02 	lds	r24, 0x0202	; 0x800202 <dataport>
    28ac:	80 61       	ori	r24, 0x10	; 16
    28ae:	80 93 02 02 	sts	0x0202, r24	; 0x800202 <dataport>
    pcf8574_setoutput(LCD_PCF8574_DEVICEID, dataport);
    28b2:	60 91 02 02 	lds	r22, 0x0202	; 0x800202 <dataport>
    28b6:	87 e0       	ldi	r24, 0x07	; 7

    lcd_e_toggle();
    28b8:	b6 d0       	rcall	.+364    	; 0x2a26 <pcf8574_setoutput>
    28ba:	f6 de       	rcall	.-532    	; 0x26a8 <toggle_e>
static inline void _delayFourCycles(unsigned int __count)
{
    if ( __count == 0 )    
        __asm__ __volatile__( "rjmp 1f\n 1:" );    // 2 cycles
    else
        __asm__ __volatile__ (
    28bc:	80 e0       	ldi	r24, 0x00	; 0
    28be:	97 e2       	ldi	r25, 0x27	; 39
    28c0:	01 97       	sbiw	r24, 0x01	; 1

    lcd_e_toggle();
    delay(4992);         /* delay, busy flag can't be checked here */

    /* repeat last command */ 
    lcd_e_toggle();      
    28c2:	f1 f7       	brne	.-4      	; 0x28c0 <lcd_init+0x40>
    28c4:	f1 de       	rcall	.-542    	; 0x26a8 <toggle_e>
static inline void _delayFourCycles(unsigned int __count)
{
    if ( __count == 0 )    
        __asm__ __volatile__( "rjmp 1f\n 1:" );    // 2 cycles
    else
        __asm__ __volatile__ (
    28c6:	c0 e8       	ldi	r28, 0x80	; 128
    28c8:	d0 e0       	ldi	r29, 0x00	; 0
    28ca:	ce 01       	movw	r24, r28
    28cc:	01 97       	sbiw	r24, 0x01	; 1
    /* repeat last command */ 
    lcd_e_toggle();      
    delay(64);           /* delay, busy flag can't be checked here */
    
    /* repeat last command a third time */
    lcd_e_toggle();      
    28ce:	f1 f7       	brne	.-4      	; 0x28cc <lcd_init+0x4c>
    28d0:	eb de       	rcall	.-554    	; 0x26a8 <toggle_e>
static inline void _delayFourCycles(unsigned int __count)
{
    if ( __count == 0 )    
        __asm__ __volatile__( "rjmp 1f\n 1:" );    // 2 cycles
    else
        __asm__ __volatile__ (
    28d2:	ce 01       	movw	r24, r28
    28d4:	01 97       	sbiw	r24, 0x01	; 1
    28d6:	f1 f7       	brne	.-4      	; 0x28d4 <lcd_init+0x54>
    /* repeat last command a third time */
    lcd_e_toggle();      
    delay(64);           /* delay, busy flag can't be checked here */

    /* now configure for 4bit mode */
    dataport &= ~_BV(LCD_DATA0_PIN);
    28d8:	80 91 02 02 	lds	r24, 0x0202	; 0x800202 <dataport>
    28dc:	8f 7e       	andi	r24, 0xEF	; 239
    pcf8574_setoutput(LCD_PCF8574_DEVICEID, dataport);
    28de:	80 93 02 02 	sts	0x0202, r24	; 0x800202 <dataport>
    28e2:	60 91 02 02 	lds	r22, 0x0202	; 0x800202 <dataport>
    lcd_e_toggle();
    28e6:	87 e0       	ldi	r24, 0x07	; 7
static inline void _delayFourCycles(unsigned int __count)
{
    if ( __count == 0 )    
        __asm__ __volatile__( "rjmp 1f\n 1:" );    // 2 cycles
    else
        __asm__ __volatile__ (
    28e8:	9e d0       	rcall	.+316    	; 0x2a26 <pcf8574_setoutput>
    lcd_e_toggle();
    delay(64);           /* some displays need this additional delay */
    
    /* from now the LCD only accepts 4 bit I/O, we can use lcd_command() */    

    lcd_command(LCD_FUNCTION_DEFAULT);      /* function set: display lines  */
    28ea:	de de       	rcall	.-580    	; 0x26a8 <toggle_e>
    28ec:	21 97       	sbiw	r28, 0x01	; 1

    lcd_command(LCD_DISP_OFF);              /* display off                  */
    28ee:	f1 f7       	brne	.-4      	; 0x28ec <lcd_init+0x6c>
    28f0:	88 e2       	ldi	r24, 0x28	; 40
    28f2:	7e df       	rcall	.-260    	; 0x27f0 <lcd_command>
    lcd_clrscr();                           /* display clear                */
    28f4:	88 e0       	ldi	r24, 0x08	; 8
    28f6:	7c df       	rcall	.-264    	; 0x27f0 <lcd_command>
    lcd_command(LCD_MODE_DEFAULT);          /* set entry mode               */
    28f8:	8b df       	rcall	.-234    	; 0x2810 <lcd_clrscr>
    28fa:	86 e0       	ldi	r24, 0x06	; 6
    28fc:	79 df       	rcall	.-270    	; 0x27f0 <lcd_command>
    lcd_command(dispAttr);                  /* display/cursor control       */
    28fe:	81 2f       	mov	r24, r17
    2900:	77 df       	rcall	.-274    	; 0x27f0 <lcd_command>
    2902:	df 91       	pop	r29

}/* lcd_init */
    2904:	cf 91       	pop	r28
    2906:	1f 91       	pop	r17
    2908:	08 95       	ret

0000290a <main>:
#include "lcdpcf8574.h"



int main(void)
{
    290a:	cf 93       	push	r28
    290c:	df 93       	push	r29
    290e:	00 d0       	rcall	.+0      	; 0x2910 <main+0x6>
    2910:	cd b7       	in	r28, 0x3d	; 61
    2912:	de b7       	in	r29, 0x3e	; 62
	uint16_t  keyboardRef;
	DDRD |= 1<<6;
    2914:	8a b1       	in	r24, 0x0a	; 10
    2916:	80 64       	ori	r24, 0x40	; 64
    2918:	8a b9       	out	0x0a, r24	; 10
	initSysTick();
    291a:	04 d1       	rcall	.+520    	; 0x2b24 <initSysTick>
	sei();
    291c:	78 94       	sei
	lcd_init(LCD_DISP_ON);
    291e:	8c e0       	ldi	r24, 0x0C	; 12
    2920:	af df       	rcall	.-162    	; 0x2880 <lcd_init>
	lcd_led(0);
    2922:	80 e0       	ldi	r24, 0x00	; 0
    2924:	78 df       	rcall	.-272    	; 0x2816 <lcd_led>
    2926:	8a e7       	ldi	r24, 0x7A	; 122
	
	updatePtr = updateMain;
    2928:	93 e0       	ldi	r25, 0x03	; 3
    292a:	90 93 06 02 	sts	0x0206, r25	; 0x800206 <updatePtr+0x1>
    292e:	80 93 05 02 	sts	0x0205, r24	; 0x800205 <updatePtr>
	
	
	marqueTime16(&keyboardRef);
    2932:	ce 01       	movw	r24, r28
    2934:	01 96       	adiw	r24, 0x01	; 1
    2936:	0c d1       	rcall	.+536    	; 0x2b50 <marqueTime16>
	while(1)
	{
		if(elapsedTime16(&keyboardRef)>2) // 20ms
    2938:	ce 01       	movw	r24, r28
    293a:	01 96       	adiw	r24, 0x01	; 1
    293c:	11 d1       	rcall	.+546    	; 0x2b60 <elapsedTime16>
    293e:	03 97       	sbiw	r24, 0x03	; 3
    2940:	28 f0       	brcs	.+10     	; 0x294c <main+0x42>
		{
			processKeyboard();
    2942:	0e 94 4c 03 	call	0x698	; 0x698 <processKeyboard>
			marqueTime16(&keyboardRef);
    2946:	ce 01       	movw	r24, r28
    2948:	01 96       	adiw	r24, 0x01	; 1
    294a:	02 d1       	rcall	.+516    	; 0x2b50 <marqueTime16>
    294c:	80 91 00 01 	lds	r24, 0x0100	; 0x800100 <ChangedScreen>
		}
		if(ChangedScreen)
    2950:	88 23       	and	r24, r24
    2952:	41 f0       	breq	.+16     	; 0x2964 <main+0x5a>
    2954:	e0 91 05 02 	lds	r30, 0x0205	; 0x800205 <updatePtr>
		{
			updatePtr();
    2958:	f0 91 06 02 	lds	r31, 0x0206	; 0x800206 <updatePtr+0x1>
    295c:	09 95       	icall
    295e:	10 92 00 01 	sts	0x0100, r1	; 0x800100 <ChangedScreen>
			ChangedScreen=0;
    2962:	05 c0       	rjmp	.+10     	; 0x296e <main+0x64>
    2964:	e0 91 05 02 	lds	r30, 0x0205	; 0x800205 <updatePtr>
		}
		else
			updatePtr();
    2968:	f0 91 06 02 	lds	r31, 0x0206	; 0x800206 <updatePtr+0x1>
    296c:	09 95       	icall
    296e:	0e 94 e0 05 	call	0xbc0	; 0xbc0 <render>
		render();
    2972:	0e 94 27 03 	call	0x64e	; 0x64e <clearKeys>
		clearKeys();
    2976:	e0 cf       	rjmp	.-64     	; 0x2938 <main+0x2e>

00002978 <__vector_14>:
	}
    2978:	1f 92       	push	r1
	
	
}

ISR(TIMER0_COMPA_vect)
{
    297a:	0f 92       	push	r0
    297c:	0f b6       	in	r0, 0x3f	; 63
    297e:	0f 92       	push	r0
    2980:	11 24       	eor	r1, r1
    2982:	2f 93       	push	r18
    2984:	3f 93       	push	r19
    2986:	4f 93       	push	r20
    2988:	5f 93       	push	r21
    298a:	6f 93       	push	r22
    298c:	7f 93       	push	r23
    298e:	8f 93       	push	r24
    2990:	9f 93       	push	r25
    2992:	af 93       	push	r26
    2994:	bf 93       	push	r27
    2996:	ef 93       	push	r30
    2998:	ff 93       	push	r31
	ir_interruptService();
    299a:	f5 dc       	rcall	.-1558   	; 0x2386 <ir_interruptService>
}
    299c:	ff 91       	pop	r31
    299e:	ef 91       	pop	r30
    29a0:	bf 91       	pop	r27
    29a2:	af 91       	pop	r26
    29a4:	9f 91       	pop	r25
    29a6:	8f 91       	pop	r24
    29a8:	7f 91       	pop	r23
    29aa:	6f 91       	pop	r22
    29ac:	5f 91       	pop	r21
    29ae:	4f 91       	pop	r20
    29b0:	3f 91       	pop	r19
    29b2:	2f 91       	pop	r18
    29b4:	0f 90       	pop	r0
    29b6:	0f be       	out	0x3f, r0	; 63
    29b8:	0f 90       	pop	r0
    29ba:	1f 90       	pop	r1
    29bc:	18 95       	reti

000029be <__vector_7>:
ISR(TIMER2_COMPA_vect)
{
    29be:	1f 92       	push	r1
    29c0:	0f 92       	push	r0
    29c2:	0f b6       	in	r0, 0x3f	; 63
    29c4:	0f 92       	push	r0
    29c6:	11 24       	eor	r1, r1
    29c8:	2f 93       	push	r18
    29ca:	3f 93       	push	r19
    29cc:	4f 93       	push	r20
    29ce:	5f 93       	push	r21
    29d0:	6f 93       	push	r22
    29d2:	7f 93       	push	r23
    29d4:	8f 93       	push	r24
    29d6:	9f 93       	push	r25
    29d8:	af 93       	push	r26
    29da:	bf 93       	push	r27
    29dc:	ef 93       	push	r30
    29de:	ff 93       	push	r31
	incSysTick();
    29e0:	ad d0       	rcall	.+346    	; 0x2b3c <incSysTick>
}
    29e2:	ff 91       	pop	r31
    29e4:	ef 91       	pop	r30
    29e6:	bf 91       	pop	r27
    29e8:	af 91       	pop	r26
    29ea:	9f 91       	pop	r25
    29ec:	8f 91       	pop	r24
    29ee:	7f 91       	pop	r23
    29f0:	6f 91       	pop	r22
    29f2:	5f 91       	pop	r21
    29f4:	4f 91       	pop	r20
    29f6:	3f 91       	pop	r19
    29f8:	2f 91       	pop	r18
    29fa:	0f 90       	pop	r0
    29fc:	0f be       	out	0x3f, r0	; 63
    29fe:	0f 90       	pop	r0
    2a00:	1f 90       	pop	r1
    2a02:	18 95       	reti

00002a04 <pcf8574_init>:
		i2c_write(b);
		i2c_stop();
		return 0;
	}
	return -1;
}
    2a04:	0e 94 a8 07 	call	0xf50	; 0xf50 <i2c_init>
    2a08:	83 e0       	ldi	r24, 0x03	; 3
    2a0a:	8a 95       	dec	r24
    2a0c:	f1 f7       	brne	.-4      	; 0x2a0a <pcf8574_init+0x6>
    2a0e:	00 00       	nop
    2a10:	80 e0       	ldi	r24, 0x00	; 0
    2a12:	06 c0       	rjmp	.+12     	; 0x2a20 <pcf8574_init+0x1c>
    2a14:	e8 2f       	mov	r30, r24
    2a16:	f0 e0       	ldi	r31, 0x00	; 0
    2a18:	eb 52       	subi	r30, 0x2B	; 43
    2a1a:	fd 4f       	sbci	r31, 0xFD	; 253
    2a1c:	10 82       	st	Z, r1
    2a1e:	8f 5f       	subi	r24, 0xFF	; 255
    2a20:	88 30       	cpi	r24, 0x08	; 8
    2a22:	c0 f3       	brcs	.-16     	; 0x2a14 <pcf8574_init+0x10>
    2a24:	08 95       	ret

00002a26 <pcf8574_setoutput>:
    2a26:	cf 93       	push	r28
    2a28:	88 30       	cpi	r24, 0x08	; 8
    2a2a:	88 f4       	brcc	.+34     	; 0x2a4e <pcf8574_setoutput+0x28>
    2a2c:	c6 2f       	mov	r28, r22
    2a2e:	e8 2f       	mov	r30, r24
    2a30:	f0 e0       	ldi	r31, 0x00	; 0
    2a32:	eb 52       	subi	r30, 0x2B	; 43
    2a34:	fd 4f       	sbci	r31, 0xFD	; 253
    2a36:	60 83       	st	Z, r22
    2a38:	80 5e       	subi	r24, 0xE0	; 224
    2a3a:	88 0f       	add	r24, r24
    2a3c:	0e 94 ae 07 	call	0xf5c	; 0xf5c <i2c_start>
    2a40:	8c 2f       	mov	r24, r28
    2a42:	0e 94 dc 07 	call	0xfb8	; 0xfb8 <i2c_write>
    2a46:	0e 94 d4 07 	call	0xfa8	; 0xfa8 <i2c_stop>
    2a4a:	80 e0       	ldi	r24, 0x00	; 0
    2a4c:	01 c0       	rjmp	.+2      	; 0x2a50 <pcf8574_setoutput+0x2a>
    2a4e:	8f ef       	ldi	r24, 0xFF	; 255
    2a50:	cf 91       	pop	r28
    2a52:	08 95       	ret

00002a54 <pcf8574_setoutputpin>:

/*
 * set output pin
 */
int8_t pcf8574_setoutputpin(uint8_t deviceid, uint8_t pin, uint8_t data) {
    2a54:	cf 93       	push	r28
    2a56:	df 93       	push	r29
	if((deviceid >= 0 && deviceid < PCF8574_MAXDEVICES) && (pin >= 0 && pin < PCF8574_MAXPINS)) {
    2a58:	88 30       	cpi	r24, 0x08	; 8
    2a5a:	58 f5       	brcc	.+86     	; 0x2ab2 <pcf8574_setoutputpin+0x5e>
    2a5c:	68 30       	cpi	r22, 0x08	; 8
    2a5e:	58 f5       	brcc	.+86     	; 0x2ab6 <pcf8574_setoutputpin+0x62>
	    uint8_t b = 0;
	    b = pcf8574_pinstatus[deviceid];
    2a60:	28 2f       	mov	r18, r24
    2a62:	30 e0       	ldi	r19, 0x00	; 0
    2a64:	f9 01       	movw	r30, r18
    2a66:	eb 52       	subi	r30, 0x2B	; 43
    2a68:	fd 4f       	sbci	r31, 0xFD	; 253
    2a6a:	90 81       	ld	r25, Z
	    b = (data != 0) ? (b | (1 << pin)) : (b & ~(1 << pin));
    2a6c:	44 23       	and	r20, r20
    2a6e:	49 f0       	breq	.+18     	; 0x2a82 <pcf8574_setoutputpin+0x2e>
    2a70:	c1 e0       	ldi	r28, 0x01	; 1
    2a72:	d0 e0       	ldi	r29, 0x00	; 0
    2a74:	02 c0       	rjmp	.+4      	; 0x2a7a <pcf8574_setoutputpin+0x26>
    2a76:	cc 0f       	add	r28, r28
    2a78:	dd 1f       	adc	r29, r29
    2a7a:	6a 95       	dec	r22
    2a7c:	e2 f7       	brpl	.-8      	; 0x2a76 <pcf8574_setoutputpin+0x22>
    2a7e:	c9 2b       	or	r28, r25
    2a80:	09 c0       	rjmp	.+18     	; 0x2a94 <pcf8574_setoutputpin+0x40>
    2a82:	c1 e0       	ldi	r28, 0x01	; 1
    2a84:	d0 e0       	ldi	r29, 0x00	; 0
    2a86:	02 c0       	rjmp	.+4      	; 0x2a8c <pcf8574_setoutputpin+0x38>
    2a88:	cc 0f       	add	r28, r28
    2a8a:	dd 1f       	adc	r29, r29
    2a8c:	6a 95       	dec	r22
    2a8e:	e2 f7       	brpl	.-8      	; 0x2a88 <pcf8574_setoutputpin+0x34>
    2a90:	c0 95       	com	r28
    2a92:	c9 23       	and	r28, r25
	    pcf8574_pinstatus[deviceid] = b;
    2a94:	f9 01       	movw	r30, r18
    2a96:	eb 52       	subi	r30, 0x2B	; 43
    2a98:	fd 4f       	sbci	r31, 0xFD	; 253
    2a9a:	c0 83       	st	Z, r28
	    //update device
		i2c_start(((PCF8574_ADDRBASE+deviceid)<<1) | I2C_WRITE);
    2a9c:	80 5e       	subi	r24, 0xE0	; 224
    2a9e:	88 0f       	add	r24, r24
    2aa0:	0e 94 ae 07 	call	0xf5c	; 0xf5c <i2c_start>
		i2c_write(b);
    2aa4:	8c 2f       	mov	r24, r28
    2aa6:	0e 94 dc 07 	call	0xfb8	; 0xfb8 <i2c_write>
		i2c_stop();
    2aaa:	0e 94 d4 07 	call	0xfa8	; 0xfa8 <i2c_stop>
		return 0;
    2aae:	80 e0       	ldi	r24, 0x00	; 0
    2ab0:	03 c0       	rjmp	.+6      	; 0x2ab8 <pcf8574_setoutputpin+0x64>
	}
	return -1;
    2ab2:	8f ef       	ldi	r24, 0xFF	; 255
    2ab4:	01 c0       	rjmp	.+2      	; 0x2ab8 <pcf8574_setoutputpin+0x64>
    2ab6:	8f ef       	ldi	r24, 0xFF	; 255
}
    2ab8:	df 91       	pop	r29
    2aba:	cf 91       	pop	r28
    2abc:	08 95       	ret

00002abe <pcf8574_setoutputpinhigh>:

/*
 * set output pin high
 */
int8_t pcf8574_setoutputpinhigh(uint8_t deviceid, uint8_t pin) {
	return pcf8574_setoutputpin(deviceid, pin, 1);
    2abe:	41 e0       	ldi	r20, 0x01	; 1
    2ac0:	c9 cf       	rjmp	.-110    	; 0x2a54 <pcf8574_setoutputpin>
}
    2ac2:	08 95       	ret

00002ac4 <pcf8574_setoutputpinlow>:

/*
 * set output pin low
 */
int8_t pcf8574_setoutputpinlow(uint8_t deviceid, uint8_t pin) {
	return pcf8574_setoutputpin(deviceid, pin, 0);
    2ac4:	40 e0       	ldi	r20, 0x00	; 0
    2ac6:	c6 cf       	rjmp	.-116    	; 0x2a54 <pcf8574_setoutputpin>
}
    2ac8:	08 95       	ret

00002aca <pcf8574_getinput>:


/*
 * get input data
 */
int8_t pcf8574_getinput(uint8_t deviceid) {
    2aca:	cf 93       	push	r28
	int8_t data = -1;
	if((deviceid >= 0 && deviceid < PCF8574_MAXDEVICES)) {
    2acc:	88 30       	cpi	r24, 0x08	; 8
    2ace:	70 f4       	brcc	.+28     	; 0x2aec <pcf8574_getinput+0x22>
		i2c_start(((PCF8574_ADDRBASE+deviceid)<<1) | I2C_READ);
    2ad0:	90 e0       	ldi	r25, 0x00	; 0
    2ad2:	80 96       	adiw	r24, 0x20	; 32
    2ad4:	88 0f       	add	r24, r24
    2ad6:	99 1f       	adc	r25, r25
    2ad8:	81 60       	ori	r24, 0x01	; 1
    2ada:	0e 94 ae 07 	call	0xf5c	; 0xf5c <i2c_start>
		data = ~i2c_readNak();
    2ade:	0e 94 ee 07 	call	0xfdc	; 0xfdc <i2c_readNak>
    2ae2:	c8 2f       	mov	r28, r24
    2ae4:	c0 95       	com	r28
		i2c_stop();
    2ae6:	0e 94 d4 07 	call	0xfa8	; 0xfa8 <i2c_stop>
    2aea:	01 c0       	rjmp	.+2      	; 0x2aee <pcf8574_getinput+0x24>

/*
 * get input data
 */
int8_t pcf8574_getinput(uint8_t deviceid) {
	int8_t data = -1;
    2aec:	cf ef       	ldi	r28, 0xFF	; 255
		i2c_start(((PCF8574_ADDRBASE+deviceid)<<1) | I2C_READ);
		data = ~i2c_readNak();
		i2c_stop();
	}
	return data;
}
    2aee:	8c 2f       	mov	r24, r28
    2af0:	cf 91       	pop	r28
    2af2:	08 95       	ret

00002af4 <pcf8574_getinputpin>:

/*
 * get input pin (up or low)
 */
int8_t pcf8574_getinputpin(uint8_t deviceid, uint8_t pin) {
    2af4:	cf 93       	push	r28
	int8_t data = -1;
	if((deviceid >= 0 && deviceid < PCF8574_MAXDEVICES) && (pin >= 0 && pin < PCF8574_MAXPINS)) {
    2af6:	88 30       	cpi	r24, 0x08	; 8
    2af8:	80 f4       	brcc	.+32     	; 0x2b1a <pcf8574_getinputpin+0x26>
    2afa:	68 30       	cpi	r22, 0x08	; 8
    2afc:	80 f4       	brcc	.+32     	; 0x2b1e <pcf8574_getinputpin+0x2a>
    2afe:	c6 2f       	mov	r28, r22
		data = pcf8574_getinput(deviceid);
    2b00:	e4 df       	rcall	.-56     	; 0x2aca <pcf8574_getinput>
		if(data != -1) {
    2b02:	8f 3f       	cpi	r24, 0xFF	; 255
    2b04:	69 f0       	breq	.+26     	; 0x2b20 <pcf8574_getinputpin+0x2c>
			data = (data >> pin) & 0b00000001;
    2b06:	08 2e       	mov	r0, r24
    2b08:	00 0c       	add	r0, r0
    2b0a:	99 0b       	sbc	r25, r25
    2b0c:	02 c0       	rjmp	.+4      	; 0x2b12 <pcf8574_getinputpin+0x1e>
    2b0e:	95 95       	asr	r25
    2b10:	87 95       	ror	r24
    2b12:	ca 95       	dec	r28
    2b14:	e2 f7       	brpl	.-8      	; 0x2b0e <pcf8574_getinputpin+0x1a>
    2b16:	81 70       	andi	r24, 0x01	; 1
    2b18:	03 c0       	rjmp	.+6      	; 0x2b20 <pcf8574_getinputpin+0x2c>

/*
 * get input pin (up or low)
 */
int8_t pcf8574_getinputpin(uint8_t deviceid, uint8_t pin) {
	int8_t data = -1;
    2b1a:	8f ef       	ldi	r24, 0xFF	; 255
    2b1c:	01 c0       	rjmp	.+2      	; 0x2b20 <pcf8574_getinputpin+0x2c>
    2b1e:	8f ef       	ldi	r24, 0xFF	; 255
		if(data != -1) {
			data = (data >> pin) & 0b00000001;
		}
	}
	return data;
}
    2b20:	cf 91       	pop	r28
    2b22:	08 95       	ret

00002b24 <initSysTick>:

volatile uint16_t SysTick = 0;

void initSysTick()
{
	OCR2A=78; // division par 78
    2b24:	8e e4       	ldi	r24, 0x4E	; 78
    2b26:	80 93 b3 00 	sts	0x00B3, r24	; 0x8000b3 <__TEXT_REGION_LENGTH__+0x7e00b3>
	TCCR2A=0b00000010;
    2b2a:	82 e0       	ldi	r24, 0x02	; 2
    2b2c:	80 93 b0 00 	sts	0x00B0, r24	; 0x8000b0 <__TEXT_REGION_LENGTH__+0x7e00b0>
	TCCR2B=0b00000111; // /1024
    2b30:	97 e0       	ldi	r25, 0x07	; 7
    2b32:	90 93 b1 00 	sts	0x00B1, r25	; 0x8000b1 <__TEXT_REGION_LENGTH__+0x7e00b1>
	TIMSK2=0b00000010;
    2b36:	80 93 70 00 	sts	0x0070, r24	; 0x800070 <__TEXT_REGION_LENGTH__+0x7e0070>
    2b3a:	08 95       	ret

00002b3c <incSysTick>:
	// Génère une interruption toutes les 9.98 ms
}
void incSysTick()
{
	SysTick++;
    2b3c:	80 91 03 02 	lds	r24, 0x0203	; 0x800203 <SysTick>
    2b40:	90 91 04 02 	lds	r25, 0x0204	; 0x800204 <SysTick+0x1>
    2b44:	01 96       	adiw	r24, 0x01	; 1
    2b46:	90 93 04 02 	sts	0x0204, r25	; 0x800204 <SysTick+0x1>
    2b4a:	80 93 03 02 	sts	0x0203, r24	; 0x800203 <SysTick>
    2b4e:	08 95       	ret

00002b50 <marqueTime16>:
}
void marqueTime16(uint16_t *ref)
{
	*ref=SysTick;
    2b50:	20 91 03 02 	lds	r18, 0x0203	; 0x800203 <SysTick>
    2b54:	30 91 04 02 	lds	r19, 0x0204	; 0x800204 <SysTick+0x1>
    2b58:	fc 01       	movw	r30, r24
    2b5a:	31 83       	std	Z+1, r19	; 0x01
    2b5c:	20 83       	st	Z, r18
    2b5e:	08 95       	ret

00002b60 <elapsedTime16>:
}
uint16_t elapsedTime16(uint16_t *ref)
{
	if(SysTick<*ref)
    2b60:	fc 01       	movw	r30, r24
    2b62:	20 81       	ld	r18, Z
    2b64:	31 81       	ldd	r19, Z+1	; 0x01
    2b66:	80 91 03 02 	lds	r24, 0x0203	; 0x800203 <SysTick>
    2b6a:	90 91 04 02 	lds	r25, 0x0204	; 0x800204 <SysTick+0x1>
    2b6e:	82 17       	cp	r24, r18
    2b70:	93 07       	cpc	r25, r19
    2b72:	48 f4       	brcc	.+18     	; 0x2b86 <elapsedTime16+0x26>
		return (65535UL-(SysTick-*ref))+1;
    2b74:	80 91 03 02 	lds	r24, 0x0203	; 0x800203 <SysTick>
    2b78:	90 91 04 02 	lds	r25, 0x0204	; 0x800204 <SysTick+0x1>
    2b7c:	a9 01       	movw	r20, r18
    2b7e:	48 1b       	sub	r20, r24
    2b80:	59 0b       	sbc	r21, r25
    2b82:	ca 01       	movw	r24, r20
    2b84:	08 95       	ret
	else
		return (SysTick-*ref);
    2b86:	80 91 03 02 	lds	r24, 0x0203	; 0x800203 <SysTick>
    2b8a:	90 91 04 02 	lds	r25, 0x0204	; 0x800204 <SysTick+0x1>
    2b8e:	82 1b       	sub	r24, r18
    2b90:	93 0b       	sbc	r25, r19
	
    2b92:	08 95       	ret

00002b94 <__subsf3>:
    2b94:	50 58       	subi	r21, 0x80	; 128

00002b96 <__addsf3>:
    2b96:	bb 27       	eor	r27, r27
    2b98:	aa 27       	eor	r26, r26
    2b9a:	0e d0       	rcall	.+28     	; 0x2bb8 <__addsf3x>
    2b9c:	75 c1       	rjmp	.+746    	; 0x2e88 <__fp_round>
    2b9e:	66 d1       	rcall	.+716    	; 0x2e6c <__fp_pscA>
    2ba0:	30 f0       	brcs	.+12     	; 0x2bae <__addsf3+0x18>
    2ba2:	6b d1       	rcall	.+726    	; 0x2e7a <__fp_pscB>
    2ba4:	20 f0       	brcs	.+8      	; 0x2bae <__addsf3+0x18>
    2ba6:	31 f4       	brne	.+12     	; 0x2bb4 <__addsf3+0x1e>
    2ba8:	9f 3f       	cpi	r25, 0xFF	; 255
    2baa:	11 f4       	brne	.+4      	; 0x2bb0 <__addsf3+0x1a>
    2bac:	1e f4       	brtc	.+6      	; 0x2bb4 <__addsf3+0x1e>
    2bae:	5b c1       	rjmp	.+694    	; 0x2e66 <__fp_nan>
    2bb0:	0e f4       	brtc	.+2      	; 0x2bb4 <__addsf3+0x1e>
    2bb2:	e0 95       	com	r30
    2bb4:	e7 fb       	bst	r30, 7
    2bb6:	51 c1       	rjmp	.+674    	; 0x2e5a <__fp_inf>

00002bb8 <__addsf3x>:
    2bb8:	e9 2f       	mov	r30, r25
    2bba:	77 d1       	rcall	.+750    	; 0x2eaa <__fp_split3>
    2bbc:	80 f3       	brcs	.-32     	; 0x2b9e <__addsf3+0x8>
    2bbe:	ba 17       	cp	r27, r26
    2bc0:	62 07       	cpc	r22, r18
    2bc2:	73 07       	cpc	r23, r19
    2bc4:	84 07       	cpc	r24, r20
    2bc6:	95 07       	cpc	r25, r21
    2bc8:	18 f0       	brcs	.+6      	; 0x2bd0 <__addsf3x+0x18>
    2bca:	71 f4       	brne	.+28     	; 0x2be8 <__addsf3x+0x30>
    2bcc:	9e f5       	brtc	.+102    	; 0x2c34 <__addsf3x+0x7c>
    2bce:	8f c1       	rjmp	.+798    	; 0x2eee <__fp_zero>
    2bd0:	0e f4       	brtc	.+2      	; 0x2bd4 <__addsf3x+0x1c>
    2bd2:	e0 95       	com	r30
    2bd4:	0b 2e       	mov	r0, r27
    2bd6:	ba 2f       	mov	r27, r26
    2bd8:	a0 2d       	mov	r26, r0
    2bda:	0b 01       	movw	r0, r22
    2bdc:	b9 01       	movw	r22, r18
    2bde:	90 01       	movw	r18, r0
    2be0:	0c 01       	movw	r0, r24
    2be2:	ca 01       	movw	r24, r20
    2be4:	a0 01       	movw	r20, r0
    2be6:	11 24       	eor	r1, r1
    2be8:	ff 27       	eor	r31, r31
    2bea:	59 1b       	sub	r21, r25
    2bec:	99 f0       	breq	.+38     	; 0x2c14 <__addsf3x+0x5c>
    2bee:	59 3f       	cpi	r21, 0xF9	; 249
    2bf0:	50 f4       	brcc	.+20     	; 0x2c06 <__addsf3x+0x4e>
    2bf2:	50 3e       	cpi	r21, 0xE0	; 224
    2bf4:	68 f1       	brcs	.+90     	; 0x2c50 <__addsf3x+0x98>
    2bf6:	1a 16       	cp	r1, r26
    2bf8:	f0 40       	sbci	r31, 0x00	; 0
    2bfa:	a2 2f       	mov	r26, r18
    2bfc:	23 2f       	mov	r18, r19
    2bfe:	34 2f       	mov	r19, r20
    2c00:	44 27       	eor	r20, r20
    2c02:	58 5f       	subi	r21, 0xF8	; 248
    2c04:	f3 cf       	rjmp	.-26     	; 0x2bec <__addsf3x+0x34>
    2c06:	46 95       	lsr	r20
    2c08:	37 95       	ror	r19
    2c0a:	27 95       	ror	r18
    2c0c:	a7 95       	ror	r26
    2c0e:	f0 40       	sbci	r31, 0x00	; 0
    2c10:	53 95       	inc	r21
    2c12:	c9 f7       	brne	.-14     	; 0x2c06 <__addsf3x+0x4e>
    2c14:	7e f4       	brtc	.+30     	; 0x2c34 <__addsf3x+0x7c>
    2c16:	1f 16       	cp	r1, r31
    2c18:	ba 0b       	sbc	r27, r26
    2c1a:	62 0b       	sbc	r22, r18
    2c1c:	73 0b       	sbc	r23, r19
    2c1e:	84 0b       	sbc	r24, r20
    2c20:	ba f0       	brmi	.+46     	; 0x2c50 <__addsf3x+0x98>
    2c22:	91 50       	subi	r25, 0x01	; 1
    2c24:	a1 f0       	breq	.+40     	; 0x2c4e <__addsf3x+0x96>
    2c26:	ff 0f       	add	r31, r31
    2c28:	bb 1f       	adc	r27, r27
    2c2a:	66 1f       	adc	r22, r22
    2c2c:	77 1f       	adc	r23, r23
    2c2e:	88 1f       	adc	r24, r24
    2c30:	c2 f7       	brpl	.-16     	; 0x2c22 <__addsf3x+0x6a>
    2c32:	0e c0       	rjmp	.+28     	; 0x2c50 <__addsf3x+0x98>
    2c34:	ba 0f       	add	r27, r26
    2c36:	62 1f       	adc	r22, r18
    2c38:	73 1f       	adc	r23, r19
    2c3a:	84 1f       	adc	r24, r20
    2c3c:	48 f4       	brcc	.+18     	; 0x2c50 <__addsf3x+0x98>
    2c3e:	87 95       	ror	r24
    2c40:	77 95       	ror	r23
    2c42:	67 95       	ror	r22
    2c44:	b7 95       	ror	r27
    2c46:	f7 95       	ror	r31
    2c48:	9e 3f       	cpi	r25, 0xFE	; 254
    2c4a:	08 f0       	brcs	.+2      	; 0x2c4e <__addsf3x+0x96>
    2c4c:	b3 cf       	rjmp	.-154    	; 0x2bb4 <__addsf3+0x1e>
    2c4e:	93 95       	inc	r25
    2c50:	88 0f       	add	r24, r24
    2c52:	08 f0       	brcs	.+2      	; 0x2c56 <__addsf3x+0x9e>
    2c54:	99 27       	eor	r25, r25
    2c56:	ee 0f       	add	r30, r30
    2c58:	97 95       	ror	r25
    2c5a:	87 95       	ror	r24
    2c5c:	08 95       	ret

00002c5e <__cmpsf2>:
    2c5e:	d9 d0       	rcall	.+434    	; 0x2e12 <__fp_cmp>
    2c60:	08 f4       	brcc	.+2      	; 0x2c64 <__cmpsf2+0x6>
    2c62:	81 e0       	ldi	r24, 0x01	; 1
    2c64:	08 95       	ret

00002c66 <__divsf3>:
    2c66:	0c d0       	rcall	.+24     	; 0x2c80 <__divsf3x>
    2c68:	0f c1       	rjmp	.+542    	; 0x2e88 <__fp_round>
    2c6a:	07 d1       	rcall	.+526    	; 0x2e7a <__fp_pscB>
    2c6c:	40 f0       	brcs	.+16     	; 0x2c7e <__divsf3+0x18>
    2c6e:	fe d0       	rcall	.+508    	; 0x2e6c <__fp_pscA>
    2c70:	30 f0       	brcs	.+12     	; 0x2c7e <__divsf3+0x18>
    2c72:	21 f4       	brne	.+8      	; 0x2c7c <__divsf3+0x16>
    2c74:	5f 3f       	cpi	r21, 0xFF	; 255
    2c76:	19 f0       	breq	.+6      	; 0x2c7e <__divsf3+0x18>
    2c78:	f0 c0       	rjmp	.+480    	; 0x2e5a <__fp_inf>
    2c7a:	51 11       	cpse	r21, r1
    2c7c:	39 c1       	rjmp	.+626    	; 0x2ef0 <__fp_szero>
    2c7e:	f3 c0       	rjmp	.+486    	; 0x2e66 <__fp_nan>

00002c80 <__divsf3x>:
    2c80:	14 d1       	rcall	.+552    	; 0x2eaa <__fp_split3>
    2c82:	98 f3       	brcs	.-26     	; 0x2c6a <__divsf3+0x4>

00002c84 <__divsf3_pse>:
    2c84:	99 23       	and	r25, r25
    2c86:	c9 f3       	breq	.-14     	; 0x2c7a <__divsf3+0x14>
    2c88:	55 23       	and	r21, r21
    2c8a:	b1 f3       	breq	.-20     	; 0x2c78 <__divsf3+0x12>
    2c8c:	95 1b       	sub	r25, r21
    2c8e:	55 0b       	sbc	r21, r21
    2c90:	bb 27       	eor	r27, r27
    2c92:	aa 27       	eor	r26, r26
    2c94:	62 17       	cp	r22, r18
    2c96:	73 07       	cpc	r23, r19
    2c98:	84 07       	cpc	r24, r20
    2c9a:	38 f0       	brcs	.+14     	; 0x2caa <__divsf3_pse+0x26>
    2c9c:	9f 5f       	subi	r25, 0xFF	; 255
    2c9e:	5f 4f       	sbci	r21, 0xFF	; 255
    2ca0:	22 0f       	add	r18, r18
    2ca2:	33 1f       	adc	r19, r19
    2ca4:	44 1f       	adc	r20, r20
    2ca6:	aa 1f       	adc	r26, r26
    2ca8:	a9 f3       	breq	.-22     	; 0x2c94 <__divsf3_pse+0x10>
    2caa:	33 d0       	rcall	.+102    	; 0x2d12 <__divsf3_pse+0x8e>
    2cac:	0e 2e       	mov	r0, r30
    2cae:	3a f0       	brmi	.+14     	; 0x2cbe <__divsf3_pse+0x3a>
    2cb0:	e0 e8       	ldi	r30, 0x80	; 128
    2cb2:	30 d0       	rcall	.+96     	; 0x2d14 <__divsf3_pse+0x90>
    2cb4:	91 50       	subi	r25, 0x01	; 1
    2cb6:	50 40       	sbci	r21, 0x00	; 0
    2cb8:	e6 95       	lsr	r30
    2cba:	00 1c       	adc	r0, r0
    2cbc:	ca f7       	brpl	.-14     	; 0x2cb0 <__divsf3_pse+0x2c>
    2cbe:	29 d0       	rcall	.+82     	; 0x2d12 <__divsf3_pse+0x8e>
    2cc0:	fe 2f       	mov	r31, r30
    2cc2:	27 d0       	rcall	.+78     	; 0x2d12 <__divsf3_pse+0x8e>
    2cc4:	66 0f       	add	r22, r22
    2cc6:	77 1f       	adc	r23, r23
    2cc8:	88 1f       	adc	r24, r24
    2cca:	bb 1f       	adc	r27, r27
    2ccc:	26 17       	cp	r18, r22
    2cce:	37 07       	cpc	r19, r23
    2cd0:	48 07       	cpc	r20, r24
    2cd2:	ab 07       	cpc	r26, r27
    2cd4:	b0 e8       	ldi	r27, 0x80	; 128
    2cd6:	09 f0       	breq	.+2      	; 0x2cda <__divsf3_pse+0x56>
    2cd8:	bb 0b       	sbc	r27, r27
    2cda:	80 2d       	mov	r24, r0
    2cdc:	bf 01       	movw	r22, r30
    2cde:	ff 27       	eor	r31, r31
    2ce0:	93 58       	subi	r25, 0x83	; 131
    2ce2:	5f 4f       	sbci	r21, 0xFF	; 255
    2ce4:	2a f0       	brmi	.+10     	; 0x2cf0 <__divsf3_pse+0x6c>
    2ce6:	9e 3f       	cpi	r25, 0xFE	; 254
    2ce8:	51 05       	cpc	r21, r1
    2cea:	68 f0       	brcs	.+26     	; 0x2d06 <__divsf3_pse+0x82>
    2cec:	b6 c0       	rjmp	.+364    	; 0x2e5a <__fp_inf>
    2cee:	00 c1       	rjmp	.+512    	; 0x2ef0 <__fp_szero>
    2cf0:	5f 3f       	cpi	r21, 0xFF	; 255
    2cf2:	ec f3       	brlt	.-6      	; 0x2cee <__divsf3_pse+0x6a>
    2cf4:	98 3e       	cpi	r25, 0xE8	; 232
    2cf6:	dc f3       	brlt	.-10     	; 0x2cee <__divsf3_pse+0x6a>
    2cf8:	86 95       	lsr	r24
    2cfa:	77 95       	ror	r23
    2cfc:	67 95       	ror	r22
    2cfe:	b7 95       	ror	r27
    2d00:	f7 95       	ror	r31
    2d02:	9f 5f       	subi	r25, 0xFF	; 255
    2d04:	c9 f7       	brne	.-14     	; 0x2cf8 <__divsf3_pse+0x74>
    2d06:	88 0f       	add	r24, r24
    2d08:	91 1d       	adc	r25, r1
    2d0a:	96 95       	lsr	r25
    2d0c:	87 95       	ror	r24
    2d0e:	97 f9       	bld	r25, 7
    2d10:	08 95       	ret
    2d12:	e1 e0       	ldi	r30, 0x01	; 1
    2d14:	66 0f       	add	r22, r22
    2d16:	77 1f       	adc	r23, r23
    2d18:	88 1f       	adc	r24, r24
    2d1a:	bb 1f       	adc	r27, r27
    2d1c:	62 17       	cp	r22, r18
    2d1e:	73 07       	cpc	r23, r19
    2d20:	84 07       	cpc	r24, r20
    2d22:	ba 07       	cpc	r27, r26
    2d24:	20 f0       	brcs	.+8      	; 0x2d2e <__divsf3_pse+0xaa>
    2d26:	62 1b       	sub	r22, r18
    2d28:	73 0b       	sbc	r23, r19
    2d2a:	84 0b       	sbc	r24, r20
    2d2c:	ba 0b       	sbc	r27, r26
    2d2e:	ee 1f       	adc	r30, r30
    2d30:	88 f7       	brcc	.-30     	; 0x2d14 <__divsf3_pse+0x90>
    2d32:	e0 95       	com	r30
    2d34:	08 95       	ret

00002d36 <__fixsfsi>:
    2d36:	04 d0       	rcall	.+8      	; 0x2d40 <__fixunssfsi>
    2d38:	68 94       	set
    2d3a:	b1 11       	cpse	r27, r1
    2d3c:	d9 c0       	rjmp	.+434    	; 0x2ef0 <__fp_szero>
    2d3e:	08 95       	ret

00002d40 <__fixunssfsi>:
    2d40:	bc d0       	rcall	.+376    	; 0x2eba <__fp_splitA>
    2d42:	88 f0       	brcs	.+34     	; 0x2d66 <__fixunssfsi+0x26>
    2d44:	9f 57       	subi	r25, 0x7F	; 127
    2d46:	90 f0       	brcs	.+36     	; 0x2d6c <__fixunssfsi+0x2c>
    2d48:	b9 2f       	mov	r27, r25
    2d4a:	99 27       	eor	r25, r25
    2d4c:	b7 51       	subi	r27, 0x17	; 23
    2d4e:	a0 f0       	brcs	.+40     	; 0x2d78 <__fixunssfsi+0x38>
    2d50:	d1 f0       	breq	.+52     	; 0x2d86 <__fixunssfsi+0x46>
    2d52:	66 0f       	add	r22, r22
    2d54:	77 1f       	adc	r23, r23
    2d56:	88 1f       	adc	r24, r24
    2d58:	99 1f       	adc	r25, r25
    2d5a:	1a f0       	brmi	.+6      	; 0x2d62 <__fixunssfsi+0x22>
    2d5c:	ba 95       	dec	r27
    2d5e:	c9 f7       	brne	.-14     	; 0x2d52 <__fixunssfsi+0x12>
    2d60:	12 c0       	rjmp	.+36     	; 0x2d86 <__fixunssfsi+0x46>
    2d62:	b1 30       	cpi	r27, 0x01	; 1
    2d64:	81 f0       	breq	.+32     	; 0x2d86 <__fixunssfsi+0x46>
    2d66:	c3 d0       	rcall	.+390    	; 0x2eee <__fp_zero>
    2d68:	b1 e0       	ldi	r27, 0x01	; 1
    2d6a:	08 95       	ret
    2d6c:	c0 c0       	rjmp	.+384    	; 0x2eee <__fp_zero>
    2d6e:	67 2f       	mov	r22, r23
    2d70:	78 2f       	mov	r23, r24
    2d72:	88 27       	eor	r24, r24
    2d74:	b8 5f       	subi	r27, 0xF8	; 248
    2d76:	39 f0       	breq	.+14     	; 0x2d86 <__fixunssfsi+0x46>
    2d78:	b9 3f       	cpi	r27, 0xF9	; 249
    2d7a:	cc f3       	brlt	.-14     	; 0x2d6e <__fixunssfsi+0x2e>
    2d7c:	86 95       	lsr	r24
    2d7e:	77 95       	ror	r23
    2d80:	67 95       	ror	r22
    2d82:	b3 95       	inc	r27
    2d84:	d9 f7       	brne	.-10     	; 0x2d7c <__fixunssfsi+0x3c>
    2d86:	3e f4       	brtc	.+14     	; 0x2d96 <__fixunssfsi+0x56>
    2d88:	90 95       	com	r25
    2d8a:	80 95       	com	r24
    2d8c:	70 95       	com	r23
    2d8e:	61 95       	neg	r22
    2d90:	7f 4f       	sbci	r23, 0xFF	; 255
    2d92:	8f 4f       	sbci	r24, 0xFF	; 255
    2d94:	9f 4f       	sbci	r25, 0xFF	; 255
    2d96:	08 95       	ret

00002d98 <__floatunsisf>:
    2d98:	e8 94       	clt
    2d9a:	09 c0       	rjmp	.+18     	; 0x2dae <__floatsisf+0x12>

00002d9c <__floatsisf>:
    2d9c:	97 fb       	bst	r25, 7
    2d9e:	3e f4       	brtc	.+14     	; 0x2dae <__floatsisf+0x12>
    2da0:	90 95       	com	r25
    2da2:	80 95       	com	r24
    2da4:	70 95       	com	r23
    2da6:	61 95       	neg	r22
    2da8:	7f 4f       	sbci	r23, 0xFF	; 255
    2daa:	8f 4f       	sbci	r24, 0xFF	; 255
    2dac:	9f 4f       	sbci	r25, 0xFF	; 255
    2dae:	99 23       	and	r25, r25
    2db0:	a9 f0       	breq	.+42     	; 0x2ddc <__floatsisf+0x40>
    2db2:	f9 2f       	mov	r31, r25
    2db4:	96 e9       	ldi	r25, 0x96	; 150
    2db6:	bb 27       	eor	r27, r27
    2db8:	93 95       	inc	r25
    2dba:	f6 95       	lsr	r31
    2dbc:	87 95       	ror	r24
    2dbe:	77 95       	ror	r23
    2dc0:	67 95       	ror	r22
    2dc2:	b7 95       	ror	r27
    2dc4:	f1 11       	cpse	r31, r1
    2dc6:	f8 cf       	rjmp	.-16     	; 0x2db8 <__floatsisf+0x1c>
    2dc8:	fa f4       	brpl	.+62     	; 0x2e08 <__floatsisf+0x6c>
    2dca:	bb 0f       	add	r27, r27
    2dcc:	11 f4       	brne	.+4      	; 0x2dd2 <__floatsisf+0x36>
    2dce:	60 ff       	sbrs	r22, 0
    2dd0:	1b c0       	rjmp	.+54     	; 0x2e08 <__floatsisf+0x6c>
    2dd2:	6f 5f       	subi	r22, 0xFF	; 255
    2dd4:	7f 4f       	sbci	r23, 0xFF	; 255
    2dd6:	8f 4f       	sbci	r24, 0xFF	; 255
    2dd8:	9f 4f       	sbci	r25, 0xFF	; 255
    2dda:	16 c0       	rjmp	.+44     	; 0x2e08 <__floatsisf+0x6c>
    2ddc:	88 23       	and	r24, r24
    2dde:	11 f0       	breq	.+4      	; 0x2de4 <__floatsisf+0x48>
    2de0:	96 e9       	ldi	r25, 0x96	; 150
    2de2:	11 c0       	rjmp	.+34     	; 0x2e06 <__floatsisf+0x6a>
    2de4:	77 23       	and	r23, r23
    2de6:	21 f0       	breq	.+8      	; 0x2df0 <__floatsisf+0x54>
    2de8:	9e e8       	ldi	r25, 0x8E	; 142
    2dea:	87 2f       	mov	r24, r23
    2dec:	76 2f       	mov	r23, r22
    2dee:	05 c0       	rjmp	.+10     	; 0x2dfa <__floatsisf+0x5e>
    2df0:	66 23       	and	r22, r22
    2df2:	71 f0       	breq	.+28     	; 0x2e10 <__floatsisf+0x74>
    2df4:	96 e8       	ldi	r25, 0x86	; 134
    2df6:	86 2f       	mov	r24, r22
    2df8:	70 e0       	ldi	r23, 0x00	; 0
    2dfa:	60 e0       	ldi	r22, 0x00	; 0
    2dfc:	2a f0       	brmi	.+10     	; 0x2e08 <__floatsisf+0x6c>
    2dfe:	9a 95       	dec	r25
    2e00:	66 0f       	add	r22, r22
    2e02:	77 1f       	adc	r23, r23
    2e04:	88 1f       	adc	r24, r24
    2e06:	da f7       	brpl	.-10     	; 0x2dfe <__floatsisf+0x62>
    2e08:	88 0f       	add	r24, r24
    2e0a:	96 95       	lsr	r25
    2e0c:	87 95       	ror	r24
    2e0e:	97 f9       	bld	r25, 7
    2e10:	08 95       	ret

00002e12 <__fp_cmp>:
    2e12:	99 0f       	add	r25, r25
    2e14:	00 08       	sbc	r0, r0
    2e16:	55 0f       	add	r21, r21
    2e18:	aa 0b       	sbc	r26, r26
    2e1a:	e0 e8       	ldi	r30, 0x80	; 128
    2e1c:	fe ef       	ldi	r31, 0xFE	; 254
    2e1e:	16 16       	cp	r1, r22
    2e20:	17 06       	cpc	r1, r23
    2e22:	e8 07       	cpc	r30, r24
    2e24:	f9 07       	cpc	r31, r25
    2e26:	c0 f0       	brcs	.+48     	; 0x2e58 <__fp_cmp+0x46>
    2e28:	12 16       	cp	r1, r18
    2e2a:	13 06       	cpc	r1, r19
    2e2c:	e4 07       	cpc	r30, r20
    2e2e:	f5 07       	cpc	r31, r21
    2e30:	98 f0       	brcs	.+38     	; 0x2e58 <__fp_cmp+0x46>
    2e32:	62 1b       	sub	r22, r18
    2e34:	73 0b       	sbc	r23, r19
    2e36:	84 0b       	sbc	r24, r20
    2e38:	95 0b       	sbc	r25, r21
    2e3a:	39 f4       	brne	.+14     	; 0x2e4a <__fp_cmp+0x38>
    2e3c:	0a 26       	eor	r0, r26
    2e3e:	61 f0       	breq	.+24     	; 0x2e58 <__fp_cmp+0x46>
    2e40:	23 2b       	or	r18, r19
    2e42:	24 2b       	or	r18, r20
    2e44:	25 2b       	or	r18, r21
    2e46:	21 f4       	brne	.+8      	; 0x2e50 <__fp_cmp+0x3e>
    2e48:	08 95       	ret
    2e4a:	0a 26       	eor	r0, r26
    2e4c:	09 f4       	brne	.+2      	; 0x2e50 <__fp_cmp+0x3e>
    2e4e:	a1 40       	sbci	r26, 0x01	; 1
    2e50:	a6 95       	lsr	r26
    2e52:	8f ef       	ldi	r24, 0xFF	; 255
    2e54:	81 1d       	adc	r24, r1
    2e56:	81 1d       	adc	r24, r1
    2e58:	08 95       	ret

00002e5a <__fp_inf>:
    2e5a:	97 f9       	bld	r25, 7
    2e5c:	9f 67       	ori	r25, 0x7F	; 127
    2e5e:	80 e8       	ldi	r24, 0x80	; 128
    2e60:	70 e0       	ldi	r23, 0x00	; 0
    2e62:	60 e0       	ldi	r22, 0x00	; 0
    2e64:	08 95       	ret

00002e66 <__fp_nan>:
    2e66:	9f ef       	ldi	r25, 0xFF	; 255
    2e68:	80 ec       	ldi	r24, 0xC0	; 192
    2e6a:	08 95       	ret

00002e6c <__fp_pscA>:
    2e6c:	00 24       	eor	r0, r0
    2e6e:	0a 94       	dec	r0
    2e70:	16 16       	cp	r1, r22
    2e72:	17 06       	cpc	r1, r23
    2e74:	18 06       	cpc	r1, r24
    2e76:	09 06       	cpc	r0, r25
    2e78:	08 95       	ret

00002e7a <__fp_pscB>:
    2e7a:	00 24       	eor	r0, r0
    2e7c:	0a 94       	dec	r0
    2e7e:	12 16       	cp	r1, r18
    2e80:	13 06       	cpc	r1, r19
    2e82:	14 06       	cpc	r1, r20
    2e84:	05 06       	cpc	r0, r21
    2e86:	08 95       	ret

00002e88 <__fp_round>:
    2e88:	09 2e       	mov	r0, r25
    2e8a:	03 94       	inc	r0
    2e8c:	00 0c       	add	r0, r0
    2e8e:	11 f4       	brne	.+4      	; 0x2e94 <__fp_round+0xc>
    2e90:	88 23       	and	r24, r24
    2e92:	52 f0       	brmi	.+20     	; 0x2ea8 <__fp_round+0x20>
    2e94:	bb 0f       	add	r27, r27
    2e96:	40 f4       	brcc	.+16     	; 0x2ea8 <__fp_round+0x20>
    2e98:	bf 2b       	or	r27, r31
    2e9a:	11 f4       	brne	.+4      	; 0x2ea0 <__fp_round+0x18>
    2e9c:	60 ff       	sbrs	r22, 0
    2e9e:	04 c0       	rjmp	.+8      	; 0x2ea8 <__fp_round+0x20>
    2ea0:	6f 5f       	subi	r22, 0xFF	; 255
    2ea2:	7f 4f       	sbci	r23, 0xFF	; 255
    2ea4:	8f 4f       	sbci	r24, 0xFF	; 255
    2ea6:	9f 4f       	sbci	r25, 0xFF	; 255
    2ea8:	08 95       	ret

00002eaa <__fp_split3>:
    2eaa:	57 fd       	sbrc	r21, 7
    2eac:	90 58       	subi	r25, 0x80	; 128
    2eae:	44 0f       	add	r20, r20
    2eb0:	55 1f       	adc	r21, r21
    2eb2:	59 f0       	breq	.+22     	; 0x2eca <__fp_splitA+0x10>
    2eb4:	5f 3f       	cpi	r21, 0xFF	; 255
    2eb6:	71 f0       	breq	.+28     	; 0x2ed4 <__fp_splitA+0x1a>
    2eb8:	47 95       	ror	r20

00002eba <__fp_splitA>:
    2eba:	88 0f       	add	r24, r24
    2ebc:	97 fb       	bst	r25, 7
    2ebe:	99 1f       	adc	r25, r25
    2ec0:	61 f0       	breq	.+24     	; 0x2eda <__fp_splitA+0x20>
    2ec2:	9f 3f       	cpi	r25, 0xFF	; 255
    2ec4:	79 f0       	breq	.+30     	; 0x2ee4 <__fp_splitA+0x2a>
    2ec6:	87 95       	ror	r24
    2ec8:	08 95       	ret
    2eca:	12 16       	cp	r1, r18
    2ecc:	13 06       	cpc	r1, r19
    2ece:	14 06       	cpc	r1, r20
    2ed0:	55 1f       	adc	r21, r21
    2ed2:	f2 cf       	rjmp	.-28     	; 0x2eb8 <__fp_split3+0xe>
    2ed4:	46 95       	lsr	r20
    2ed6:	f1 df       	rcall	.-30     	; 0x2eba <__fp_splitA>
    2ed8:	08 c0       	rjmp	.+16     	; 0x2eea <__fp_splitA+0x30>
    2eda:	16 16       	cp	r1, r22
    2edc:	17 06       	cpc	r1, r23
    2ede:	18 06       	cpc	r1, r24
    2ee0:	99 1f       	adc	r25, r25
    2ee2:	f1 cf       	rjmp	.-30     	; 0x2ec6 <__fp_splitA+0xc>
    2ee4:	86 95       	lsr	r24
    2ee6:	71 05       	cpc	r23, r1
    2ee8:	61 05       	cpc	r22, r1
    2eea:	08 94       	sec
    2eec:	08 95       	ret

00002eee <__fp_zero>:
    2eee:	e8 94       	clt

00002ef0 <__fp_szero>:
    2ef0:	bb 27       	eor	r27, r27
    2ef2:	66 27       	eor	r22, r22
    2ef4:	77 27       	eor	r23, r23
    2ef6:	cb 01       	movw	r24, r22
    2ef8:	97 f9       	bld	r25, 7
    2efa:	08 95       	ret

00002efc <__mulsf3>:
    2efc:	0b d0       	rcall	.+22     	; 0x2f14 <__mulsf3x>
    2efe:	c4 cf       	rjmp	.-120    	; 0x2e88 <__fp_round>
    2f00:	b5 df       	rcall	.-150    	; 0x2e6c <__fp_pscA>
    2f02:	28 f0       	brcs	.+10     	; 0x2f0e <__mulsf3+0x12>
    2f04:	ba df       	rcall	.-140    	; 0x2e7a <__fp_pscB>
    2f06:	18 f0       	brcs	.+6      	; 0x2f0e <__mulsf3+0x12>
    2f08:	95 23       	and	r25, r21
    2f0a:	09 f0       	breq	.+2      	; 0x2f0e <__mulsf3+0x12>
    2f0c:	a6 cf       	rjmp	.-180    	; 0x2e5a <__fp_inf>
    2f0e:	ab cf       	rjmp	.-170    	; 0x2e66 <__fp_nan>
    2f10:	11 24       	eor	r1, r1
    2f12:	ee cf       	rjmp	.-36     	; 0x2ef0 <__fp_szero>

00002f14 <__mulsf3x>:
    2f14:	ca df       	rcall	.-108    	; 0x2eaa <__fp_split3>
    2f16:	a0 f3       	brcs	.-24     	; 0x2f00 <__mulsf3+0x4>

00002f18 <__mulsf3_pse>:
    2f18:	95 9f       	mul	r25, r21
    2f1a:	d1 f3       	breq	.-12     	; 0x2f10 <__mulsf3+0x14>
    2f1c:	95 0f       	add	r25, r21
    2f1e:	50 e0       	ldi	r21, 0x00	; 0
    2f20:	55 1f       	adc	r21, r21
    2f22:	62 9f       	mul	r22, r18
    2f24:	f0 01       	movw	r30, r0
    2f26:	72 9f       	mul	r23, r18
    2f28:	bb 27       	eor	r27, r27
    2f2a:	f0 0d       	add	r31, r0
    2f2c:	b1 1d       	adc	r27, r1
    2f2e:	63 9f       	mul	r22, r19
    2f30:	aa 27       	eor	r26, r26
    2f32:	f0 0d       	add	r31, r0
    2f34:	b1 1d       	adc	r27, r1
    2f36:	aa 1f       	adc	r26, r26
    2f38:	64 9f       	mul	r22, r20
    2f3a:	66 27       	eor	r22, r22
    2f3c:	b0 0d       	add	r27, r0
    2f3e:	a1 1d       	adc	r26, r1
    2f40:	66 1f       	adc	r22, r22
    2f42:	82 9f       	mul	r24, r18
    2f44:	22 27       	eor	r18, r18
    2f46:	b0 0d       	add	r27, r0
    2f48:	a1 1d       	adc	r26, r1
    2f4a:	62 1f       	adc	r22, r18
    2f4c:	73 9f       	mul	r23, r19
    2f4e:	b0 0d       	add	r27, r0
    2f50:	a1 1d       	adc	r26, r1
    2f52:	62 1f       	adc	r22, r18
    2f54:	83 9f       	mul	r24, r19
    2f56:	a0 0d       	add	r26, r0
    2f58:	61 1d       	adc	r22, r1
    2f5a:	22 1f       	adc	r18, r18
    2f5c:	74 9f       	mul	r23, r20
    2f5e:	33 27       	eor	r19, r19
    2f60:	a0 0d       	add	r26, r0
    2f62:	61 1d       	adc	r22, r1
    2f64:	23 1f       	adc	r18, r19
    2f66:	84 9f       	mul	r24, r20
    2f68:	60 0d       	add	r22, r0
    2f6a:	21 1d       	adc	r18, r1
    2f6c:	82 2f       	mov	r24, r18
    2f6e:	76 2f       	mov	r23, r22
    2f70:	6a 2f       	mov	r22, r26
    2f72:	11 24       	eor	r1, r1
    2f74:	9f 57       	subi	r25, 0x7F	; 127
    2f76:	50 40       	sbci	r21, 0x00	; 0
    2f78:	8a f0       	brmi	.+34     	; 0x2f9c <__mulsf3_pse+0x84>
    2f7a:	e1 f0       	breq	.+56     	; 0x2fb4 <__mulsf3_pse+0x9c>
    2f7c:	88 23       	and	r24, r24
    2f7e:	4a f0       	brmi	.+18     	; 0x2f92 <__mulsf3_pse+0x7a>
    2f80:	ee 0f       	add	r30, r30
    2f82:	ff 1f       	adc	r31, r31
    2f84:	bb 1f       	adc	r27, r27
    2f86:	66 1f       	adc	r22, r22
    2f88:	77 1f       	adc	r23, r23
    2f8a:	88 1f       	adc	r24, r24
    2f8c:	91 50       	subi	r25, 0x01	; 1
    2f8e:	50 40       	sbci	r21, 0x00	; 0
    2f90:	a9 f7       	brne	.-22     	; 0x2f7c <__mulsf3_pse+0x64>
    2f92:	9e 3f       	cpi	r25, 0xFE	; 254
    2f94:	51 05       	cpc	r21, r1
    2f96:	70 f0       	brcs	.+28     	; 0x2fb4 <__mulsf3_pse+0x9c>
    2f98:	60 cf       	rjmp	.-320    	; 0x2e5a <__fp_inf>
    2f9a:	aa cf       	rjmp	.-172    	; 0x2ef0 <__fp_szero>
    2f9c:	5f 3f       	cpi	r21, 0xFF	; 255
    2f9e:	ec f3       	brlt	.-6      	; 0x2f9a <__mulsf3_pse+0x82>
    2fa0:	98 3e       	cpi	r25, 0xE8	; 232
    2fa2:	dc f3       	brlt	.-10     	; 0x2f9a <__mulsf3_pse+0x82>
    2fa4:	86 95       	lsr	r24
    2fa6:	77 95       	ror	r23
    2fa8:	67 95       	ror	r22
    2faa:	b7 95       	ror	r27
    2fac:	f7 95       	ror	r31
    2fae:	e7 95       	ror	r30
    2fb0:	9f 5f       	subi	r25, 0xFF	; 255
    2fb2:	c1 f7       	brne	.-16     	; 0x2fa4 <__mulsf3_pse+0x8c>
    2fb4:	fe 2b       	or	r31, r30
    2fb6:	88 0f       	add	r24, r24
    2fb8:	91 1d       	adc	r25, r1
    2fba:	96 95       	lsr	r25
    2fbc:	87 95       	ror	r24
    2fbe:	97 f9       	bld	r25, 7
    2fc0:	08 95       	ret

00002fc2 <__mulsi3>:
    2fc2:	db 01       	movw	r26, r22
    2fc4:	8f 93       	push	r24
    2fc6:	9f 93       	push	r25
    2fc8:	11 d0       	rcall	.+34     	; 0x2fec <__muluhisi3>
    2fca:	bf 91       	pop	r27
    2fcc:	af 91       	pop	r26
    2fce:	a2 9f       	mul	r26, r18
    2fd0:	80 0d       	add	r24, r0
    2fd2:	91 1d       	adc	r25, r1
    2fd4:	a3 9f       	mul	r26, r19
    2fd6:	90 0d       	add	r25, r0
    2fd8:	b2 9f       	mul	r27, r18
    2fda:	90 0d       	add	r25, r0
    2fdc:	11 24       	eor	r1, r1
    2fde:	08 95       	ret

00002fe0 <__tablejump2__>:
    2fe0:	ee 0f       	add	r30, r30
    2fe2:	ff 1f       	adc	r31, r31
    2fe4:	05 90       	lpm	r0, Z+
    2fe6:	f4 91       	lpm	r31, Z
    2fe8:	e0 2d       	mov	r30, r0
    2fea:	09 94       	ijmp

00002fec <__muluhisi3>:
    2fec:	09 d0       	rcall	.+18     	; 0x3000 <__umulhisi3>
    2fee:	a5 9f       	mul	r26, r21
    2ff0:	90 0d       	add	r25, r0
    2ff2:	b4 9f       	mul	r27, r20
    2ff4:	90 0d       	add	r25, r0
    2ff6:	a4 9f       	mul	r26, r20
    2ff8:	80 0d       	add	r24, r0
    2ffa:	91 1d       	adc	r25, r1
    2ffc:	11 24       	eor	r1, r1
    2ffe:	08 95       	ret

00003000 <__umulhisi3>:
    3000:	a2 9f       	mul	r26, r18
    3002:	b0 01       	movw	r22, r0
    3004:	b3 9f       	mul	r27, r19
    3006:	c0 01       	movw	r24, r0
    3008:	a3 9f       	mul	r26, r19
    300a:	70 0d       	add	r23, r0
    300c:	81 1d       	adc	r24, r1
    300e:	11 24       	eor	r1, r1
    3010:	91 1d       	adc	r25, r1
    3012:	b2 9f       	mul	r27, r18
    3014:	70 0d       	add	r23, r0
    3016:	81 1d       	adc	r24, r1
    3018:	11 24       	eor	r1, r1
    301a:	91 1d       	adc	r25, r1
    301c:	08 95       	ret

0000301e <sprintf>:
    301e:	ae e0       	ldi	r26, 0x0E	; 14
    3020:	b0 e0       	ldi	r27, 0x00	; 0
    3022:	e4 e1       	ldi	r30, 0x14	; 20
    3024:	f8 e1       	ldi	r31, 0x18	; 24
    3026:	c4 c2       	rjmp	.+1416   	; 0x35b0 <__prologue_saves__+0x1c>
    3028:	0d 89       	ldd	r16, Y+21	; 0x15
    302a:	1e 89       	ldd	r17, Y+22	; 0x16
    302c:	86 e0       	ldi	r24, 0x06	; 6
    302e:	8c 83       	std	Y+4, r24	; 0x04
    3030:	1a 83       	std	Y+2, r17	; 0x02
    3032:	09 83       	std	Y+1, r16	; 0x01
    3034:	8f ef       	ldi	r24, 0xFF	; 255
    3036:	9f e7       	ldi	r25, 0x7F	; 127
    3038:	9e 83       	std	Y+6, r25	; 0x06
    303a:	8d 83       	std	Y+5, r24	; 0x05
    303c:	ae 01       	movw	r20, r28
    303e:	47 5e       	subi	r20, 0xE7	; 231
    3040:	5f 4f       	sbci	r21, 0xFF	; 255
    3042:	6f 89       	ldd	r22, Y+23	; 0x17
    3044:	78 8d       	ldd	r23, Y+24	; 0x18
    3046:	ce 01       	movw	r24, r28
    3048:	01 96       	adiw	r24, 0x01	; 1
    304a:	08 d0       	rcall	.+16     	; 0x305c <vfprintf>
    304c:	ef 81       	ldd	r30, Y+7	; 0x07
    304e:	f8 85       	ldd	r31, Y+8	; 0x08
    3050:	e0 0f       	add	r30, r16
    3052:	f1 1f       	adc	r31, r17
    3054:	10 82       	st	Z, r1
    3056:	2e 96       	adiw	r28, 0x0e	; 14
    3058:	e4 e0       	ldi	r30, 0x04	; 4
    305a:	c6 c2       	rjmp	.+1420   	; 0x35e8 <__epilogue_restores__+0x1c>

0000305c <vfprintf>:
    305c:	ab e0       	ldi	r26, 0x0B	; 11
    305e:	b0 e0       	ldi	r27, 0x00	; 0
    3060:	e3 e3       	ldi	r30, 0x33	; 51
    3062:	f8 e1       	ldi	r31, 0x18	; 24
    3064:	97 c2       	rjmp	.+1326   	; 0x3594 <__prologue_saves__>
    3066:	6c 01       	movw	r12, r24
    3068:	7b 01       	movw	r14, r22
    306a:	8a 01       	movw	r16, r20
    306c:	fc 01       	movw	r30, r24
    306e:	17 82       	std	Z+7, r1	; 0x07
    3070:	16 82       	std	Z+6, r1	; 0x06
    3072:	83 81       	ldd	r24, Z+3	; 0x03
    3074:	81 ff       	sbrs	r24, 1
    3076:	bf c1       	rjmp	.+894    	; 0x33f6 <vfprintf+0x39a>
    3078:	ce 01       	movw	r24, r28
    307a:	01 96       	adiw	r24, 0x01	; 1
    307c:	3c 01       	movw	r6, r24
    307e:	f6 01       	movw	r30, r12
    3080:	93 81       	ldd	r25, Z+3	; 0x03
    3082:	f7 01       	movw	r30, r14
    3084:	93 fd       	sbrc	r25, 3
    3086:	85 91       	lpm	r24, Z+
    3088:	93 ff       	sbrs	r25, 3
    308a:	81 91       	ld	r24, Z+
    308c:	7f 01       	movw	r14, r30
    308e:	88 23       	and	r24, r24
    3090:	09 f4       	brne	.+2      	; 0x3094 <vfprintf+0x38>
    3092:	ad c1       	rjmp	.+858    	; 0x33ee <vfprintf+0x392>
    3094:	85 32       	cpi	r24, 0x25	; 37
    3096:	39 f4       	brne	.+14     	; 0x30a6 <vfprintf+0x4a>
    3098:	93 fd       	sbrc	r25, 3
    309a:	85 91       	lpm	r24, Z+
    309c:	93 ff       	sbrs	r25, 3
    309e:	81 91       	ld	r24, Z+
    30a0:	7f 01       	movw	r14, r30
    30a2:	85 32       	cpi	r24, 0x25	; 37
    30a4:	21 f4       	brne	.+8      	; 0x30ae <vfprintf+0x52>
    30a6:	b6 01       	movw	r22, r12
    30a8:	90 e0       	ldi	r25, 0x00	; 0
    30aa:	c0 d1       	rcall	.+896    	; 0x342c <fputc>
    30ac:	e8 cf       	rjmp	.-48     	; 0x307e <vfprintf+0x22>
    30ae:	91 2c       	mov	r9, r1
    30b0:	21 2c       	mov	r2, r1
    30b2:	31 2c       	mov	r3, r1
    30b4:	ff e1       	ldi	r31, 0x1F	; 31
    30b6:	f3 15       	cp	r31, r3
    30b8:	d8 f0       	brcs	.+54     	; 0x30f0 <vfprintf+0x94>
    30ba:	8b 32       	cpi	r24, 0x2B	; 43
    30bc:	79 f0       	breq	.+30     	; 0x30dc <vfprintf+0x80>
    30be:	38 f4       	brcc	.+14     	; 0x30ce <vfprintf+0x72>
    30c0:	80 32       	cpi	r24, 0x20	; 32
    30c2:	79 f0       	breq	.+30     	; 0x30e2 <vfprintf+0x86>
    30c4:	83 32       	cpi	r24, 0x23	; 35
    30c6:	a1 f4       	brne	.+40     	; 0x30f0 <vfprintf+0x94>
    30c8:	23 2d       	mov	r18, r3
    30ca:	20 61       	ori	r18, 0x10	; 16
    30cc:	1d c0       	rjmp	.+58     	; 0x3108 <vfprintf+0xac>
    30ce:	8d 32       	cpi	r24, 0x2D	; 45
    30d0:	61 f0       	breq	.+24     	; 0x30ea <vfprintf+0x8e>
    30d2:	80 33       	cpi	r24, 0x30	; 48
    30d4:	69 f4       	brne	.+26     	; 0x30f0 <vfprintf+0x94>
    30d6:	23 2d       	mov	r18, r3
    30d8:	21 60       	ori	r18, 0x01	; 1
    30da:	16 c0       	rjmp	.+44     	; 0x3108 <vfprintf+0xac>
    30dc:	83 2d       	mov	r24, r3
    30de:	82 60       	ori	r24, 0x02	; 2
    30e0:	38 2e       	mov	r3, r24
    30e2:	e3 2d       	mov	r30, r3
    30e4:	e4 60       	ori	r30, 0x04	; 4
    30e6:	3e 2e       	mov	r3, r30
    30e8:	2a c0       	rjmp	.+84     	; 0x313e <vfprintf+0xe2>
    30ea:	f3 2d       	mov	r31, r3
    30ec:	f8 60       	ori	r31, 0x08	; 8
    30ee:	1d c0       	rjmp	.+58     	; 0x312a <vfprintf+0xce>
    30f0:	37 fc       	sbrc	r3, 7
    30f2:	2d c0       	rjmp	.+90     	; 0x314e <vfprintf+0xf2>
    30f4:	20 ed       	ldi	r18, 0xD0	; 208
    30f6:	28 0f       	add	r18, r24
    30f8:	2a 30       	cpi	r18, 0x0A	; 10
    30fa:	40 f0       	brcs	.+16     	; 0x310c <vfprintf+0xb0>
    30fc:	8e 32       	cpi	r24, 0x2E	; 46
    30fe:	b9 f4       	brne	.+46     	; 0x312e <vfprintf+0xd2>
    3100:	36 fc       	sbrc	r3, 6
    3102:	75 c1       	rjmp	.+746    	; 0x33ee <vfprintf+0x392>
    3104:	23 2d       	mov	r18, r3
    3106:	20 64       	ori	r18, 0x40	; 64
    3108:	32 2e       	mov	r3, r18
    310a:	19 c0       	rjmp	.+50     	; 0x313e <vfprintf+0xe2>
    310c:	36 fe       	sbrs	r3, 6
    310e:	06 c0       	rjmp	.+12     	; 0x311c <vfprintf+0xc0>
    3110:	8a e0       	ldi	r24, 0x0A	; 10
    3112:	98 9e       	mul	r9, r24
    3114:	20 0d       	add	r18, r0
    3116:	11 24       	eor	r1, r1
    3118:	92 2e       	mov	r9, r18
    311a:	11 c0       	rjmp	.+34     	; 0x313e <vfprintf+0xe2>
    311c:	ea e0       	ldi	r30, 0x0A	; 10
    311e:	2e 9e       	mul	r2, r30
    3120:	20 0d       	add	r18, r0
    3122:	11 24       	eor	r1, r1
    3124:	22 2e       	mov	r2, r18
    3126:	f3 2d       	mov	r31, r3
    3128:	f0 62       	ori	r31, 0x20	; 32
    312a:	3f 2e       	mov	r3, r31
    312c:	08 c0       	rjmp	.+16     	; 0x313e <vfprintf+0xe2>
    312e:	8c 36       	cpi	r24, 0x6C	; 108
    3130:	21 f4       	brne	.+8      	; 0x313a <vfprintf+0xde>
    3132:	83 2d       	mov	r24, r3
    3134:	80 68       	ori	r24, 0x80	; 128
    3136:	38 2e       	mov	r3, r24
    3138:	02 c0       	rjmp	.+4      	; 0x313e <vfprintf+0xe2>
    313a:	88 36       	cpi	r24, 0x68	; 104
    313c:	41 f4       	brne	.+16     	; 0x314e <vfprintf+0xf2>
    313e:	f7 01       	movw	r30, r14
    3140:	93 fd       	sbrc	r25, 3
    3142:	85 91       	lpm	r24, Z+
    3144:	93 ff       	sbrs	r25, 3
    3146:	81 91       	ld	r24, Z+
    3148:	7f 01       	movw	r14, r30
    314a:	81 11       	cpse	r24, r1
    314c:	b3 cf       	rjmp	.-154    	; 0x30b4 <vfprintf+0x58>
    314e:	98 2f       	mov	r25, r24
    3150:	9f 7d       	andi	r25, 0xDF	; 223
    3152:	95 54       	subi	r25, 0x45	; 69
    3154:	93 30       	cpi	r25, 0x03	; 3
    3156:	28 f4       	brcc	.+10     	; 0x3162 <vfprintf+0x106>
    3158:	0c 5f       	subi	r16, 0xFC	; 252
    315a:	1f 4f       	sbci	r17, 0xFF	; 255
    315c:	9f e3       	ldi	r25, 0x3F	; 63
    315e:	99 83       	std	Y+1, r25	; 0x01
    3160:	0d c0       	rjmp	.+26     	; 0x317c <vfprintf+0x120>
    3162:	83 36       	cpi	r24, 0x63	; 99
    3164:	31 f0       	breq	.+12     	; 0x3172 <vfprintf+0x116>
    3166:	83 37       	cpi	r24, 0x73	; 115
    3168:	71 f0       	breq	.+28     	; 0x3186 <vfprintf+0x12a>
    316a:	83 35       	cpi	r24, 0x53	; 83
    316c:	09 f0       	breq	.+2      	; 0x3170 <vfprintf+0x114>
    316e:	55 c0       	rjmp	.+170    	; 0x321a <vfprintf+0x1be>
    3170:	20 c0       	rjmp	.+64     	; 0x31b2 <vfprintf+0x156>
    3172:	f8 01       	movw	r30, r16
    3174:	80 81       	ld	r24, Z
    3176:	89 83       	std	Y+1, r24	; 0x01
    3178:	0e 5f       	subi	r16, 0xFE	; 254
    317a:	1f 4f       	sbci	r17, 0xFF	; 255
    317c:	88 24       	eor	r8, r8
    317e:	83 94       	inc	r8
    3180:	91 2c       	mov	r9, r1
    3182:	53 01       	movw	r10, r6
    3184:	12 c0       	rjmp	.+36     	; 0x31aa <vfprintf+0x14e>
    3186:	28 01       	movw	r4, r16
    3188:	f2 e0       	ldi	r31, 0x02	; 2
    318a:	4f 0e       	add	r4, r31
    318c:	51 1c       	adc	r5, r1
    318e:	f8 01       	movw	r30, r16
    3190:	a0 80       	ld	r10, Z
    3192:	b1 80       	ldd	r11, Z+1	; 0x01
    3194:	36 fe       	sbrs	r3, 6
    3196:	03 c0       	rjmp	.+6      	; 0x319e <vfprintf+0x142>
    3198:	69 2d       	mov	r22, r9
    319a:	70 e0       	ldi	r23, 0x00	; 0
    319c:	02 c0       	rjmp	.+4      	; 0x31a2 <vfprintf+0x146>
    319e:	6f ef       	ldi	r22, 0xFF	; 255
    31a0:	7f ef       	ldi	r23, 0xFF	; 255
    31a2:	c5 01       	movw	r24, r10
    31a4:	38 d1       	rcall	.+624    	; 0x3416 <strnlen>
    31a6:	4c 01       	movw	r8, r24
    31a8:	82 01       	movw	r16, r4
    31aa:	f3 2d       	mov	r31, r3
    31ac:	ff 77       	andi	r31, 0x7F	; 127
    31ae:	3f 2e       	mov	r3, r31
    31b0:	15 c0       	rjmp	.+42     	; 0x31dc <vfprintf+0x180>
    31b2:	28 01       	movw	r4, r16
    31b4:	22 e0       	ldi	r18, 0x02	; 2
    31b6:	42 0e       	add	r4, r18
    31b8:	51 1c       	adc	r5, r1
    31ba:	f8 01       	movw	r30, r16
    31bc:	a0 80       	ld	r10, Z
    31be:	b1 80       	ldd	r11, Z+1	; 0x01
    31c0:	36 fe       	sbrs	r3, 6
    31c2:	03 c0       	rjmp	.+6      	; 0x31ca <vfprintf+0x16e>
    31c4:	69 2d       	mov	r22, r9
    31c6:	70 e0       	ldi	r23, 0x00	; 0
    31c8:	02 c0       	rjmp	.+4      	; 0x31ce <vfprintf+0x172>
    31ca:	6f ef       	ldi	r22, 0xFF	; 255
    31cc:	7f ef       	ldi	r23, 0xFF	; 255
    31ce:	c5 01       	movw	r24, r10
    31d0:	17 d1       	rcall	.+558    	; 0x3400 <strnlen_P>
    31d2:	4c 01       	movw	r8, r24
    31d4:	f3 2d       	mov	r31, r3
    31d6:	f0 68       	ori	r31, 0x80	; 128
    31d8:	3f 2e       	mov	r3, r31
    31da:	82 01       	movw	r16, r4
    31dc:	33 fc       	sbrc	r3, 3
    31de:	19 c0       	rjmp	.+50     	; 0x3212 <vfprintf+0x1b6>
    31e0:	82 2d       	mov	r24, r2
    31e2:	90 e0       	ldi	r25, 0x00	; 0
    31e4:	88 16       	cp	r8, r24
    31e6:	99 06       	cpc	r9, r25
    31e8:	a0 f4       	brcc	.+40     	; 0x3212 <vfprintf+0x1b6>
    31ea:	b6 01       	movw	r22, r12
    31ec:	80 e2       	ldi	r24, 0x20	; 32
    31ee:	90 e0       	ldi	r25, 0x00	; 0
    31f0:	1d d1       	rcall	.+570    	; 0x342c <fputc>
    31f2:	2a 94       	dec	r2
    31f4:	f5 cf       	rjmp	.-22     	; 0x31e0 <vfprintf+0x184>
    31f6:	f5 01       	movw	r30, r10
    31f8:	37 fc       	sbrc	r3, 7
    31fa:	85 91       	lpm	r24, Z+
    31fc:	37 fe       	sbrs	r3, 7
    31fe:	81 91       	ld	r24, Z+
    3200:	5f 01       	movw	r10, r30
    3202:	b6 01       	movw	r22, r12
    3204:	90 e0       	ldi	r25, 0x00	; 0
    3206:	12 d1       	rcall	.+548    	; 0x342c <fputc>
    3208:	21 10       	cpse	r2, r1
    320a:	2a 94       	dec	r2
    320c:	21 e0       	ldi	r18, 0x01	; 1
    320e:	82 1a       	sub	r8, r18
    3210:	91 08       	sbc	r9, r1
    3212:	81 14       	cp	r8, r1
    3214:	91 04       	cpc	r9, r1
    3216:	79 f7       	brne	.-34     	; 0x31f6 <vfprintf+0x19a>
    3218:	e1 c0       	rjmp	.+450    	; 0x33dc <vfprintf+0x380>
    321a:	84 36       	cpi	r24, 0x64	; 100
    321c:	11 f0       	breq	.+4      	; 0x3222 <vfprintf+0x1c6>
    321e:	89 36       	cpi	r24, 0x69	; 105
    3220:	39 f5       	brne	.+78     	; 0x3270 <vfprintf+0x214>
    3222:	f8 01       	movw	r30, r16
    3224:	37 fe       	sbrs	r3, 7
    3226:	07 c0       	rjmp	.+14     	; 0x3236 <vfprintf+0x1da>
    3228:	60 81       	ld	r22, Z
    322a:	71 81       	ldd	r23, Z+1	; 0x01
    322c:	82 81       	ldd	r24, Z+2	; 0x02
    322e:	93 81       	ldd	r25, Z+3	; 0x03
    3230:	0c 5f       	subi	r16, 0xFC	; 252
    3232:	1f 4f       	sbci	r17, 0xFF	; 255
    3234:	08 c0       	rjmp	.+16     	; 0x3246 <vfprintf+0x1ea>
    3236:	60 81       	ld	r22, Z
    3238:	71 81       	ldd	r23, Z+1	; 0x01
    323a:	07 2e       	mov	r0, r23
    323c:	00 0c       	add	r0, r0
    323e:	88 0b       	sbc	r24, r24
    3240:	99 0b       	sbc	r25, r25
    3242:	0e 5f       	subi	r16, 0xFE	; 254
    3244:	1f 4f       	sbci	r17, 0xFF	; 255
    3246:	f3 2d       	mov	r31, r3
    3248:	ff 76       	andi	r31, 0x6F	; 111
    324a:	3f 2e       	mov	r3, r31
    324c:	97 ff       	sbrs	r25, 7
    324e:	09 c0       	rjmp	.+18     	; 0x3262 <vfprintf+0x206>
    3250:	90 95       	com	r25
    3252:	80 95       	com	r24
    3254:	70 95       	com	r23
    3256:	61 95       	neg	r22
    3258:	7f 4f       	sbci	r23, 0xFF	; 255
    325a:	8f 4f       	sbci	r24, 0xFF	; 255
    325c:	9f 4f       	sbci	r25, 0xFF	; 255
    325e:	f0 68       	ori	r31, 0x80	; 128
    3260:	3f 2e       	mov	r3, r31
    3262:	2a e0       	ldi	r18, 0x0A	; 10
    3264:	30 e0       	ldi	r19, 0x00	; 0
    3266:	a3 01       	movw	r20, r6
    3268:	1d d1       	rcall	.+570    	; 0x34a4 <__ultoa_invert>
    326a:	88 2e       	mov	r8, r24
    326c:	86 18       	sub	r8, r6
    326e:	44 c0       	rjmp	.+136    	; 0x32f8 <vfprintf+0x29c>
    3270:	85 37       	cpi	r24, 0x75	; 117
    3272:	31 f4       	brne	.+12     	; 0x3280 <vfprintf+0x224>
    3274:	23 2d       	mov	r18, r3
    3276:	2f 7e       	andi	r18, 0xEF	; 239
    3278:	b2 2e       	mov	r11, r18
    327a:	2a e0       	ldi	r18, 0x0A	; 10
    327c:	30 e0       	ldi	r19, 0x00	; 0
    327e:	25 c0       	rjmp	.+74     	; 0x32ca <vfprintf+0x26e>
    3280:	93 2d       	mov	r25, r3
    3282:	99 7f       	andi	r25, 0xF9	; 249
    3284:	b9 2e       	mov	r11, r25
    3286:	8f 36       	cpi	r24, 0x6F	; 111
    3288:	c1 f0       	breq	.+48     	; 0x32ba <vfprintf+0x25e>
    328a:	18 f4       	brcc	.+6      	; 0x3292 <vfprintf+0x236>
    328c:	88 35       	cpi	r24, 0x58	; 88
    328e:	79 f0       	breq	.+30     	; 0x32ae <vfprintf+0x252>
    3290:	ae c0       	rjmp	.+348    	; 0x33ee <vfprintf+0x392>
    3292:	80 37       	cpi	r24, 0x70	; 112
    3294:	19 f0       	breq	.+6      	; 0x329c <vfprintf+0x240>
    3296:	88 37       	cpi	r24, 0x78	; 120
    3298:	21 f0       	breq	.+8      	; 0x32a2 <vfprintf+0x246>
    329a:	a9 c0       	rjmp	.+338    	; 0x33ee <vfprintf+0x392>
    329c:	e9 2f       	mov	r30, r25
    329e:	e0 61       	ori	r30, 0x10	; 16
    32a0:	be 2e       	mov	r11, r30
    32a2:	b4 fe       	sbrs	r11, 4
    32a4:	0d c0       	rjmp	.+26     	; 0x32c0 <vfprintf+0x264>
    32a6:	fb 2d       	mov	r31, r11
    32a8:	f4 60       	ori	r31, 0x04	; 4
    32aa:	bf 2e       	mov	r11, r31
    32ac:	09 c0       	rjmp	.+18     	; 0x32c0 <vfprintf+0x264>
    32ae:	34 fe       	sbrs	r3, 4
    32b0:	0a c0       	rjmp	.+20     	; 0x32c6 <vfprintf+0x26a>
    32b2:	29 2f       	mov	r18, r25
    32b4:	26 60       	ori	r18, 0x06	; 6
    32b6:	b2 2e       	mov	r11, r18
    32b8:	06 c0       	rjmp	.+12     	; 0x32c6 <vfprintf+0x26a>
    32ba:	28 e0       	ldi	r18, 0x08	; 8
    32bc:	30 e0       	ldi	r19, 0x00	; 0
    32be:	05 c0       	rjmp	.+10     	; 0x32ca <vfprintf+0x26e>
    32c0:	20 e1       	ldi	r18, 0x10	; 16
    32c2:	30 e0       	ldi	r19, 0x00	; 0
    32c4:	02 c0       	rjmp	.+4      	; 0x32ca <vfprintf+0x26e>
    32c6:	20 e1       	ldi	r18, 0x10	; 16
    32c8:	32 e0       	ldi	r19, 0x02	; 2
    32ca:	f8 01       	movw	r30, r16
    32cc:	b7 fe       	sbrs	r11, 7
    32ce:	07 c0       	rjmp	.+14     	; 0x32de <vfprintf+0x282>
    32d0:	60 81       	ld	r22, Z
    32d2:	71 81       	ldd	r23, Z+1	; 0x01
    32d4:	82 81       	ldd	r24, Z+2	; 0x02
    32d6:	93 81       	ldd	r25, Z+3	; 0x03
    32d8:	0c 5f       	subi	r16, 0xFC	; 252
    32da:	1f 4f       	sbci	r17, 0xFF	; 255
    32dc:	06 c0       	rjmp	.+12     	; 0x32ea <vfprintf+0x28e>
    32de:	60 81       	ld	r22, Z
    32e0:	71 81       	ldd	r23, Z+1	; 0x01
    32e2:	80 e0       	ldi	r24, 0x00	; 0
    32e4:	90 e0       	ldi	r25, 0x00	; 0
    32e6:	0e 5f       	subi	r16, 0xFE	; 254
    32e8:	1f 4f       	sbci	r17, 0xFF	; 255
    32ea:	a3 01       	movw	r20, r6
    32ec:	db d0       	rcall	.+438    	; 0x34a4 <__ultoa_invert>
    32ee:	88 2e       	mov	r8, r24
    32f0:	86 18       	sub	r8, r6
    32f2:	fb 2d       	mov	r31, r11
    32f4:	ff 77       	andi	r31, 0x7F	; 127
    32f6:	3f 2e       	mov	r3, r31
    32f8:	36 fe       	sbrs	r3, 6
    32fa:	0d c0       	rjmp	.+26     	; 0x3316 <vfprintf+0x2ba>
    32fc:	23 2d       	mov	r18, r3
    32fe:	2e 7f       	andi	r18, 0xFE	; 254
    3300:	a2 2e       	mov	r10, r18
    3302:	89 14       	cp	r8, r9
    3304:	58 f4       	brcc	.+22     	; 0x331c <vfprintf+0x2c0>
    3306:	34 fe       	sbrs	r3, 4
    3308:	0b c0       	rjmp	.+22     	; 0x3320 <vfprintf+0x2c4>
    330a:	32 fc       	sbrc	r3, 2
    330c:	09 c0       	rjmp	.+18     	; 0x3320 <vfprintf+0x2c4>
    330e:	83 2d       	mov	r24, r3
    3310:	8e 7e       	andi	r24, 0xEE	; 238
    3312:	a8 2e       	mov	r10, r24
    3314:	05 c0       	rjmp	.+10     	; 0x3320 <vfprintf+0x2c4>
    3316:	b8 2c       	mov	r11, r8
    3318:	a3 2c       	mov	r10, r3
    331a:	03 c0       	rjmp	.+6      	; 0x3322 <vfprintf+0x2c6>
    331c:	b8 2c       	mov	r11, r8
    331e:	01 c0       	rjmp	.+2      	; 0x3322 <vfprintf+0x2c6>
    3320:	b9 2c       	mov	r11, r9
    3322:	a4 fe       	sbrs	r10, 4
    3324:	0f c0       	rjmp	.+30     	; 0x3344 <vfprintf+0x2e8>
    3326:	fe 01       	movw	r30, r28
    3328:	e8 0d       	add	r30, r8
    332a:	f1 1d       	adc	r31, r1
    332c:	80 81       	ld	r24, Z
    332e:	80 33       	cpi	r24, 0x30	; 48
    3330:	21 f4       	brne	.+8      	; 0x333a <vfprintf+0x2de>
    3332:	9a 2d       	mov	r25, r10
    3334:	99 7e       	andi	r25, 0xE9	; 233
    3336:	a9 2e       	mov	r10, r25
    3338:	09 c0       	rjmp	.+18     	; 0x334c <vfprintf+0x2f0>
    333a:	a2 fe       	sbrs	r10, 2
    333c:	06 c0       	rjmp	.+12     	; 0x334a <vfprintf+0x2ee>
    333e:	b3 94       	inc	r11
    3340:	b3 94       	inc	r11
    3342:	04 c0       	rjmp	.+8      	; 0x334c <vfprintf+0x2f0>
    3344:	8a 2d       	mov	r24, r10
    3346:	86 78       	andi	r24, 0x86	; 134
    3348:	09 f0       	breq	.+2      	; 0x334c <vfprintf+0x2f0>
    334a:	b3 94       	inc	r11
    334c:	a3 fc       	sbrc	r10, 3
    334e:	10 c0       	rjmp	.+32     	; 0x3370 <vfprintf+0x314>
    3350:	a0 fe       	sbrs	r10, 0
    3352:	06 c0       	rjmp	.+12     	; 0x3360 <vfprintf+0x304>
    3354:	b2 14       	cp	r11, r2
    3356:	80 f4       	brcc	.+32     	; 0x3378 <vfprintf+0x31c>
    3358:	28 0c       	add	r2, r8
    335a:	92 2c       	mov	r9, r2
    335c:	9b 18       	sub	r9, r11
    335e:	0d c0       	rjmp	.+26     	; 0x337a <vfprintf+0x31e>
    3360:	b2 14       	cp	r11, r2
    3362:	58 f4       	brcc	.+22     	; 0x337a <vfprintf+0x31e>
    3364:	b6 01       	movw	r22, r12
    3366:	80 e2       	ldi	r24, 0x20	; 32
    3368:	90 e0       	ldi	r25, 0x00	; 0
    336a:	60 d0       	rcall	.+192    	; 0x342c <fputc>
    336c:	b3 94       	inc	r11
    336e:	f8 cf       	rjmp	.-16     	; 0x3360 <vfprintf+0x304>
    3370:	b2 14       	cp	r11, r2
    3372:	18 f4       	brcc	.+6      	; 0x337a <vfprintf+0x31e>
    3374:	2b 18       	sub	r2, r11
    3376:	02 c0       	rjmp	.+4      	; 0x337c <vfprintf+0x320>
    3378:	98 2c       	mov	r9, r8
    337a:	21 2c       	mov	r2, r1
    337c:	a4 fe       	sbrs	r10, 4
    337e:	0f c0       	rjmp	.+30     	; 0x339e <vfprintf+0x342>
    3380:	b6 01       	movw	r22, r12
    3382:	80 e3       	ldi	r24, 0x30	; 48
    3384:	90 e0       	ldi	r25, 0x00	; 0
    3386:	52 d0       	rcall	.+164    	; 0x342c <fputc>
    3388:	a2 fe       	sbrs	r10, 2
    338a:	16 c0       	rjmp	.+44     	; 0x33b8 <vfprintf+0x35c>
    338c:	a1 fc       	sbrc	r10, 1
    338e:	03 c0       	rjmp	.+6      	; 0x3396 <vfprintf+0x33a>
    3390:	88 e7       	ldi	r24, 0x78	; 120
    3392:	90 e0       	ldi	r25, 0x00	; 0
    3394:	02 c0       	rjmp	.+4      	; 0x339a <vfprintf+0x33e>
    3396:	88 e5       	ldi	r24, 0x58	; 88
    3398:	90 e0       	ldi	r25, 0x00	; 0
    339a:	b6 01       	movw	r22, r12
    339c:	0c c0       	rjmp	.+24     	; 0x33b6 <vfprintf+0x35a>
    339e:	8a 2d       	mov	r24, r10
    33a0:	86 78       	andi	r24, 0x86	; 134
    33a2:	51 f0       	breq	.+20     	; 0x33b8 <vfprintf+0x35c>
    33a4:	a1 fe       	sbrs	r10, 1
    33a6:	02 c0       	rjmp	.+4      	; 0x33ac <vfprintf+0x350>
    33a8:	8b e2       	ldi	r24, 0x2B	; 43
    33aa:	01 c0       	rjmp	.+2      	; 0x33ae <vfprintf+0x352>
    33ac:	80 e2       	ldi	r24, 0x20	; 32
    33ae:	a7 fc       	sbrc	r10, 7
    33b0:	8d e2       	ldi	r24, 0x2D	; 45
    33b2:	b6 01       	movw	r22, r12
    33b4:	90 e0       	ldi	r25, 0x00	; 0
    33b6:	3a d0       	rcall	.+116    	; 0x342c <fputc>
    33b8:	89 14       	cp	r8, r9
    33ba:	30 f4       	brcc	.+12     	; 0x33c8 <vfprintf+0x36c>
    33bc:	b6 01       	movw	r22, r12
    33be:	80 e3       	ldi	r24, 0x30	; 48
    33c0:	90 e0       	ldi	r25, 0x00	; 0
    33c2:	34 d0       	rcall	.+104    	; 0x342c <fputc>
    33c4:	9a 94       	dec	r9
    33c6:	f8 cf       	rjmp	.-16     	; 0x33b8 <vfprintf+0x35c>
    33c8:	8a 94       	dec	r8
    33ca:	f3 01       	movw	r30, r6
    33cc:	e8 0d       	add	r30, r8
    33ce:	f1 1d       	adc	r31, r1
    33d0:	80 81       	ld	r24, Z
    33d2:	b6 01       	movw	r22, r12
    33d4:	90 e0       	ldi	r25, 0x00	; 0
    33d6:	2a d0       	rcall	.+84     	; 0x342c <fputc>
    33d8:	81 10       	cpse	r8, r1
    33da:	f6 cf       	rjmp	.-20     	; 0x33c8 <vfprintf+0x36c>
    33dc:	22 20       	and	r2, r2
    33de:	09 f4       	brne	.+2      	; 0x33e2 <vfprintf+0x386>
    33e0:	4e ce       	rjmp	.-868    	; 0x307e <vfprintf+0x22>
    33e2:	b6 01       	movw	r22, r12
    33e4:	80 e2       	ldi	r24, 0x20	; 32
    33e6:	90 e0       	ldi	r25, 0x00	; 0
    33e8:	21 d0       	rcall	.+66     	; 0x342c <fputc>
    33ea:	2a 94       	dec	r2
    33ec:	f7 cf       	rjmp	.-18     	; 0x33dc <vfprintf+0x380>
    33ee:	f6 01       	movw	r30, r12
    33f0:	86 81       	ldd	r24, Z+6	; 0x06
    33f2:	97 81       	ldd	r25, Z+7	; 0x07
    33f4:	02 c0       	rjmp	.+4      	; 0x33fa <vfprintf+0x39e>
    33f6:	8f ef       	ldi	r24, 0xFF	; 255
    33f8:	9f ef       	ldi	r25, 0xFF	; 255
    33fa:	2b 96       	adiw	r28, 0x0b	; 11
    33fc:	e2 e1       	ldi	r30, 0x12	; 18
    33fe:	e6 c0       	rjmp	.+460    	; 0x35cc <__epilogue_restores__>

00003400 <strnlen_P>:
    3400:	fc 01       	movw	r30, r24
    3402:	05 90       	lpm	r0, Z+
    3404:	61 50       	subi	r22, 0x01	; 1
    3406:	70 40       	sbci	r23, 0x00	; 0
    3408:	01 10       	cpse	r0, r1
    340a:	d8 f7       	brcc	.-10     	; 0x3402 <strnlen_P+0x2>
    340c:	80 95       	com	r24
    340e:	90 95       	com	r25
    3410:	8e 0f       	add	r24, r30
    3412:	9f 1f       	adc	r25, r31
    3414:	08 95       	ret

00003416 <strnlen>:
    3416:	fc 01       	movw	r30, r24
    3418:	61 50       	subi	r22, 0x01	; 1
    341a:	70 40       	sbci	r23, 0x00	; 0
    341c:	01 90       	ld	r0, Z+
    341e:	01 10       	cpse	r0, r1
    3420:	d8 f7       	brcc	.-10     	; 0x3418 <strnlen+0x2>
    3422:	80 95       	com	r24
    3424:	90 95       	com	r25
    3426:	8e 0f       	add	r24, r30
    3428:	9f 1f       	adc	r25, r31
    342a:	08 95       	ret

0000342c <fputc>:
    342c:	0f 93       	push	r16
    342e:	1f 93       	push	r17
    3430:	cf 93       	push	r28
    3432:	df 93       	push	r29
    3434:	fb 01       	movw	r30, r22
    3436:	23 81       	ldd	r18, Z+3	; 0x03
    3438:	21 fd       	sbrc	r18, 1
    343a:	03 c0       	rjmp	.+6      	; 0x3442 <fputc+0x16>
    343c:	8f ef       	ldi	r24, 0xFF	; 255
    343e:	9f ef       	ldi	r25, 0xFF	; 255
    3440:	2c c0       	rjmp	.+88     	; 0x349a <fputc+0x6e>
    3442:	22 ff       	sbrs	r18, 2
    3444:	16 c0       	rjmp	.+44     	; 0x3472 <fputc+0x46>
    3446:	46 81       	ldd	r20, Z+6	; 0x06
    3448:	57 81       	ldd	r21, Z+7	; 0x07
    344a:	24 81       	ldd	r18, Z+4	; 0x04
    344c:	35 81       	ldd	r19, Z+5	; 0x05
    344e:	42 17       	cp	r20, r18
    3450:	53 07       	cpc	r21, r19
    3452:	44 f4       	brge	.+16     	; 0x3464 <fputc+0x38>
    3454:	a0 81       	ld	r26, Z
    3456:	b1 81       	ldd	r27, Z+1	; 0x01
    3458:	9d 01       	movw	r18, r26
    345a:	2f 5f       	subi	r18, 0xFF	; 255
    345c:	3f 4f       	sbci	r19, 0xFF	; 255
    345e:	31 83       	std	Z+1, r19	; 0x01
    3460:	20 83       	st	Z, r18
    3462:	8c 93       	st	X, r24
    3464:	26 81       	ldd	r18, Z+6	; 0x06
    3466:	37 81       	ldd	r19, Z+7	; 0x07
    3468:	2f 5f       	subi	r18, 0xFF	; 255
    346a:	3f 4f       	sbci	r19, 0xFF	; 255
    346c:	37 83       	std	Z+7, r19	; 0x07
    346e:	26 83       	std	Z+6, r18	; 0x06
    3470:	14 c0       	rjmp	.+40     	; 0x349a <fputc+0x6e>
    3472:	8b 01       	movw	r16, r22
    3474:	ec 01       	movw	r28, r24
    3476:	fb 01       	movw	r30, r22
    3478:	00 84       	ldd	r0, Z+8	; 0x08
    347a:	f1 85       	ldd	r31, Z+9	; 0x09
    347c:	e0 2d       	mov	r30, r0
    347e:	09 95       	icall
    3480:	89 2b       	or	r24, r25
    3482:	e1 f6       	brne	.-72     	; 0x343c <fputc+0x10>
    3484:	d8 01       	movw	r26, r16
    3486:	16 96       	adiw	r26, 0x06	; 6
    3488:	8d 91       	ld	r24, X+
    348a:	9c 91       	ld	r25, X
    348c:	17 97       	sbiw	r26, 0x07	; 7
    348e:	01 96       	adiw	r24, 0x01	; 1
    3490:	17 96       	adiw	r26, 0x07	; 7
    3492:	9c 93       	st	X, r25
    3494:	8e 93       	st	-X, r24
    3496:	16 97       	sbiw	r26, 0x06	; 6
    3498:	ce 01       	movw	r24, r28
    349a:	df 91       	pop	r29
    349c:	cf 91       	pop	r28
    349e:	1f 91       	pop	r17
    34a0:	0f 91       	pop	r16
    34a2:	08 95       	ret

000034a4 <__ultoa_invert>:
    34a4:	fa 01       	movw	r30, r20
    34a6:	aa 27       	eor	r26, r26
    34a8:	28 30       	cpi	r18, 0x08	; 8
    34aa:	51 f1       	breq	.+84     	; 0x3500 <__ultoa_invert+0x5c>
    34ac:	20 31       	cpi	r18, 0x10	; 16
    34ae:	81 f1       	breq	.+96     	; 0x3510 <__ultoa_invert+0x6c>
    34b0:	e8 94       	clt
    34b2:	6f 93       	push	r22
    34b4:	6e 7f       	andi	r22, 0xFE	; 254
    34b6:	6e 5f       	subi	r22, 0xFE	; 254
    34b8:	7f 4f       	sbci	r23, 0xFF	; 255
    34ba:	8f 4f       	sbci	r24, 0xFF	; 255
    34bc:	9f 4f       	sbci	r25, 0xFF	; 255
    34be:	af 4f       	sbci	r26, 0xFF	; 255
    34c0:	b1 e0       	ldi	r27, 0x01	; 1
    34c2:	3e d0       	rcall	.+124    	; 0x3540 <__ultoa_invert+0x9c>
    34c4:	b4 e0       	ldi	r27, 0x04	; 4
    34c6:	3c d0       	rcall	.+120    	; 0x3540 <__ultoa_invert+0x9c>
    34c8:	67 0f       	add	r22, r23
    34ca:	78 1f       	adc	r23, r24
    34cc:	89 1f       	adc	r24, r25
    34ce:	9a 1f       	adc	r25, r26
    34d0:	a1 1d       	adc	r26, r1
    34d2:	68 0f       	add	r22, r24
    34d4:	79 1f       	adc	r23, r25
    34d6:	8a 1f       	adc	r24, r26
    34d8:	91 1d       	adc	r25, r1
    34da:	a1 1d       	adc	r26, r1
    34dc:	6a 0f       	add	r22, r26
    34de:	71 1d       	adc	r23, r1
    34e0:	81 1d       	adc	r24, r1
    34e2:	91 1d       	adc	r25, r1
    34e4:	a1 1d       	adc	r26, r1
    34e6:	20 d0       	rcall	.+64     	; 0x3528 <__ultoa_invert+0x84>
    34e8:	09 f4       	brne	.+2      	; 0x34ec <__ultoa_invert+0x48>
    34ea:	68 94       	set
    34ec:	3f 91       	pop	r19
    34ee:	2a e0       	ldi	r18, 0x0A	; 10
    34f0:	26 9f       	mul	r18, r22
    34f2:	11 24       	eor	r1, r1
    34f4:	30 19       	sub	r19, r0
    34f6:	30 5d       	subi	r19, 0xD0	; 208
    34f8:	31 93       	st	Z+, r19
    34fa:	de f6       	brtc	.-74     	; 0x34b2 <__ultoa_invert+0xe>
    34fc:	cf 01       	movw	r24, r30
    34fe:	08 95       	ret
    3500:	46 2f       	mov	r20, r22
    3502:	47 70       	andi	r20, 0x07	; 7
    3504:	40 5d       	subi	r20, 0xD0	; 208
    3506:	41 93       	st	Z+, r20
    3508:	b3 e0       	ldi	r27, 0x03	; 3
    350a:	0f d0       	rcall	.+30     	; 0x352a <__ultoa_invert+0x86>
    350c:	c9 f7       	brne	.-14     	; 0x3500 <__ultoa_invert+0x5c>
    350e:	f6 cf       	rjmp	.-20     	; 0x34fc <__ultoa_invert+0x58>
    3510:	46 2f       	mov	r20, r22
    3512:	4f 70       	andi	r20, 0x0F	; 15
    3514:	40 5d       	subi	r20, 0xD0	; 208
    3516:	4a 33       	cpi	r20, 0x3A	; 58
    3518:	18 f0       	brcs	.+6      	; 0x3520 <__ultoa_invert+0x7c>
    351a:	49 5d       	subi	r20, 0xD9	; 217
    351c:	31 fd       	sbrc	r19, 1
    351e:	40 52       	subi	r20, 0x20	; 32
    3520:	41 93       	st	Z+, r20
    3522:	02 d0       	rcall	.+4      	; 0x3528 <__ultoa_invert+0x84>
    3524:	a9 f7       	brne	.-22     	; 0x3510 <__ultoa_invert+0x6c>
    3526:	ea cf       	rjmp	.-44     	; 0x34fc <__ultoa_invert+0x58>
    3528:	b4 e0       	ldi	r27, 0x04	; 4
    352a:	a6 95       	lsr	r26
    352c:	97 95       	ror	r25
    352e:	87 95       	ror	r24
    3530:	77 95       	ror	r23
    3532:	67 95       	ror	r22
    3534:	ba 95       	dec	r27
    3536:	c9 f7       	brne	.-14     	; 0x352a <__ultoa_invert+0x86>
    3538:	00 97       	sbiw	r24, 0x00	; 0
    353a:	61 05       	cpc	r22, r1
    353c:	71 05       	cpc	r23, r1
    353e:	08 95       	ret
    3540:	9b 01       	movw	r18, r22
    3542:	ac 01       	movw	r20, r24
    3544:	0a 2e       	mov	r0, r26
    3546:	06 94       	lsr	r0
    3548:	57 95       	ror	r21
    354a:	47 95       	ror	r20
    354c:	37 95       	ror	r19
    354e:	27 95       	ror	r18
    3550:	ba 95       	dec	r27
    3552:	c9 f7       	brne	.-14     	; 0x3546 <__ultoa_invert+0xa2>
    3554:	62 0f       	add	r22, r18
    3556:	73 1f       	adc	r23, r19
    3558:	84 1f       	adc	r24, r20
    355a:	95 1f       	adc	r25, r21
    355c:	a0 1d       	adc	r26, r0
    355e:	08 95       	ret

00003560 <eeprom_read_byte>:
    3560:	f9 99       	sbic	0x1f, 1	; 31
    3562:	fe cf       	rjmp	.-4      	; 0x3560 <eeprom_read_byte>
    3564:	92 bd       	out	0x22, r25	; 34
    3566:	81 bd       	out	0x21, r24	; 33
    3568:	f8 9a       	sbi	0x1f, 0	; 31
    356a:	99 27       	eor	r25, r25
    356c:	80 b5       	in	r24, 0x20	; 32
    356e:	08 95       	ret

00003570 <eeprom_update_byte>:
    3570:	26 2f       	mov	r18, r22

00003572 <eeprom_update_r18>:
    3572:	f9 99       	sbic	0x1f, 1	; 31
    3574:	fe cf       	rjmp	.-4      	; 0x3572 <eeprom_update_r18>
    3576:	92 bd       	out	0x22, r25	; 34
    3578:	81 bd       	out	0x21, r24	; 33
    357a:	f8 9a       	sbi	0x1f, 0	; 31
    357c:	01 97       	sbiw	r24, 0x01	; 1
    357e:	00 b4       	in	r0, 0x20	; 32
    3580:	02 16       	cp	r0, r18
    3582:	39 f0       	breq	.+14     	; 0x3592 <eeprom_update_r18+0x20>
    3584:	1f ba       	out	0x1f, r1	; 31
    3586:	20 bd       	out	0x20, r18	; 32
    3588:	0f b6       	in	r0, 0x3f	; 63
    358a:	f8 94       	cli
    358c:	fa 9a       	sbi	0x1f, 2	; 31
    358e:	f9 9a       	sbi	0x1f, 1	; 31
    3590:	0f be       	out	0x3f, r0	; 63
    3592:	08 95       	ret

00003594 <__prologue_saves__>:
    3594:	2f 92       	push	r2
    3596:	3f 92       	push	r3
    3598:	4f 92       	push	r4
    359a:	5f 92       	push	r5
    359c:	6f 92       	push	r6
    359e:	7f 92       	push	r7
    35a0:	8f 92       	push	r8
    35a2:	9f 92       	push	r9
    35a4:	af 92       	push	r10
    35a6:	bf 92       	push	r11
    35a8:	cf 92       	push	r12
    35aa:	df 92       	push	r13
    35ac:	ef 92       	push	r14
    35ae:	ff 92       	push	r15
    35b0:	0f 93       	push	r16
    35b2:	1f 93       	push	r17
    35b4:	cf 93       	push	r28
    35b6:	df 93       	push	r29
    35b8:	cd b7       	in	r28, 0x3d	; 61
    35ba:	de b7       	in	r29, 0x3e	; 62
    35bc:	ca 1b       	sub	r28, r26
    35be:	db 0b       	sbc	r29, r27
    35c0:	0f b6       	in	r0, 0x3f	; 63
    35c2:	f8 94       	cli
    35c4:	de bf       	out	0x3e, r29	; 62
    35c6:	0f be       	out	0x3f, r0	; 63
    35c8:	cd bf       	out	0x3d, r28	; 61
    35ca:	09 94       	ijmp

000035cc <__epilogue_restores__>:
    35cc:	2a 88       	ldd	r2, Y+18	; 0x12
    35ce:	39 88       	ldd	r3, Y+17	; 0x11
    35d0:	48 88       	ldd	r4, Y+16	; 0x10
    35d2:	5f 84       	ldd	r5, Y+15	; 0x0f
    35d4:	6e 84       	ldd	r6, Y+14	; 0x0e
    35d6:	7d 84       	ldd	r7, Y+13	; 0x0d
    35d8:	8c 84       	ldd	r8, Y+12	; 0x0c
    35da:	9b 84       	ldd	r9, Y+11	; 0x0b
    35dc:	aa 84       	ldd	r10, Y+10	; 0x0a
    35de:	b9 84       	ldd	r11, Y+9	; 0x09
    35e0:	c8 84       	ldd	r12, Y+8	; 0x08
    35e2:	df 80       	ldd	r13, Y+7	; 0x07
    35e4:	ee 80       	ldd	r14, Y+6	; 0x06
    35e6:	fd 80       	ldd	r15, Y+5	; 0x05
    35e8:	0c 81       	ldd	r16, Y+4	; 0x04
    35ea:	1b 81       	ldd	r17, Y+3	; 0x03
    35ec:	aa 81       	ldd	r26, Y+2	; 0x02
    35ee:	b9 81       	ldd	r27, Y+1	; 0x01
    35f0:	ce 0f       	add	r28, r30
    35f2:	d1 1d       	adc	r29, r1
    35f4:	0f b6       	in	r0, 0x3f	; 63
    35f6:	f8 94       	cli
    35f8:	de bf       	out	0x3e, r29	; 62
    35fa:	0f be       	out	0x3f, r0	; 63
    35fc:	cd bf       	out	0x3d, r28	; 61
    35fe:	ed 01       	movw	r28, r26
    3600:	08 95       	ret

00003602 <_exit>:
    3602:	f8 94       	cli

00003604 <__stop_program>:
    3604:	ff cf       	rjmp	.-2      	; 0x3604 <__stop_program>
