
HackIRRemote.elf:     file format elf32-avr

Sections:
Idx Name          Size      VMA       LMA       File off  Algn
  0 .data         000000ae  00800100  00003460  000034f4  2**0
                  CONTENTS, ALLOC, LOAD, DATA
  1 .text         00003460  00000000  00000000  00000094  2**1
                  CONTENTS, ALLOC, LOAD, READONLY, CODE
  2 .bss          00000115  008001ae  008001ae  000035a2  2**0
                  ALLOC
  3 .comment      0000005c  00000000  00000000  000035a2  2**0
                  CONTENTS, READONLY
  4 .note.gnu.avr.deviceinfo 00000040  00000000  00000000  00003600  2**2
                  CONTENTS, READONLY
  5 .debug_aranges 00000470  00000000  00000000  00003640  2**3
                  CONTENTS, READONLY, DEBUGGING
  6 .debug_info   00004833  00000000  00000000  00003ab0  2**0
                  CONTENTS, READONLY, DEBUGGING
  7 .debug_abbrev 000015e1  00000000  00000000  000082e3  2**0
                  CONTENTS, READONLY, DEBUGGING
  8 .debug_line   00002ee0  00000000  00000000  000098c4  2**0
                  CONTENTS, READONLY, DEBUGGING
  9 .debug_frame  00000e2c  00000000  00000000  0000c7a4  2**2
                  CONTENTS, READONLY, DEBUGGING
 10 .debug_str    00000c2f  00000000  00000000  0000d5d0  2**0
                  CONTENTS, READONLY, DEBUGGING
 11 .debug_loc    00003f26  00000000  00000000  0000e1ff  2**0
                  CONTENTS, READONLY, DEBUGGING
 12 .debug_ranges 00000390  00000000  00000000  00012125  2**0
                  CONTENTS, READONLY, DEBUGGING

Disassembly of section .text:

00000000 <__vectors>:
       0:	e3 c0       	rjmp	.+454    	; 0x1c8 <__ctors_end>
       2:	00 00       	nop
       4:	fe c0       	rjmp	.+508    	; 0x202 <__bad_interrupt>
       6:	00 00       	nop
       8:	fc c0       	rjmp	.+504    	; 0x202 <__bad_interrupt>
       a:	00 00       	nop
       c:	fa c0       	rjmp	.+500    	; 0x202 <__bad_interrupt>
       e:	00 00       	nop
      10:	f8 c0       	rjmp	.+496    	; 0x202 <__bad_interrupt>
      12:	00 00       	nop
      14:	f6 c0       	rjmp	.+492    	; 0x202 <__bad_interrupt>
      16:	00 00       	nop
      18:	f4 c0       	rjmp	.+488    	; 0x202 <__bad_interrupt>
      1a:	00 00       	nop
      1c:	0c 94 0c 14 	jmp	0x2818	; 0x2818 <__vector_7>
      20:	f0 c0       	rjmp	.+480    	; 0x202 <__bad_interrupt>
      22:	00 00       	nop
      24:	ee c0       	rjmp	.+476    	; 0x202 <__bad_interrupt>
      26:	00 00       	nop
      28:	ec c0       	rjmp	.+472    	; 0x202 <__bad_interrupt>
      2a:	00 00       	nop
      2c:	ea c0       	rjmp	.+468    	; 0x202 <__bad_interrupt>
      2e:	00 00       	nop
      30:	e8 c0       	rjmp	.+464    	; 0x202 <__bad_interrupt>
      32:	00 00       	nop
      34:	e6 c0       	rjmp	.+460    	; 0x202 <__bad_interrupt>
      36:	00 00       	nop
      38:	0c 94 e9 13 	jmp	0x27d2	; 0x27d2 <__vector_14>
      3c:	e2 c0       	rjmp	.+452    	; 0x202 <__bad_interrupt>
      3e:	00 00       	nop
      40:	e0 c0       	rjmp	.+448    	; 0x202 <__bad_interrupt>
      42:	00 00       	nop
      44:	de c0       	rjmp	.+444    	; 0x202 <__bad_interrupt>
      46:	00 00       	nop
      48:	dc c0       	rjmp	.+440    	; 0x202 <__bad_interrupt>
      4a:	00 00       	nop
      4c:	da c0       	rjmp	.+436    	; 0x202 <__bad_interrupt>
      4e:	00 00       	nop
      50:	d8 c0       	rjmp	.+432    	; 0x202 <__bad_interrupt>
      52:	00 00       	nop
      54:	d6 c0       	rjmp	.+428    	; 0x202 <__bad_interrupt>
      56:	00 00       	nop
      58:	d4 c0       	rjmp	.+424    	; 0x202 <__bad_interrupt>
      5a:	00 00       	nop
      5c:	d2 c0       	rjmp	.+420    	; 0x202 <__bad_interrupt>
      5e:	00 00       	nop
      60:	d0 c0       	rjmp	.+416    	; 0x202 <__bad_interrupt>
      62:	00 00       	nop
      64:	ce c0       	rjmp	.+412    	; 0x202 <__bad_interrupt>
      66:	00 00       	nop
      68:	fd 02       	muls	r31, r29
      6a:	fd 02       	muls	r31, r29
      6c:	04 03       	mulsu	r16, r20
      6e:	fd 02       	muls	r31, r29
      70:	04 03       	mulsu	r16, r20
      72:	04 03       	mulsu	r16, r20
      74:	04 03       	mulsu	r16, r20
      76:	04 03       	mulsu	r16, r20
      78:	fd 02       	muls	r31, r29
      7a:	fd 02       	muls	r31, r29
      7c:	04 03       	mulsu	r16, r20
      7e:	fd 02       	muls	r31, r29
      80:	04 03       	mulsu	r16, r20
      82:	04 03       	mulsu	r16, r20
      84:	04 03       	mulsu	r16, r20
      86:	04 03       	mulsu	r16, r20
      88:	04 03       	mulsu	r16, r20
      8a:	04 03       	mulsu	r16, r20
      8c:	04 03       	mulsu	r16, r20
      8e:	04 03       	mulsu	r16, r20
      90:	04 03       	mulsu	r16, r20
      92:	04 03       	mulsu	r16, r20
      94:	04 03       	mulsu	r16, r20
      96:	04 03       	mulsu	r16, r20
      98:	fd 02       	muls	r31, r29
      9a:	fd 02       	muls	r31, r29
      9c:	04 03       	mulsu	r16, r20
      9e:	fd 02       	muls	r31, r29
      a0:	04 03       	mulsu	r16, r20
      a2:	04 03       	mulsu	r16, r20
      a4:	04 03       	mulsu	r16, r20
      a6:	04 03       	mulsu	r16, r20
      a8:	04 03       	mulsu	r16, r20
      aa:	04 03       	mulsu	r16, r20
      ac:	04 03       	mulsu	r16, r20
      ae:	04 03       	mulsu	r16, r20
      b0:	04 03       	mulsu	r16, r20
      b2:	04 03       	mulsu	r16, r20
      b4:	04 03       	mulsu	r16, r20
      b6:	04 03       	mulsu	r16, r20
      b8:	04 03       	mulsu	r16, r20
      ba:	04 03       	mulsu	r16, r20
      bc:	04 03       	mulsu	r16, r20
      be:	04 03       	mulsu	r16, r20
      c0:	04 03       	mulsu	r16, r20
      c2:	04 03       	mulsu	r16, r20
      c4:	04 03       	mulsu	r16, r20
      c6:	04 03       	mulsu	r16, r20
      c8:	04 03       	mulsu	r16, r20
      ca:	04 03       	mulsu	r16, r20
      cc:	04 03       	mulsu	r16, r20
      ce:	04 03       	mulsu	r16, r20
      d0:	04 03       	mulsu	r16, r20
      d2:	04 03       	mulsu	r16, r20
      d4:	04 03       	mulsu	r16, r20
      d6:	04 03       	mulsu	r16, r20
      d8:	fd 02       	muls	r31, r29
      da:	fd 02       	muls	r31, r29
      dc:	04 03       	mulsu	r16, r20
      de:	fd 02       	muls	r31, r29
      e0:	ef 03       	fmulsu	r22, r23
      e2:	f5 03       	fmuls	r23, r21
      e4:	30 04       	cpc	r3, r0
      e6:	fb 03       	fmulsu	r23, r19
      e8:	30 04       	cpc	r3, r0
      ea:	30 04       	cpc	r3, r0
      ec:	30 04       	cpc	r3, r0
      ee:	30 04       	cpc	r3, r0
      f0:	01 04       	cpc	r0, r1
      f2:	07 04       	cpc	r0, r7
      f4:	30 04       	cpc	r3, r0
      f6:	0d 04       	cpc	r0, r13
      f8:	30 04       	cpc	r3, r0
      fa:	30 04       	cpc	r3, r0
      fc:	30 04       	cpc	r3, r0
      fe:	30 04       	cpc	r3, r0
     100:	30 04       	cpc	r3, r0
     102:	30 04       	cpc	r3, r0
     104:	30 04       	cpc	r3, r0
     106:	30 04       	cpc	r3, r0
     108:	30 04       	cpc	r3, r0
     10a:	30 04       	cpc	r3, r0
     10c:	30 04       	cpc	r3, r0
     10e:	30 04       	cpc	r3, r0
     110:	13 04       	cpc	r1, r3
     112:	19 04       	cpc	r1, r9
     114:	30 04       	cpc	r3, r0
     116:	1f 04       	cpc	r1, r15
     118:	30 04       	cpc	r3, r0
     11a:	30 04       	cpc	r3, r0
     11c:	30 04       	cpc	r3, r0
     11e:	30 04       	cpc	r3, r0
     120:	30 04       	cpc	r3, r0
     122:	30 04       	cpc	r3, r0
     124:	30 04       	cpc	r3, r0
     126:	30 04       	cpc	r3, r0
     128:	30 04       	cpc	r3, r0
     12a:	30 04       	cpc	r3, r0
     12c:	30 04       	cpc	r3, r0
     12e:	30 04       	cpc	r3, r0
     130:	30 04       	cpc	r3, r0
     132:	30 04       	cpc	r3, r0
     134:	30 04       	cpc	r3, r0
     136:	30 04       	cpc	r3, r0
     138:	30 04       	cpc	r3, r0
     13a:	30 04       	cpc	r3, r0
     13c:	30 04       	cpc	r3, r0
     13e:	30 04       	cpc	r3, r0
     140:	30 04       	cpc	r3, r0
     142:	30 04       	cpc	r3, r0
     144:	30 04       	cpc	r3, r0
     146:	30 04       	cpc	r3, r0
     148:	30 04       	cpc	r3, r0
     14a:	30 04       	cpc	r3, r0
     14c:	30 04       	cpc	r3, r0
     14e:	30 04       	cpc	r3, r0
     150:	25 04       	cpc	r2, r5
     152:	e9 03       	fmulsu	r22, r17
     154:	cd 04       	cpc	r12, r13
     156:	d3 04       	cpc	r13, r3
     158:	03 05       	cpc	r16, r3
     15a:	d9 04       	cpc	r13, r9
     15c:	03 05       	cpc	r16, r3
     15e:	03 05       	cpc	r16, r3
     160:	03 05       	cpc	r16, r3
     162:	03 05       	cpc	r16, r3
     164:	df 04       	cpc	r13, r15
     166:	e5 04       	cpc	r14, r5
     168:	03 05       	cpc	r16, r3
     16a:	eb 04       	cpc	r14, r11
     16c:	03 05       	cpc	r16, r3
     16e:	03 05       	cpc	r16, r3
     170:	03 05       	cpc	r16, r3
     172:	03 05       	cpc	r16, r3
     174:	03 05       	cpc	r16, r3
     176:	03 05       	cpc	r16, r3
     178:	03 05       	cpc	r16, r3
     17a:	03 05       	cpc	r16, r3
     17c:	03 05       	cpc	r16, r3
     17e:	03 05       	cpc	r16, r3
     180:	03 05       	cpc	r16, r3
     182:	03 05       	cpc	r16, r3
     184:	f1 04       	cpc	r15, r1
     186:	f7 04       	cpc	r15, r7
     188:	03 05       	cpc	r16, r3
     18a:	fd 04       	cpc	r15, r13
     18c:	03 05       	cpc	r16, r3
     18e:	03 05       	cpc	r16, r3
     190:	03 05       	cpc	r16, r3
     192:	03 05       	cpc	r16, r3
     194:	03 05       	cpc	r16, r3
     196:	03 05       	cpc	r16, r3
     198:	03 05       	cpc	r16, r3
     19a:	03 05       	cpc	r16, r3
     19c:	03 05       	cpc	r16, r3
     19e:	03 05       	cpc	r16, r3
     1a0:	03 05       	cpc	r16, r3
     1a2:	03 05       	cpc	r16, r3
     1a4:	03 05       	cpc	r16, r3
     1a6:	03 05       	cpc	r16, r3
     1a8:	03 05       	cpc	r16, r3
     1aa:	03 05       	cpc	r16, r3
     1ac:	03 05       	cpc	r16, r3
     1ae:	03 05       	cpc	r16, r3
     1b0:	03 05       	cpc	r16, r3
     1b2:	03 05       	cpc	r16, r3
     1b4:	03 05       	cpc	r16, r3
     1b6:	03 05       	cpc	r16, r3
     1b8:	03 05       	cpc	r16, r3
     1ba:	03 05       	cpc	r16, r3
     1bc:	03 05       	cpc	r16, r3
     1be:	03 05       	cpc	r16, r3
     1c0:	03 05       	cpc	r16, r3
     1c2:	03 05       	cpc	r16, r3
     1c4:	03 05       	cpc	r16, r3
     1c6:	c7 04       	cpc	r12, r7

000001c8 <__ctors_end>:
     1c8:	11 24       	eor	r1, r1
     1ca:	1f be       	out	0x3f, r1	; 63
     1cc:	cf ef       	ldi	r28, 0xFF	; 255
     1ce:	d8 e0       	ldi	r29, 0x08	; 8
     1d0:	de bf       	out	0x3e, r29	; 62
     1d2:	cd bf       	out	0x3d, r28	; 61

000001d4 <__do_copy_data>:
     1d4:	11 e0       	ldi	r17, 0x01	; 1
     1d6:	a0 e0       	ldi	r26, 0x00	; 0
     1d8:	b1 e0       	ldi	r27, 0x01	; 1
     1da:	e0 e6       	ldi	r30, 0x60	; 96
     1dc:	f4 e3       	ldi	r31, 0x34	; 52
     1de:	02 c0       	rjmp	.+4      	; 0x1e4 <__do_copy_data+0x10>
     1e0:	05 90       	lpm	r0, Z+
     1e2:	0d 92       	st	X+, r0
     1e4:	ae 3a       	cpi	r26, 0xAE	; 174
     1e6:	b1 07       	cpc	r27, r17
     1e8:	d9 f7       	brne	.-10     	; 0x1e0 <__do_copy_data+0xc>

000001ea <__do_clear_bss>:
     1ea:	22 e0       	ldi	r18, 0x02	; 2
     1ec:	ae ea       	ldi	r26, 0xAE	; 174
     1ee:	b1 e0       	ldi	r27, 0x01	; 1
     1f0:	01 c0       	rjmp	.+2      	; 0x1f4 <.do_clear_bss_start>

000001f2 <.do_clear_bss_loop>:
     1f2:	1d 92       	st	X+, r1

000001f4 <.do_clear_bss_start>:
     1f4:	a3 3c       	cpi	r26, 0xC3	; 195
     1f6:	b2 07       	cpc	r27, r18
     1f8:	e1 f7       	brne	.-8      	; 0x1f2 <.do_clear_bss_loop>
     1fa:	0e 94 b2 13 	call	0x2764	; 0x2764 <main>
     1fe:	0c 94 2e 1a 	jmp	0x345c	; 0x345c <_exit>

00000202 <__bad_interrupt>:
     202:	fe ce       	rjmp	.-516    	; 0x0 <__vectors>

00000204 <saveCode>:
 *  Author: CDT
 */ 
#include "eeprom.h"

void saveCode(decode_results *dec_results, uint8_t offset)
{
     204:	df 92       	push	r13
     206:	ef 92       	push	r14
     208:	ff 92       	push	r15
     20a:	0f 93       	push	r16
     20c:	1f 93       	push	r17
     20e:	cf 93       	push	r28
     210:	df 93       	push	r29
     212:	ec 01       	movw	r28, r24
     214:	d6 2e       	mov	r13, r22
	switch(dec_results->decode_type)
     216:	88 81       	ld	r24, Y
     218:	99 81       	ldd	r25, Y+1	; 0x01
     21a:	82 30       	cpi	r24, 0x02	; 2
     21c:	91 05       	cpc	r25, r1
     21e:	09 f4       	brne	.+2      	; 0x222 <saveCode+0x1e>
     220:	49 c0       	rjmp	.+146    	; 0x2b4 <saveCode+0xb0>
     222:	83 30       	cpi	r24, 0x03	; 3
     224:	91 05       	cpc	r25, r1
     226:	f9 f0       	breq	.+62     	; 0x266 <saveCode+0x62>
     228:	01 97       	sbiw	r24, 0x01	; 1
     22a:	09 f0       	breq	.+2      	; 0x22e <saveCode+0x2a>
     22c:	c7 c0       	rjmp	.+398    	; 0x3bc <saveCode+0x1b8>
	{
		case NEC:
			eeprom_update_byte((uint8_t*)(offset*KEY_FIELD_SIZE+2), (uint8_t)((dec_results->value&0xFF000000)>>24));
     22e:	8c 81       	ldd	r24, Y+4	; 0x04
     230:	9d 81       	ldd	r25, Y+5	; 0x05
     232:	ae 81       	ldd	r26, Y+6	; 0x06
     234:	bf 81       	ldd	r27, Y+7	; 0x07
     236:	6b 2f       	mov	r22, r27
     238:	77 27       	eor	r23, r23
     23a:	88 27       	eor	r24, r24
     23c:	99 27       	eor	r25, r25
     23e:	2d 2d       	mov	r18, r13
     240:	30 e0       	ldi	r19, 0x00	; 0
     242:	79 01       	movw	r14, r18
     244:	ee 0c       	add	r14, r14
     246:	ff 1c       	adc	r15, r15
     248:	ee 0c       	add	r14, r14
     24a:	ff 1c       	adc	r15, r15
     24c:	87 01       	movw	r16, r14
     24e:	02 0f       	add	r16, r18
     250:	13 1f       	adc	r17, r19
     252:	c8 01       	movw	r24, r16
     254:	02 96       	adiw	r24, 0x02	; 2
     256:	0e 94 e5 19 	call	0x33ca	; 0x33ca <eeprom_update_byte>
			eeprom_update_byte((uint8_t*)(offset*KEY_FIELD_SIZE+3), (uint8_t)((dec_results->value&0xFF00)>>8));
     25a:	6d 81       	ldd	r22, Y+5	; 0x05
     25c:	c8 01       	movw	r24, r16
     25e:	03 96       	adiw	r24, 0x03	; 3
     260:	0e 94 e5 19 	call	0x33ca	; 0x33ca <eeprom_update_byte>
			break;
     264:	9f c0       	rjmp	.+318    	; 0x3a4 <saveCode+0x1a0>
		case RC5:
			eeprom_update_byte((uint8_t*)(offset*KEY_FIELD_SIZE+2), (uint8_t)((dec_results->value&0x3C0)>>6));
     266:	8c 81       	ldd	r24, Y+4	; 0x04
     268:	9d 81       	ldd	r25, Y+5	; 0x05
     26a:	ae 81       	ldd	r26, Y+6	; 0x06
     26c:	bf 81       	ldd	r27, Y+7	; 0x07
     26e:	80 7c       	andi	r24, 0xC0	; 192
     270:	93 70       	andi	r25, 0x03	; 3
     272:	aa 27       	eor	r26, r26
     274:	bb 27       	eor	r27, r27
     276:	bc 01       	movw	r22, r24
     278:	cd 01       	movw	r24, r26
     27a:	68 94       	set
     27c:	15 f8       	bld	r1, 5
     27e:	96 95       	lsr	r25
     280:	87 95       	ror	r24
     282:	77 95       	ror	r23
     284:	67 95       	ror	r22
     286:	16 94       	lsr	r1
     288:	d1 f7       	brne	.-12     	; 0x27e <saveCode+0x7a>
     28a:	2d 2d       	mov	r18, r13
     28c:	30 e0       	ldi	r19, 0x00	; 0
     28e:	79 01       	movw	r14, r18
     290:	ee 0c       	add	r14, r14
     292:	ff 1c       	adc	r15, r15
     294:	ee 0c       	add	r14, r14
     296:	ff 1c       	adc	r15, r15
     298:	87 01       	movw	r16, r14
     29a:	02 0f       	add	r16, r18
     29c:	13 1f       	adc	r17, r19
     29e:	c8 01       	movw	r24, r16
     2a0:	02 96       	adiw	r24, 0x02	; 2
     2a2:	0e 94 e5 19 	call	0x33ca	; 0x33ca <eeprom_update_byte>
			eeprom_update_byte((uint8_t*)(offset*KEY_FIELD_SIZE+3), (uint8_t)(dec_results->value&0x3F));
     2a6:	6c 81       	ldd	r22, Y+4	; 0x04
     2a8:	6f 73       	andi	r22, 0x3F	; 63
     2aa:	c8 01       	movw	r24, r16
     2ac:	03 96       	adiw	r24, 0x03	; 3
     2ae:	0e 94 e5 19 	call	0x33ca	; 0x33ca <eeprom_update_byte>
			break;
     2b2:	78 c0       	rjmp	.+240    	; 0x3a4 <saveCode+0x1a0>
		case SONY:
			eeprom_update_byte((uint8_t*)(offset*KEY_FIELD_SIZE+1), (uint8_t)(dec_results->bits));
     2b4:	68 85       	ldd	r22, Y+8	; 0x08
     2b6:	8d 2d       	mov	r24, r13
     2b8:	90 e0       	ldi	r25, 0x00	; 0
     2ba:	7c 01       	movw	r14, r24
     2bc:	ee 0c       	add	r14, r14
     2be:	ff 1c       	adc	r15, r15
     2c0:	ee 0c       	add	r14, r14
     2c2:	ff 1c       	adc	r15, r15
     2c4:	87 01       	movw	r16, r14
     2c6:	08 0f       	add	r16, r24
     2c8:	19 1f       	adc	r17, r25
     2ca:	c8 01       	movw	r24, r16
     2cc:	01 96       	adiw	r24, 0x01	; 1
     2ce:	0e 94 e5 19 	call	0x33ca	; 0x33ca <eeprom_update_byte>
			if(dec_results->bits == 12)
     2d2:	88 85       	ldd	r24, Y+8	; 0x08
     2d4:	99 85       	ldd	r25, Y+9	; 0x09
     2d6:	8c 30       	cpi	r24, 0x0C	; 12
     2d8:	91 05       	cpc	r25, r1
     2da:	e9 f4       	brne	.+58     	; 0x316 <saveCode+0x112>
			{	
				eeprom_update_byte((uint8_t*)(offset*KEY_FIELD_SIZE+2), (uint8_t)(dec_results->value&0x1F));
     2dc:	6c 81       	ldd	r22, Y+4	; 0x04
     2de:	6f 71       	andi	r22, 0x1F	; 31
     2e0:	c8 01       	movw	r24, r16
     2e2:	02 96       	adiw	r24, 0x02	; 2
     2e4:	0e 94 e5 19 	call	0x33ca	; 0x33ca <eeprom_update_byte>
				eeprom_update_byte((uint8_t*)(offset*KEY_FIELD_SIZE+3), (uint8_t)((dec_results->value&0xFE0)>>5));
     2e8:	8c 81       	ldd	r24, Y+4	; 0x04
     2ea:	9d 81       	ldd	r25, Y+5	; 0x05
     2ec:	ae 81       	ldd	r26, Y+6	; 0x06
     2ee:	bf 81       	ldd	r27, Y+7	; 0x07
     2f0:	80 7e       	andi	r24, 0xE0	; 224
     2f2:	9f 70       	andi	r25, 0x0F	; 15
     2f4:	aa 27       	eor	r26, r26
     2f6:	bb 27       	eor	r27, r27
     2f8:	bc 01       	movw	r22, r24
     2fa:	cd 01       	movw	r24, r26
     2fc:	68 94       	set
     2fe:	14 f8       	bld	r1, 4
     300:	96 95       	lsr	r25
     302:	87 95       	ror	r24
     304:	77 95       	ror	r23
     306:	67 95       	ror	r22
     308:	16 94       	lsr	r1
     30a:	d1 f7       	brne	.-12     	; 0x300 <saveCode+0xfc>
     30c:	c8 01       	movw	r24, r16
     30e:	03 96       	adiw	r24, 0x03	; 3
     310:	0e 94 e5 19 	call	0x33ca	; 0x33ca <eeprom_update_byte>
     314:	47 c0       	rjmp	.+142    	; 0x3a4 <saveCode+0x1a0>
			}
			else if(dec_results->bits == 15)
     316:	8f 30       	cpi	r24, 0x0F	; 15
     318:	91 05       	cpc	r25, r1
     31a:	b1 f4       	brne	.+44     	; 0x348 <saveCode+0x144>
			{
				eeprom_update_byte((uint8_t*)(offset*KEY_FIELD_SIZE+2), (uint8_t)(dec_results->value&0xFF));
     31c:	6c 81       	ldd	r22, Y+4	; 0x04
     31e:	c8 01       	movw	r24, r16
     320:	02 96       	adiw	r24, 0x02	; 2
     322:	0e 94 e5 19 	call	0x33ca	; 0x33ca <eeprom_update_byte>
				eeprom_update_byte((uint8_t*)(offset*KEY_FIELD_SIZE+3), (uint8_t)((dec_results->value&0x7F00)>>8));
     326:	8c 81       	ldd	r24, Y+4	; 0x04
     328:	9d 81       	ldd	r25, Y+5	; 0x05
     32a:	ae 81       	ldd	r26, Y+6	; 0x06
     32c:	bf 81       	ldd	r27, Y+7	; 0x07
     32e:	88 27       	eor	r24, r24
     330:	9f 77       	andi	r25, 0x7F	; 127
     332:	aa 27       	eor	r26, r26
     334:	bb 27       	eor	r27, r27
     336:	69 2f       	mov	r22, r25
     338:	7a 2f       	mov	r23, r26
     33a:	8b 2f       	mov	r24, r27
     33c:	99 27       	eor	r25, r25
     33e:	c8 01       	movw	r24, r16
     340:	03 96       	adiw	r24, 0x03	; 3
     342:	0e 94 e5 19 	call	0x33ca	; 0x33ca <eeprom_update_byte>
     346:	2e c0       	rjmp	.+92     	; 0x3a4 <saveCode+0x1a0>
			}
			else if(dec_results->bits == 20)
     348:	44 97       	sbiw	r24, 0x14	; 20
     34a:	61 f5       	brne	.+88     	; 0x3a4 <saveCode+0x1a0>
			{
				eeprom_update_byte((uint8_t*)(offset*KEY_FIELD_SIZE+2), (uint8_t)((dec_results->value&0x1F00)>>8));
     34c:	8c 81       	ldd	r24, Y+4	; 0x04
     34e:	9d 81       	ldd	r25, Y+5	; 0x05
     350:	ae 81       	ldd	r26, Y+6	; 0x06
     352:	bf 81       	ldd	r27, Y+7	; 0x07
     354:	88 27       	eor	r24, r24
     356:	9f 71       	andi	r25, 0x1F	; 31
     358:	aa 27       	eor	r26, r26
     35a:	bb 27       	eor	r27, r27
     35c:	69 2f       	mov	r22, r25
     35e:	7a 2f       	mov	r23, r26
     360:	8b 2f       	mov	r24, r27
     362:	99 27       	eor	r25, r25
     364:	c8 01       	movw	r24, r16
     366:	02 96       	adiw	r24, 0x02	; 2
     368:	0e 94 e5 19 	call	0x33ca	; 0x33ca <eeprom_update_byte>
				eeprom_update_byte((uint8_t*)(offset*KEY_FIELD_SIZE+3), (uint8_t)((dec_results->value&0xFE000)>>13));
     36c:	8c 81       	ldd	r24, Y+4	; 0x04
     36e:	9d 81       	ldd	r25, Y+5	; 0x05
     370:	ae 81       	ldd	r26, Y+6	; 0x06
     372:	bf 81       	ldd	r27, Y+7	; 0x07
     374:	88 27       	eor	r24, r24
     376:	90 7e       	andi	r25, 0xE0	; 224
     378:	af 70       	andi	r26, 0x0F	; 15
     37a:	bb 27       	eor	r27, r27
     37c:	bc 01       	movw	r22, r24
     37e:	cd 01       	movw	r24, r26
     380:	05 2e       	mov	r0, r21
     382:	5d e0       	ldi	r21, 0x0D	; 13
     384:	96 95       	lsr	r25
     386:	87 95       	ror	r24
     388:	77 95       	ror	r23
     38a:	67 95       	ror	r22
     38c:	5a 95       	dec	r21
     38e:	d1 f7       	brne	.-12     	; 0x384 <saveCode+0x180>
     390:	50 2d       	mov	r21, r0
     392:	c8 01       	movw	r24, r16
     394:	03 96       	adiw	r24, 0x03	; 3
     396:	0e 94 e5 19 	call	0x33ca	; 0x33ca <eeprom_update_byte>
				eeprom_update_byte((uint8_t*)(offset*KEY_FIELD_SIZE+4), (uint8_t)(dec_results->value&0xFF));
     39a:	6c 81       	ldd	r22, Y+4	; 0x04
     39c:	c8 01       	movw	r24, r16
     39e:	04 96       	adiw	r24, 0x04	; 4
     3a0:	0e 94 e5 19 	call	0x33ca	; 0x33ca <eeprom_update_byte>
			}
			break;
		default:
			return;
	}
	eeprom_update_byte((uint8_t*)(offset*KEY_FIELD_SIZE), (uint8_t)(dec_results->decode_type));
     3a4:	68 81       	ld	r22, Y
     3a6:	8d 2d       	mov	r24, r13
     3a8:	90 e0       	ldi	r25, 0x00	; 0
     3aa:	9c 01       	movw	r18, r24
     3ac:	22 0f       	add	r18, r18
     3ae:	33 1f       	adc	r19, r19
     3b0:	22 0f       	add	r18, r18
     3b2:	33 1f       	adc	r19, r19
     3b4:	82 0f       	add	r24, r18
     3b6:	93 1f       	adc	r25, r19
     3b8:	0e 94 e5 19 	call	0x33ca	; 0x33ca <eeprom_update_byte>
}
     3bc:	df 91       	pop	r29
     3be:	cf 91       	pop	r28
     3c0:	1f 91       	pop	r17
     3c2:	0f 91       	pop	r16
     3c4:	ff 90       	pop	r15
     3c6:	ef 90       	pop	r14
     3c8:	df 90       	pop	r13
     3ca:	08 95       	ret

000003cc <getCode>:
void getCode(decode_results *dec_results, uint8_t offset)
{
     3cc:	8f 92       	push	r8
     3ce:	9f 92       	push	r9
     3d0:	af 92       	push	r10
     3d2:	bf 92       	push	r11
     3d4:	cf 92       	push	r12
     3d6:	df 92       	push	r13
     3d8:	ef 92       	push	r14
     3da:	ff 92       	push	r15
     3dc:	0f 93       	push	r16
     3de:	1f 93       	push	r17
     3e0:	cf 93       	push	r28
     3e2:	df 93       	push	r29
     3e4:	7c 01       	movw	r14, r24
	dec_results->decode_type=eeprom_read_byte((uint8_t*)(offset*KEY_FIELD_SIZE));
     3e6:	70 e0       	ldi	r23, 0x00	; 0
     3e8:	eb 01       	movw	r28, r22
     3ea:	cc 0f       	add	r28, r28
     3ec:	dd 1f       	adc	r29, r29
     3ee:	cc 0f       	add	r28, r28
     3f0:	dd 1f       	adc	r29, r29
     3f2:	c6 0f       	add	r28, r22
     3f4:	d7 1f       	adc	r29, r23
     3f6:	ce 01       	movw	r24, r28
     3f8:	0e 94 dd 19 	call	0x33ba	; 0x33ba <eeprom_read_byte>
     3fc:	08 2f       	mov	r16, r24
     3fe:	10 e0       	ldi	r17, 0x00	; 0
     400:	f7 01       	movw	r30, r14
     402:	11 83       	std	Z+1, r17	; 0x01
     404:	00 83       	st	Z, r16
	uint8_t address = eeprom_read_byte((uint8_t*)(offset*KEY_FIELD_SIZE+2));
     406:	ce 01       	movw	r24, r28
     408:	02 96       	adiw	r24, 0x02	; 2
     40a:	0e 94 dd 19 	call	0x33ba	; 0x33ba <eeprom_read_byte>
     40e:	c8 2e       	mov	r12, r24
	uint8_t command = eeprom_read_byte((uint8_t*)(offset*KEY_FIELD_SIZE+3));
     410:	ce 01       	movw	r24, r28
     412:	03 96       	adiw	r24, 0x03	; 3
     414:	0e 94 dd 19 	call	0x33ba	; 0x33ba <eeprom_read_byte>
     418:	d8 2e       	mov	r13, r24
	uint8_t extend;
	
	switch(dec_results->decode_type)
     41a:	02 30       	cpi	r16, 0x02	; 2
     41c:	11 05       	cpc	r17, r1
     41e:	09 f4       	brne	.+2      	; 0x422 <__LOCK_REGION_LENGTH__+0x22>
     420:	52 c0       	rjmp	.+164    	; 0x4c6 <__LOCK_REGION_LENGTH__+0xc6>
     422:	03 30       	cpi	r16, 0x03	; 3
     424:	11 05       	cpc	r17, r1
     426:	e9 f1       	breq	.+122    	; 0x4a2 <__LOCK_REGION_LENGTH__+0xa2>
     428:	01 30       	cpi	r16, 0x01	; 1
     42a:	11 05       	cpc	r17, r1
     42c:	09 f0       	breq	.+2      	; 0x430 <__LOCK_REGION_LENGTH__+0x30>
     42e:	9c c0       	rjmp	.+312    	; 0x568 <__LOCK_REGION_LENGTH__+0x168>
	{
		case NEC:
			dec_results->bits = NEC_BITS;			
     430:	80 e2       	ldi	r24, 0x20	; 32
     432:	90 e0       	ldi	r25, 0x00	; 0
     434:	f7 01       	movw	r30, r14
     436:	91 87       	std	Z+9, r25	; 0x09
     438:	80 87       	std	Z+8, r24	; 0x08
			dec_results->value = ((uint32_t)(address))<<24 | ((uint32_t)(~address&0xFF))<<16 | ((uint16_t)(command&0xFF))<<8 | ((~command)&0xFF);
     43a:	4c 2d       	mov	r20, r12
     43c:	50 e0       	ldi	r21, 0x00	; 0
     43e:	60 e0       	ldi	r22, 0x00	; 0
     440:	70 e0       	ldi	r23, 0x00	; 0
     442:	b4 2f       	mov	r27, r20
     444:	aa 27       	eor	r26, r26
     446:	99 27       	eor	r25, r25
     448:	88 27       	eor	r24, r24
     44a:	2c 2d       	mov	r18, r12
     44c:	30 e0       	ldi	r19, 0x00	; 0
     44e:	20 95       	com	r18
     450:	30 95       	com	r19
     452:	a9 01       	movw	r20, r18
     454:	55 27       	eor	r21, r21
     456:	05 2e       	mov	r0, r21
     458:	00 0c       	add	r0, r0
     45a:	66 0b       	sbc	r22, r22
     45c:	77 0b       	sbc	r23, r23
     45e:	ba 01       	movw	r22, r20
     460:	55 27       	eor	r21, r21
     462:	44 27       	eor	r20, r20
     464:	48 2b       	or	r20, r24
     466:	59 2b       	or	r21, r25
     468:	6a 2b       	or	r22, r26
     46a:	7b 2b       	or	r23, r27
     46c:	2d 2d       	mov	r18, r13
     46e:	30 e0       	ldi	r19, 0x00	; 0
     470:	92 2f       	mov	r25, r18
     472:	88 27       	eor	r24, r24
     474:	a0 e0       	ldi	r26, 0x00	; 0
     476:	b0 e0       	ldi	r27, 0x00	; 0
     478:	48 2b       	or	r20, r24
     47a:	59 2b       	or	r21, r25
     47c:	6a 2b       	or	r22, r26
     47e:	7b 2b       	or	r23, r27
     480:	c9 01       	movw	r24, r18
     482:	80 95       	com	r24
     484:	90 95       	com	r25
     486:	99 27       	eor	r25, r25
     488:	09 2e       	mov	r0, r25
     48a:	00 0c       	add	r0, r0
     48c:	aa 0b       	sbc	r26, r26
     48e:	bb 0b       	sbc	r27, r27
     490:	84 2b       	or	r24, r20
     492:	95 2b       	or	r25, r21
     494:	a6 2b       	or	r26, r22
     496:	b7 2b       	or	r27, r23
     498:	84 83       	std	Z+4, r24	; 0x04
     49a:	95 83       	std	Z+5, r25	; 0x05
     49c:	a6 83       	std	Z+6, r26	; 0x06
     49e:	b7 83       	std	Z+7, r27	; 0x07
			break;
     4a0:	68 c0       	rjmp	.+208    	; 0x572 <__LOCK_REGION_LENGTH__+0x172>
		case RC5:
			dec_results->bits = MIN_RC5_SAMPLES;
     4a2:	8b e0       	ldi	r24, 0x0B	; 11
     4a4:	90 e0       	ldi	r25, 0x00	; 0
     4a6:	f7 01       	movw	r30, r14
     4a8:	91 87       	std	Z+9, r25	; 0x09
     4aa:	80 87       	std	Z+8, r24	; 0x08
			dec_results->value = ((uint16_t)(address))<<6 | command;
     4ac:	f0 e4       	ldi	r31, 0x40	; 64
     4ae:	cf 9e       	mul	r12, r31
     4b0:	c0 01       	movw	r24, r0
     4b2:	11 24       	eor	r1, r1
     4b4:	8d 29       	or	r24, r13
     4b6:	a0 e0       	ldi	r26, 0x00	; 0
     4b8:	b0 e0       	ldi	r27, 0x00	; 0
     4ba:	f7 01       	movw	r30, r14
     4bc:	84 83       	std	Z+4, r24	; 0x04
     4be:	95 83       	std	Z+5, r25	; 0x05
     4c0:	a6 83       	std	Z+6, r26	; 0x06
     4c2:	b7 83       	std	Z+7, r27	; 0x07
			break;
     4c4:	56 c0       	rjmp	.+172    	; 0x572 <__LOCK_REGION_LENGTH__+0x172>
		case SONY:
			dec_results->bits=eeprom_read_byte((uint8_t*)(offset*KEY_FIELD_SIZE+1));
     4c6:	ce 01       	movw	r24, r28
     4c8:	01 96       	adiw	r24, 0x01	; 1
     4ca:	0e 94 dd 19 	call	0x33ba	; 0x33ba <eeprom_read_byte>
     4ce:	08 2f       	mov	r16, r24
     4d0:	10 e0       	ldi	r17, 0x00	; 0
     4d2:	f7 01       	movw	r30, r14
     4d4:	11 87       	std	Z+9, r17	; 0x09
     4d6:	00 87       	std	Z+8, r16	; 0x08
			extend=eeprom_read_byte((uint8_t*)(offset*KEY_FIELD_SIZE+4));
     4d8:	ce 01       	movw	r24, r28
     4da:	04 96       	adiw	r24, 0x04	; 4
     4dc:	0e 94 dd 19 	call	0x33ba	; 0x33ba <eeprom_read_byte>
			
			if(dec_results->bits == 12)
     4e0:	0c 30       	cpi	r16, 0x0C	; 12
     4e2:	11 05       	cpc	r17, r1
     4e4:	69 f4       	brne	.+26     	; 0x500 <__LOCK_REGION_LENGTH__+0x100>
				dec_results->value = ((uint16_t)(command))<<5 | address;
     4e6:	f0 e2       	ldi	r31, 0x20	; 32
     4e8:	df 9e       	mul	r13, r31
     4ea:	c0 01       	movw	r24, r0
     4ec:	11 24       	eor	r1, r1
     4ee:	8c 29       	or	r24, r12
     4f0:	a0 e0       	ldi	r26, 0x00	; 0
     4f2:	b0 e0       	ldi	r27, 0x00	; 0
     4f4:	f7 01       	movw	r30, r14
     4f6:	84 83       	std	Z+4, r24	; 0x04
     4f8:	95 83       	std	Z+5, r25	; 0x05
     4fa:	a6 83       	std	Z+6, r26	; 0x06
     4fc:	b7 83       	std	Z+7, r27	; 0x07
     4fe:	39 c0       	rjmp	.+114    	; 0x572 <__LOCK_REGION_LENGTH__+0x172>
			else if(dec_results->bits == 15)
     500:	0f 30       	cpi	r16, 0x0F	; 15
     502:	11 05       	cpc	r17, r1
     504:	69 f4       	brne	.+26     	; 0x520 <__LOCK_REGION_LENGTH__+0x120>
				dec_results->value = ((uint16_t)(command))<<8 | address;
     506:	8d 2d       	mov	r24, r13
     508:	90 e0       	ldi	r25, 0x00	; 0
     50a:	98 2f       	mov	r25, r24
     50c:	88 27       	eor	r24, r24
     50e:	8c 29       	or	r24, r12
     510:	a0 e0       	ldi	r26, 0x00	; 0
     512:	b0 e0       	ldi	r27, 0x00	; 0
     514:	f7 01       	movw	r30, r14
     516:	84 83       	std	Z+4, r24	; 0x04
     518:	95 83       	std	Z+5, r25	; 0x05
     51a:	a6 83       	std	Z+6, r26	; 0x06
     51c:	b7 83       	std	Z+7, r27	; 0x07
     51e:	29 c0       	rjmp	.+82     	; 0x572 <__LOCK_REGION_LENGTH__+0x172>
			else if(dec_results->bits == 20)
     520:	04 31       	cpi	r16, 0x14	; 20
     522:	11 05       	cpc	r17, r1
     524:	31 f5       	brne	.+76     	; 0x572 <__LOCK_REGION_LENGTH__+0x172>
				dec_results->value = ((uint32_t)(command))<<13 | ((uint16_t)address)<<8 | extend;
     526:	4d 2d       	mov	r20, r13
     528:	50 e0       	ldi	r21, 0x00	; 0
     52a:	60 e0       	ldi	r22, 0x00	; 0
     52c:	70 e0       	ldi	r23, 0x00	; 0
     52e:	4a 01       	movw	r8, r20
     530:	5b 01       	movw	r10, r22
     532:	07 2e       	mov	r0, r23
     534:	7d e0       	ldi	r23, 0x0D	; 13
     536:	88 0c       	add	r8, r8
     538:	99 1c       	adc	r9, r9
     53a:	aa 1c       	adc	r10, r10
     53c:	bb 1c       	adc	r11, r11
     53e:	7a 95       	dec	r23
     540:	d1 f7       	brne	.-12     	; 0x536 <__LOCK_REGION_LENGTH__+0x136>
     542:	70 2d       	mov	r23, r0
     544:	2c 2d       	mov	r18, r12
     546:	30 e0       	ldi	r19, 0x00	; 0
     548:	32 2f       	mov	r19, r18
     54a:	22 27       	eor	r18, r18
     54c:	a9 01       	movw	r20, r18
     54e:	60 e0       	ldi	r22, 0x00	; 0
     550:	70 e0       	ldi	r23, 0x00	; 0
     552:	48 29       	or	r20, r8
     554:	59 29       	or	r21, r9
     556:	6a 29       	or	r22, r10
     558:	7b 29       	or	r23, r11
     55a:	48 2b       	or	r20, r24
     55c:	f7 01       	movw	r30, r14
     55e:	44 83       	std	Z+4, r20	; 0x04
     560:	55 83       	std	Z+5, r21	; 0x05
     562:	66 83       	std	Z+6, r22	; 0x06
     564:	77 83       	std	Z+7, r23	; 0x07
     566:	05 c0       	rjmp	.+10     	; 0x572 <__LOCK_REGION_LENGTH__+0x172>
			break;
		default:
			dec_results->decode_type=UNKNOWN;
     568:	8f ef       	ldi	r24, 0xFF	; 255
     56a:	9f ef       	ldi	r25, 0xFF	; 255
     56c:	f7 01       	movw	r30, r14
     56e:	91 83       	std	Z+1, r25	; 0x01
     570:	80 83       	st	Z, r24
			break;
	}
     572:	df 91       	pop	r29
     574:	cf 91       	pop	r28
     576:	1f 91       	pop	r17
     578:	0f 91       	pop	r16
     57a:	ff 90       	pop	r15
     57c:	ef 90       	pop	r14
     57e:	df 90       	pop	r13
     580:	cf 90       	pop	r12
     582:	bf 90       	pop	r11
     584:	af 90       	pop	r10
     586:	9f 90       	pop	r9
     588:	8f 90       	pop	r8
     58a:	08 95       	ret

0000058c <clearKeys>:
	PrevKeyCode=keyCode;
	
}
void clearKeys()
{
	PressedKeyCode=KEY_NONE;
     58c:	10 92 b0 01 	sts	0x01B0, r1	; 0x8001b0 <PressedKeyCode>
	ReleasedKeyCode=KEY_NONE;
     590:	10 92 af 01 	sts	0x01AF, r1	; 0x8001af <ReleasedKeyCode>
     594:	08 95       	ret

00000596 <setKeyboardPhase1>:
}

void setKeyboardPhase1()
{
	keyboardPORTx &= ~(1<<X1 | 1<<X2 | 1<<X3); //désactive les sorties des colonnes
     596:	85 b1       	in	r24, 0x05	; 5
     598:	88 7f       	andi	r24, 0xF8	; 248
     59a:	85 b9       	out	0x05, r24	; 5
	keyboardDDRx &= ~(1<<X1 | 1<<X2 | 1<<X3); //bascule les colonnes en entrées
     59c:	84 b1       	in	r24, 0x04	; 4
     59e:	88 7f       	andi	r24, 0xF8	; 248
     5a0:	84 b9       	out	0x04, r24	; 4
	keyboardDDRx |= (1<<Y1 | 1<<Y2 | 1<<Y3 | 1<<Y4); //bascule les lignes en sorties
     5a2:	84 b1       	in	r24, 0x04	; 4
     5a4:	88 67       	ori	r24, 0x78	; 120
     5a6:	84 b9       	out	0x04, r24	; 4
	keyboardPORTx |= (1<<Y1 | 1<<Y2 | 1<<Y3 | 1<<Y4); //active les sorties des lignes
     5a8:	85 b1       	in	r24, 0x05	; 5
     5aa:	88 67       	ori	r24, 0x78	; 120
     5ac:	85 b9       	out	0x05, r24	; 5
     5ae:	08 95       	ret

000005b0 <setKeyboardPhase2>:
}
void setKeyboardPhase2()
{
	keyboardPORTx &= ~(1<<Y1 | 1<<Y2 | 1<<Y3 | 1<<Y4); //désactive les sorties des lignes
     5b0:	85 b1       	in	r24, 0x05	; 5
     5b2:	87 78       	andi	r24, 0x87	; 135
     5b4:	85 b9       	out	0x05, r24	; 5
	keyboardDDRx &= ~(1<<Y1 | 1<<Y2 | 1<<Y3 | 1<<Y4); //bascule les lignes en entrées
     5b6:	84 b1       	in	r24, 0x04	; 4
     5b8:	87 78       	andi	r24, 0x87	; 135
     5ba:	84 b9       	out	0x04, r24	; 4
	keyboardDDRx |= (1<<X1 | 1<<X2 | 1<<X3); //bascule les colonnes en sorties
     5bc:	84 b1       	in	r24, 0x04	; 4
     5be:	87 60       	ori	r24, 0x07	; 7
     5c0:	84 b9       	out	0x04, r24	; 4
	keyboardPORTx |= (1<<X1 | 1<<X2 | 1<<X3); //active les sorties des colonnes
     5c2:	85 b1       	in	r24, 0x05	; 5
     5c4:	87 60       	ori	r24, 0x07	; 7
     5c6:	85 b9       	out	0x05, r24	; 5
     5c8:	08 95       	ret

000005ca <readKeyboardPhase1>:
}
uint8_t readKeyboardPhase1()
{
	return keyboardPINx & (1<<X1 | 1<<X2 | 1<<X3);
     5ca:	83 b1       	in	r24, 0x03	; 3
}
     5cc:	87 70       	andi	r24, 0x07	; 7
     5ce:	08 95       	ret

000005d0 <readKeyboardPhase2>:
uint8_t readKeyboardPhase2()
{
	return keyboardPINx & (1<<Y1 | 1<<Y2 | 1<<Y3 | 1<<Y4);
     5d0:	83 b1       	in	r24, 0x03	; 3
     5d2:	88 77       	andi	r24, 0x78	; 120
     5d4:	08 95       	ret

000005d6 <processKeyboard>:

uint8_t PressedKeyCode=KEY_NONE;
uint8_t ReleasedKeyCode=KEY_NONE;

void processKeyboard()
{
     5d6:	cf 93       	push	r28
	static uint8_t PrevKeyCode = KEY_NONE;
	uint8_t colCode, lineCode, keyCode;
	
	setKeyboardPhase1();
     5d8:	de df       	rcall	.-68     	; 0x596 <setKeyboardPhase1>
	colCode=readKeyboardPhase1();
     5da:	f7 df       	rcall	.-18     	; 0x5ca <readKeyboardPhase1>
     5dc:	c8 2f       	mov	r28, r24
	setKeyboardPhase2();
     5de:	e8 df       	rcall	.-48     	; 0x5b0 <setKeyboardPhase2>
     5e0:	f7 df       	rcall	.-18     	; 0x5d0 <readKeyboardPhase2>
	lineCode=readKeyboardPhase2();
     5e2:	8c 2b       	or	r24, r28
     5e4:	48 2f       	mov	r20, r24
	
	keyCode = colCode | lineCode;
     5e6:	50 e0       	ldi	r21, 0x00	; 0
	
	switch(keyCode)
     5e8:	fa 01       	movw	r30, r20
     5ea:	39 97       	sbiw	r30, 0x09	; 9
     5ec:	ec 33       	cpi	r30, 0x3C	; 60
     5ee:	f1 05       	cpc	r31, r1
     5f0:	58 f4       	brcc	.+22     	; 0x608 <processKeyboard+0x32>
     5f2:	ec 5c       	subi	r30, 0xCC	; 204
     5f4:	ff 4f       	sbci	r31, 0xFF	; 255
     5f6:	0c 94 1d 17 	jmp	0x2e3a	; 0x2e3a <__tablejump2__>
     5fa:	90 91 ae 01 	lds	r25, 0x01AE	; 0x8001ae <__data_end>
		case KEY_8:
		case KEY_9:
		case KEY_ASTERISK:
		case KEY_0:
		case KEY_HASH:
			if(PrevKeyCode!=keyCode)
     5fe:	89 17       	cp	r24, r25
     600:	61 f0       	breq	.+24     	; 0x61a <processKeyboard+0x44>
     602:	80 93 b0 01 	sts	0x01B0, r24	; 0x8001b0 <PressedKeyCode>
				PressedKeyCode=keyCode;
     606:	09 c0       	rjmp	.+18     	; 0x61a <processKeyboard+0x44>
     608:	80 91 ae 01 	lds	r24, 0x01AE	; 0x8001ae <__data_end>
			break;
		default:
			keyCode=KEY_NONE;
			if(PrevKeyCode!=keyCode)
     60c:	88 23       	and	r24, r24
     60e:	21 f0       	breq	.+8      	; 0x618 <processKeyboard+0x42>
     610:	80 93 af 01 	sts	0x01AF, r24	; 0x8001af <ReleasedKeyCode>
				ReleasedKeyCode=PrevKeyCode;
     614:	80 e0       	ldi	r24, 0x00	; 0
     616:	01 c0       	rjmp	.+2      	; 0x61a <processKeyboard+0x44>
		case KEY_HASH:
			if(PrevKeyCode!=keyCode)
				PressedKeyCode=keyCode;
			break;
		default:
			keyCode=KEY_NONE;
     618:	80 e0       	ldi	r24, 0x00	; 0
     61a:	20 91 b0 01 	lds	r18, 0x01B0	; 0x8001b0 <PressedKeyCode>
			if(PrevKeyCode!=keyCode)
				ReleasedKeyCode=PrevKeyCode;
	}
	if(PressedKeyCode==ReleasedKeyCode)
     61e:	90 91 af 01 	lds	r25, 0x01AF	; 0x8001af <ReleasedKeyCode>
     622:	29 13       	cpse	r18, r25
     624:	02 c0       	rjmp	.+4      	; 0x62a <processKeyboard+0x54>
     626:	10 92 b0 01 	sts	0x01B0, r1	; 0x8001b0 <PressedKeyCode>
		PressedKeyCode=0;
     62a:	80 93 ae 01 	sts	0x01AE, r24	; 0x8001ae <__data_end>
		
	PrevKeyCode=keyCode;
     62e:	cf 91       	pop	r28
     630:	08 95       	ret

00000632 <updateMain>:
	
}
     632:	cf 93       	push	r28
     634:	df 93       	push	r29
	
	char *playStr = "Play";
	char *spyRecStr = "Spy & Record";
	char *customStr = "Custom";
	
	Refresh|=updateIndex(&index, NB_ITEM_MAINMENU);
     636:	63 e0       	ldi	r22, 0x03	; 3
     638:	81 eb       	ldi	r24, 0xB1	; 177
     63a:	91 e0       	ldi	r25, 0x01	; 1
     63c:	23 d2       	rcall	.+1094   	; 0xa84 <updateIndex>
     63e:	90 91 c5 01 	lds	r25, 0x01C5	; 0x8001c5 <Refresh>
     642:	89 2b       	or	r24, r25
     644:	80 93 c5 01 	sts	0x01C5, r24	; 0x8001c5 <Refresh>
	
	if(ChangedScreen)
     648:	80 91 00 01 	lds	r24, 0x0100	; 0x800100 <ChangedScreen>
     64c:	88 23       	and	r24, r24
     64e:	19 f0       	breq	.+6      	; 0x656 <updateMain+0x24>
		Refresh=1;
     650:	81 e0       	ldi	r24, 0x01	; 1
     652:	80 93 c5 01 	sts	0x01C5, r24	; 0x8001c5 <Refresh>
		
	switch(index)
     656:	80 91 b1 01 	lds	r24, 0x01B1	; 0x8001b1 <index.2414>
     65a:	81 30       	cpi	r24, 0x01	; 1
     65c:	e9 f0       	breq	.+58     	; 0x698 <updateMain+0x66>
     65e:	18 f0       	brcs	.+6      	; 0x666 <updateMain+0x34>
     660:	82 30       	cpi	r24, 0x02	; 2
     662:	99 f1       	breq	.+102    	; 0x6ca <updateMain+0x98>
     664:	40 c0       	rjmp	.+128    	; 0x6e6 <updateMain+0xb4>
	{
		case 0:
			ScreenBuf[0][0] = '>';
     666:	c6 ec       	ldi	r28, 0xC6	; 198
     668:	d1 e0       	ldi	r29, 0x01	; 1
     66a:	9e e3       	ldi	r25, 0x3E	; 62
     66c:	98 83       	st	Y, r25
			strcpy(ScreenBuf[0]+1, playStr);
     66e:	95 e0       	ldi	r25, 0x05	; 5
     670:	e1 e0       	ldi	r30, 0x01	; 1
     672:	f1 e0       	ldi	r31, 0x01	; 1
     674:	a7 ec       	ldi	r26, 0xC7	; 199
     676:	b1 e0       	ldi	r27, 0x01	; 1
     678:	01 90       	ld	r0, Z+
     67a:	0d 92       	st	X+, r0
     67c:	9a 95       	dec	r25
     67e:	e1 f7       	brne	.-8      	; 0x678 <updateMain+0x46>
			
			ScreenBuf[1][0] = ' ';
     680:	90 e2       	ldi	r25, 0x20	; 32
     682:	99 8b       	std	Y+17, r25	; 0x11
			strcpy(ScreenBuf[1]+1, spyRecStr);
     684:	9d e0       	ldi	r25, 0x0D	; 13
     686:	e6 e0       	ldi	r30, 0x06	; 6
     688:	f1 e0       	ldi	r31, 0x01	; 1
     68a:	a8 ed       	ldi	r26, 0xD8	; 216
     68c:	b1 e0       	ldi	r27, 0x01	; 1
     68e:	01 90       	ld	r0, Z+
     690:	0d 92       	st	X+, r0
     692:	9a 95       	dec	r25
     694:	e1 f7       	brne	.-8      	; 0x68e <updateMain+0x5c>
			break;
     696:	27 c0       	rjmp	.+78     	; 0x6e6 <updateMain+0xb4>
		case 1:
			ScreenBuf[0][0] = ' ';
     698:	c6 ec       	ldi	r28, 0xC6	; 198
     69a:	d1 e0       	ldi	r29, 0x01	; 1
     69c:	90 e2       	ldi	r25, 0x20	; 32
     69e:	98 83       	st	Y, r25
			strcpy(ScreenBuf[0]+1, playStr);
     6a0:	95 e0       	ldi	r25, 0x05	; 5
     6a2:	e1 e0       	ldi	r30, 0x01	; 1
     6a4:	f1 e0       	ldi	r31, 0x01	; 1
     6a6:	a7 ec       	ldi	r26, 0xC7	; 199
     6a8:	b1 e0       	ldi	r27, 0x01	; 1
     6aa:	01 90       	ld	r0, Z+
     6ac:	0d 92       	st	X+, r0
     6ae:	9a 95       	dec	r25
     6b0:	e1 f7       	brne	.-8      	; 0x6aa <updateMain+0x78>
			
			ScreenBuf[1][0] = '>';
     6b2:	9e e3       	ldi	r25, 0x3E	; 62
     6b4:	99 8b       	std	Y+17, r25	; 0x11
			strcpy(ScreenBuf[1]+1, spyRecStr);
     6b6:	9d e0       	ldi	r25, 0x0D	; 13
     6b8:	e6 e0       	ldi	r30, 0x06	; 6
     6ba:	f1 e0       	ldi	r31, 0x01	; 1
     6bc:	a8 ed       	ldi	r26, 0xD8	; 216
     6be:	b1 e0       	ldi	r27, 0x01	; 1
     6c0:	01 90       	ld	r0, Z+
     6c2:	0d 92       	st	X+, r0
     6c4:	9a 95       	dec	r25
     6c6:	e1 f7       	brne	.-8      	; 0x6c0 <updateMain+0x8e>
			break;
     6c8:	0e c0       	rjmp	.+28     	; 0x6e6 <updateMain+0xb4>
		case 2:
			ScreenBuf[0][0] = '>';
     6ca:	c6 ec       	ldi	r28, 0xC6	; 198
     6cc:	d1 e0       	ldi	r29, 0x01	; 1
     6ce:	9e e3       	ldi	r25, 0x3E	; 62
     6d0:	98 83       	st	Y, r25
			strcpy(ScreenBuf[0]+1, customStr);
     6d2:	97 e0       	ldi	r25, 0x07	; 7
     6d4:	e3 e1       	ldi	r30, 0x13	; 19
     6d6:	f1 e0       	ldi	r31, 0x01	; 1
     6d8:	a7 ec       	ldi	r26, 0xC7	; 199
     6da:	b1 e0       	ldi	r27, 0x01	; 1
     6dc:	01 90       	ld	r0, Z+
     6de:	0d 92       	st	X+, r0
     6e0:	9a 95       	dec	r25
     6e2:	e1 f7       	brne	.-8      	; 0x6dc <updateMain+0xaa>
			
			ScreenBuf[1][0]='\0';
     6e4:	19 8a       	std	Y+17, r1	; 0x11
			break;
		default:
			break;
	}
	
	if(PressedKeyCode==KEY_5)
     6e6:	90 91 b0 01 	lds	r25, 0x01B0	; 0x8001b0 <PressedKeyCode>
     6ea:	92 31       	cpi	r25, 0x12	; 18
     6ec:	a9 f4       	brne	.+42     	; 0x718 <updateMain+0xe6>
	{
		switch(index)
     6ee:	88 23       	and	r24, r24
     6f0:	19 f0       	breq	.+6      	; 0x6f8 <updateMain+0xc6>
     6f2:	81 30       	cpi	r24, 0x01	; 1
     6f4:	41 f0       	breq	.+16     	; 0x706 <updateMain+0xd4>
     6f6:	0d c0       	rjmp	.+26     	; 0x712 <updateMain+0xe0>
		{
			case 0:
				updatePtr=updatePlay;
     6f8:	88 eb       	ldi	r24, 0xB8	; 184
     6fa:	93 e0       	ldi	r25, 0x03	; 3
     6fc:	90 93 ec 01 	sts	0x01EC, r25	; 0x8001ec <updatePtr+0x1>
     700:	80 93 eb 01 	sts	0x01EB, r24	; 0x8001eb <updatePtr>
				break;
     704:	06 c0       	rjmp	.+12     	; 0x712 <updateMain+0xe0>
			case 1:
				updatePtr=updateSpyRec;
     706:	88 e1       	ldi	r24, 0x18	; 24
     708:	95 e0       	ldi	r25, 0x05	; 5
     70a:	90 93 ec 01 	sts	0x01EC, r25	; 0x8001ec <updatePtr+0x1>
     70e:	80 93 eb 01 	sts	0x01EB, r24	; 0x8001eb <updatePtr>
				break;
			default:
				break;
		}
		ChangedScreen=1;
     712:	81 e0       	ldi	r24, 0x01	; 1
     714:	80 93 00 01 	sts	0x0100, r24	; 0x800100 <ChangedScreen>
	}
				
}
     718:	df 91       	pop	r29
     71a:	cf 91       	pop	r28
     71c:	08 95       	ret

0000071e <playCode>:
		displayProtocol(&dec_results);
	}
}

void playCode(decode_results *dec_results)
{
     71e:	cf 93       	push	r28
     720:	df 93       	push	r29
     722:	ec 01       	movw	r28, r24
	switch(dec_results->decode_type)
     724:	88 81       	ld	r24, Y
     726:	99 81       	ldd	r25, Y+1	; 0x01
     728:	82 30       	cpi	r24, 0x02	; 2
     72a:	91 05       	cpc	r25, r1
     72c:	b1 f0       	breq	.+44     	; 0x75a <playCode+0x3c>
     72e:	83 30       	cpi	r24, 0x03	; 3
     730:	91 05       	cpc	r25, r1
     732:	59 f0       	breq	.+22     	; 0x74a <playCode+0x2c>
     734:	01 97       	sbiw	r24, 0x01	; 1
     736:	c9 f4       	brne	.+50     	; 0x76a <playCode+0x4c>
	{
		case NEC:
			ir_sendNEC(dec_results->value, dec_results->bits);
     738:	48 85       	ldd	r20, Y+8	; 0x08
     73a:	59 85       	ldd	r21, Y+9	; 0x09
     73c:	6c 81       	ldd	r22, Y+4	; 0x04
     73e:	7d 81       	ldd	r23, Y+5	; 0x05
     740:	8e 81       	ldd	r24, Y+6	; 0x06
     742:	9f 81       	ldd	r25, Y+7	; 0x07
     744:	0e 94 f8 0f 	call	0x1ff0	; 0x1ff0 <ir_sendNEC>
			break;
     748:	10 c0       	rjmp	.+32     	; 0x76a <playCode+0x4c>
		case RC5:
			ir_sendRC5(dec_results->value, dec_results->bits);
     74a:	48 85       	ldd	r20, Y+8	; 0x08
     74c:	59 85       	ldd	r21, Y+9	; 0x09
     74e:	6c 81       	ldd	r22, Y+4	; 0x04
     750:	7d 81       	ldd	r23, Y+5	; 0x05
     752:	8e 81       	ldd	r24, Y+6	; 0x06
     754:	9f 81       	ldd	r25, Y+7	; 0x07
     756:	0e 94 8a 10 	call	0x2114	; 0x2114 <ir_sendRC5>
		case SONY:
			ir_sendSony(dec_results->value, dec_results->bits);
     75a:	48 85       	ldd	r20, Y+8	; 0x08
     75c:	59 85       	ldd	r21, Y+9	; 0x09
     75e:	6c 81       	ldd	r22, Y+4	; 0x04
     760:	7d 81       	ldd	r23, Y+5	; 0x05
     762:	8e 81       	ldd	r24, Y+6	; 0x06
     764:	9f 81       	ldd	r25, Y+7	; 0x07
     766:	0e 94 3f 10 	call	0x207e	; 0x207e <ir_sendSony>
			break;
		default:
			break;
	}
     76a:	df 91       	pop	r29
     76c:	cf 91       	pop	r28
     76e:	08 95       	ret

00000770 <updatePlay>:
#include "screens.h"

void playCode(decode_results *dec_results);

void updatePlay()
{
     770:	cf 93       	push	r28
     772:	df 93       	push	r29
     774:	cd b7       	in	r28, 0x3d	; 61
     776:	de b7       	in	r29, 0x3e	; 62
     778:	2e 97       	sbiw	r28, 0x0e	; 14
     77a:	0f b6       	in	r0, 0x3f	; 63
     77c:	f8 94       	cli
     77e:	de bf       	out	0x3e, r29	; 62
     780:	0f be       	out	0x3f, r0	; 63
     782:	cd bf       	out	0x3d, r28	; 61
	uint8_t playQuery=1;
	decode_results dec_results;
	if(ChangedScreen)
     784:	80 91 00 01 	lds	r24, 0x0100	; 0x800100 <ChangedScreen>
     788:	88 23       	and	r24, r24
     78a:	a9 f0       	breq	.+42     	; 0x7b6 <updatePlay+0x46>
	{
		sprintf(ScreenBuf[0], "Press 0-9 to");
     78c:	8d e0       	ldi	r24, 0x0D	; 13
     78e:	ea e1       	ldi	r30, 0x1A	; 26
     790:	f1 e0       	ldi	r31, 0x01	; 1
     792:	a6 ec       	ldi	r26, 0xC6	; 198
     794:	b1 e0       	ldi	r27, 0x01	; 1
     796:	01 90       	ld	r0, Z+
     798:	0d 92       	st	X+, r0
     79a:	8a 95       	dec	r24
     79c:	e1 f7       	brne	.-8      	; 0x796 <updatePlay+0x26>
		sprintf(ScreenBuf[1], "send saved code!");
     79e:	81 e1       	ldi	r24, 0x11	; 17
     7a0:	e7 e2       	ldi	r30, 0x27	; 39
     7a2:	f1 e0       	ldi	r31, 0x01	; 1
     7a4:	a7 ed       	ldi	r26, 0xD7	; 215
     7a6:	b1 e0       	ldi	r27, 0x01	; 1
     7a8:	01 90       	ld	r0, Z+
     7aa:	0d 92       	st	X+, r0
     7ac:	8a 95       	dec	r24
     7ae:	e1 f7       	brne	.-8      	; 0x7a8 <updatePlay+0x38>
		Refresh=1;
     7b0:	81 e0       	ldi	r24, 0x01	; 1
     7b2:	80 93 c5 01 	sts	0x01C5, r24	; 0x8001c5 <Refresh>
	}
	switch(PressedKeyCode)
     7b6:	e0 91 b0 01 	lds	r30, 0x01B0	; 0x8001b0 <PressedKeyCode>
     7ba:	8e 2f       	mov	r24, r30
     7bc:	90 e0       	ldi	r25, 0x00	; 0
     7be:	fc 01       	movw	r30, r24
     7c0:	39 97       	sbiw	r30, 0x09	; 9
     7c2:	ea 33       	cpi	r30, 0x3A	; 58
     7c4:	f1 05       	cpc	r31, r1
     7c6:	08 f0       	brcs	.+2      	; 0x7ca <updatePlay+0x5a>
     7c8:	4b c0       	rjmp	.+150    	; 0x860 <updatePlay+0xf0>
     7ca:	e0 59       	subi	r30, 0x90	; 144
     7cc:	ff 4f       	sbci	r31, 0xFF	; 255
     7ce:	0c 94 1d 17 	jmp	0x2e3a	; 0x2e3a <__tablejump2__>
	{
		case KEY_0:
			getCode(&dec_results, 0);
     7d2:	60 e0       	ldi	r22, 0x00	; 0
     7d4:	ce 01       	movw	r24, r28
     7d6:	01 96       	adiw	r24, 0x01	; 1
     7d8:	f9 dd       	rcall	.-1038   	; 0x3cc <getCode>

void playCode(decode_results *dec_results);

void updatePlay()
{
	uint8_t playQuery=1;
     7da:	81 e0       	ldi	r24, 0x01	; 1
	}
	switch(PressedKeyCode)
	{
		case KEY_0:
			getCode(&dec_results, 0);
			break;
     7dc:	42 c0       	rjmp	.+132    	; 0x862 <updatePlay+0xf2>
		case KEY_1:
			getCode(&dec_results, 1);
     7de:	61 e0       	ldi	r22, 0x01	; 1
     7e0:	ce 01       	movw	r24, r28
     7e2:	01 96       	adiw	r24, 0x01	; 1
     7e4:	f3 dd       	rcall	.-1050   	; 0x3cc <getCode>

void playCode(decode_results *dec_results);

void updatePlay()
{
	uint8_t playQuery=1;
     7e6:	81 e0       	ldi	r24, 0x01	; 1
		case KEY_0:
			getCode(&dec_results, 0);
			break;
		case KEY_1:
			getCode(&dec_results, 1);
			break;
     7e8:	3c c0       	rjmp	.+120    	; 0x862 <updatePlay+0xf2>
		case KEY_2:
			getCode(&dec_results, 2);
     7ea:	62 e0       	ldi	r22, 0x02	; 2
     7ec:	ce 01       	movw	r24, r28
     7ee:	01 96       	adiw	r24, 0x01	; 1
     7f0:	ed dd       	rcall	.-1062   	; 0x3cc <getCode>

void playCode(decode_results *dec_results);

void updatePlay()
{
	uint8_t playQuery=1;
     7f2:	81 e0       	ldi	r24, 0x01	; 1
		case KEY_1:
			getCode(&dec_results, 1);
			break;
		case KEY_2:
			getCode(&dec_results, 2);
			break;
     7f4:	36 c0       	rjmp	.+108    	; 0x862 <updatePlay+0xf2>
		case KEY_3:
			getCode(&dec_results, 3);
     7f6:	63 e0       	ldi	r22, 0x03	; 3
     7f8:	ce 01       	movw	r24, r28
     7fa:	01 96       	adiw	r24, 0x01	; 1
     7fc:	e7 dd       	rcall	.-1074   	; 0x3cc <getCode>

void playCode(decode_results *dec_results);

void updatePlay()
{
	uint8_t playQuery=1;
     7fe:	81 e0       	ldi	r24, 0x01	; 1
			break;
		case KEY_3:
			getCode(&dec_results, 3);
			break;
		case KEY_4:
			getCode(&dec_results, 4);
     800:	30 c0       	rjmp	.+96     	; 0x862 <updatePlay+0xf2>
     802:	64 e0       	ldi	r22, 0x04	; 4
     804:	ce 01       	movw	r24, r28
     806:	01 96       	adiw	r24, 0x01	; 1
     808:	e1 dd       	rcall	.-1086   	; 0x3cc <getCode>
			break;
     80a:	81 e0       	ldi	r24, 0x01	; 1
		case KEY_5:
			getCode(&dec_results, 5);
     80c:	2a c0       	rjmp	.+84     	; 0x862 <updatePlay+0xf2>
     80e:	65 e0       	ldi	r22, 0x05	; 5
     810:	ce 01       	movw	r24, r28
     812:	01 96       	adiw	r24, 0x01	; 1

void playCode(decode_results *dec_results);

void updatePlay()
{
	uint8_t playQuery=1;
     814:	db dd       	rcall	.-1098   	; 0x3cc <getCode>
		case KEY_4:
			getCode(&dec_results, 4);
			break;
		case KEY_5:
			getCode(&dec_results, 5);
			break;
     816:	81 e0       	ldi	r24, 0x01	; 1
		case KEY_6:
			getCode(&dec_results, 6);
     818:	24 c0       	rjmp	.+72     	; 0x862 <updatePlay+0xf2>
     81a:	66 e0       	ldi	r22, 0x06	; 6
     81c:	ce 01       	movw	r24, r28
     81e:	01 96       	adiw	r24, 0x01	; 1

void playCode(decode_results *dec_results);

void updatePlay()
{
	uint8_t playQuery=1;
     820:	d5 dd       	rcall	.-1110   	; 0x3cc <getCode>
		case KEY_5:
			getCode(&dec_results, 5);
			break;
		case KEY_6:
			getCode(&dec_results, 6);
			break;
     822:	81 e0       	ldi	r24, 0x01	; 1
		case KEY_7:
			getCode(&dec_results, 7);
     824:	1e c0       	rjmp	.+60     	; 0x862 <updatePlay+0xf2>
     826:	67 e0       	ldi	r22, 0x07	; 7
     828:	ce 01       	movw	r24, r28
     82a:	01 96       	adiw	r24, 0x01	; 1

void playCode(decode_results *dec_results);

void updatePlay()
{
	uint8_t playQuery=1;
     82c:	cf dd       	rcall	.-1122   	; 0x3cc <getCode>
		case KEY_6:
			getCode(&dec_results, 6);
			break;
		case KEY_7:
			getCode(&dec_results, 7);
			break;
     82e:	81 e0       	ldi	r24, 0x01	; 1
		case KEY_8:
			getCode(&dec_results, 8);
     830:	18 c0       	rjmp	.+48     	; 0x862 <updatePlay+0xf2>
     832:	68 e0       	ldi	r22, 0x08	; 8
     834:	ce 01       	movw	r24, r28
     836:	01 96       	adiw	r24, 0x01	; 1

void playCode(decode_results *dec_results);

void updatePlay()
{
	uint8_t playQuery=1;
     838:	c9 dd       	rcall	.-1134   	; 0x3cc <getCode>
		case KEY_7:
			getCode(&dec_results, 7);
			break;
		case KEY_8:
			getCode(&dec_results, 8);
			break;
     83a:	81 e0       	ldi	r24, 0x01	; 1
		case KEY_9:
			getCode(&dec_results, 9);
     83c:	12 c0       	rjmp	.+36     	; 0x862 <updatePlay+0xf2>
     83e:	69 e0       	ldi	r22, 0x09	; 9
     840:	ce 01       	movw	r24, r28
     842:	01 96       	adiw	r24, 0x01	; 1
     844:	c3 dd       	rcall	.-1146   	; 0x3cc <getCode>

void playCode(decode_results *dec_results);

void updatePlay()
{
	uint8_t playQuery=1;
     846:	81 e0       	ldi	r24, 0x01	; 1
		case KEY_8:
			getCode(&dec_results, 8);
			break;
		case KEY_9:
			getCode(&dec_results, 9);
			break;
     848:	0c c0       	rjmp	.+24     	; 0x862 <updatePlay+0xf2>
		case KEY_ASTERISK:
			playQuery=0;
			updatePtr=updateMain;
     84a:	89 e1       	ldi	r24, 0x19	; 25
     84c:	93 e0       	ldi	r25, 0x03	; 3
     84e:	90 93 ec 01 	sts	0x01EC, r25	; 0x8001ec <updatePtr+0x1>
     852:	80 93 eb 01 	sts	0x01EB, r24	; 0x8001eb <updatePtr>
			ChangedScreen=1;
     856:	81 e0       	ldi	r24, 0x01	; 1
     858:	80 93 00 01 	sts	0x0100, r24	; 0x800100 <ChangedScreen>
			break;
		default:
			playQuery=0;
     85c:	80 e0       	ldi	r24, 0x00	; 0
			break;
	}
	if(playQuery)
     85e:	01 c0       	rjmp	.+2      	; 0x862 <updatePlay+0xf2>
     860:	80 e0       	ldi	r24, 0x00	; 0
	{
		playCode(&dec_results);
     862:	88 23       	and	r24, r24
     864:	31 f0       	breq	.+12     	; 0x872 <updatePlay+0x102>
     866:	ce 01       	movw	r24, r28
     868:	01 96       	adiw	r24, 0x01	; 1
		displayProtocol(&dec_results);
     86a:	59 df       	rcall	.-334    	; 0x71e <playCode>
     86c:	ce 01       	movw	r24, r28
     86e:	01 96       	adiw	r24, 0x01	; 1
     870:	45 d1       	rcall	.+650    	; 0xafc <displayProtocol>
	}
}
     872:	2e 96       	adiw	r28, 0x0e	; 14
     874:	0f b6       	in	r0, 0x3f	; 63
     876:	f8 94       	cli
     878:	de bf       	out	0x3e, r29	; 62
     87a:	0f be       	out	0x3f, r0	; 63
     87c:	cd bf       	out	0x3d, r28	; 61
     87e:	df 91       	pop	r29
     880:	cf 91       	pop	r28
     882:	08 95       	ret

00000884 <updateSaved>:
#include "screens.h"

void updateSaved()
{
	static uint16_t ref1=0;
	if(ChangedScreen)
     884:	80 91 00 01 	lds	r24, 0x0100	; 0x800100 <ChangedScreen>
     888:	88 23       	and	r24, r24
     88a:	91 f0       	breq	.+36     	; 0x8b0 <updateSaved+0x2c>
	{
		sprintf(ScreenBuf[0], "    Saved !     ");
     88c:	81 e1       	ldi	r24, 0x11	; 17
     88e:	e8 e3       	ldi	r30, 0x38	; 56
     890:	f1 e0       	ldi	r31, 0x01	; 1
     892:	a6 ec       	ldi	r26, 0xC6	; 198
     894:	b1 e0       	ldi	r27, 0x01	; 1
     896:	01 90       	ld	r0, Z+
     898:	0d 92       	st	X+, r0
     89a:	8a 95       	dec	r24
     89c:	e1 f7       	brne	.-8      	; 0x896 <updateSaved+0x12>
		ScreenBuf[1][0]='\0';
     89e:	10 92 d7 01 	sts	0x01D7, r1	; 0x8001d7 <ScreenBuf+0x11>
		Refresh=1;
     8a2:	81 e0       	ldi	r24, 0x01	; 1
     8a4:	80 93 c5 01 	sts	0x01C5, r24	; 0x8001c5 <Refresh>
		marqueTime16(&ref1);
     8a8:	82 eb       	ldi	r24, 0xB2	; 178
     8aa:	91 e0       	ldi	r25, 0x01	; 1
     8ac:	0e 94 d5 14 	call	0x29aa	; 0x29aa <marqueTime16>
	}
	if(elapsedTime16(&ref1)>100)
     8b0:	82 eb       	ldi	r24, 0xB2	; 178
     8b2:	91 e0       	ldi	r25, 0x01	; 1
     8b4:	0e 94 dd 14 	call	0x29ba	; 0x29ba <elapsedTime16>
     8b8:	85 36       	cpi	r24, 0x65	; 101
     8ba:	91 05       	cpc	r25, r1
     8bc:	48 f0       	brcs	.+18     	; 0x8d0 <updateSaved+0x4c>
	{
		updatePtr=updateSpyRec;
     8be:	88 e1       	ldi	r24, 0x18	; 24
     8c0:	95 e0       	ldi	r25, 0x05	; 5
     8c2:	90 93 ec 01 	sts	0x01EC, r25	; 0x8001ec <updatePtr+0x1>
     8c6:	80 93 eb 01 	sts	0x01EB, r24	; 0x8001eb <updatePtr>
		ChangedScreen=1;
     8ca:	81 e0       	ldi	r24, 0x01	; 1
     8cc:	80 93 00 01 	sts	0x0100, r24	; 0x800100 <ChangedScreen>
     8d0:	08 95       	ret

000008d2 <spy>:
		updatePtr=updateMain;
		ChangedScreen=1;
	}
}
void spy()
{
     8d2:	cf 93       	push	r28
     8d4:	df 93       	push	r29
     8d6:	cd b7       	in	r28, 0x3d	; 61
     8d8:	de b7       	in	r29, 0x3e	; 62
     8da:	2e 97       	sbiw	r28, 0x0e	; 14
     8dc:	0f b6       	in	r0, 0x3f	; 63
     8de:	f8 94       	cli
     8e0:	de bf       	out	0x3e, r29	; 62
     8e2:	0f be       	out	0x3f, r0	; 63
     8e4:	cd bf       	out	0x3d, r28	; 61
	decode_results dec_results;
	static decode_results dec_results_save;
	static uint16_t ref1=0;
	static uint8_t resume=0;
	uint8_t saved = 0;
	uint8_t found=ir_decode(&dec_results);
     8e6:	ce 01       	movw	r24, r28
     8e8:	01 96       	adiw	r24, 0x01	; 1
     8ea:	0e 94 a0 11 	call	0x2340	; 0x2340 <ir_decode>
	
	
	if (found&&!resume) 
     8ee:	88 23       	and	r24, r24
     8f0:	19 f1       	breq	.+70     	; 0x938 <__stack+0x39>
     8f2:	80 91 c4 01 	lds	r24, 0x01C4	; 0x8001c4 <resume.2420>
     8f6:	81 11       	cpse	r24, r1
     8f8:	1f c0       	rjmp	.+62     	; 0x938 <__stack+0x39>
	{
		dec_results_save.decode_type = dec_results.decode_type;
     8fa:	89 81       	ldd	r24, Y+1	; 0x01
     8fc:	9a 81       	ldd	r25, Y+2	; 0x02
     8fe:	e6 eb       	ldi	r30, 0xB6	; 182
     900:	f1 e0       	ldi	r31, 0x01	; 1
     902:	91 83       	std	Z+1, r25	; 0x01
     904:	80 83       	st	Z, r24
		dec_results_save.bits = dec_results.bits;
     906:	89 85       	ldd	r24, Y+9	; 0x09
     908:	9a 85       	ldd	r25, Y+10	; 0x0a
     90a:	91 87       	std	Z+9, r25	; 0x09
     90c:	80 87       	std	Z+8, r24	; 0x08
		dec_results_save.value = dec_results.value;
     90e:	8d 81       	ldd	r24, Y+5	; 0x05
     910:	9e 81       	ldd	r25, Y+6	; 0x06
     912:	af 81       	ldd	r26, Y+7	; 0x07
     914:	b8 85       	ldd	r27, Y+8	; 0x08
     916:	84 83       	std	Z+4, r24	; 0x04
     918:	95 83       	std	Z+5, r25	; 0x05
     91a:	a6 83       	std	Z+6, r26	; 0x06
     91c:	b7 83       	std	Z+7, r27	; 0x07
		dec_results_save.panasonicAddress = dec_results.panasonicAddress;
     91e:	8b 81       	ldd	r24, Y+3	; 0x03
     920:	9c 81       	ldd	r25, Y+4	; 0x04
     922:	93 83       	std	Z+3, r25	; 0x03
     924:	82 83       	std	Z+2, r24	; 0x02
		
		displayProtocol(&dec_results_save);
     926:	cf 01       	movw	r24, r30
     928:	e9 d0       	rcall	.+466    	; 0xafc <displayProtocol>
		marqueTime16(&ref1);
     92a:	84 eb       	ldi	r24, 0xB4	; 180
     92c:	91 e0       	ldi	r25, 0x01	; 1
     92e:	0e 94 d5 14 	call	0x29aa	; 0x29aa <marqueTime16>
		resume=1;		   
     932:	81 e0       	ldi	r24, 0x01	; 1
     934:	80 93 c4 01 	sts	0x01C4, r24	; 0x8001c4 <resume.2420>
	}
	if (elapsedTime16(&ref1)>20 && resume) // wait 200ms before listening again
     938:	84 eb       	ldi	r24, 0xB4	; 180
     93a:	91 e0       	ldi	r25, 0x01	; 1
     93c:	0e 94 dd 14 	call	0x29ba	; 0x29ba <elapsedTime16>
     940:	45 97       	sbiw	r24, 0x15	; 21
     942:	40 f0       	brcs	.+16     	; 0x954 <__stack+0x55>
     944:	80 91 c4 01 	lds	r24, 0x01C4	; 0x8001c4 <resume.2420>
     948:	88 23       	and	r24, r24
     94a:	21 f0       	breq	.+8      	; 0x954 <__stack+0x55>
	{
		 ir_resume(); // Receive the next value
     94c:	0e 94 98 11 	call	0x2330	; 0x2330 <ir_resume>
		 resume=0;
     950:	10 92 c4 01 	sts	0x01C4, r1	; 0x8001c4 <resume.2420>
	}
	if(dec_results_save.decode_type != 0 && dec_results_save.decode_type != UNKNOWN)
     954:	80 91 b6 01 	lds	r24, 0x01B6	; 0x8001b6 <dec_results_save.2418>
     958:	90 91 b7 01 	lds	r25, 0x01B7	; 0x8001b7 <dec_results_save.2418+0x1>
     95c:	01 96       	adiw	r24, 0x01	; 1
     95e:	02 97       	sbiw	r24, 0x02	; 2
     960:	08 f4       	brcc	.+2      	; 0x964 <__stack+0x65>
     962:	5d c0       	rjmp	.+186    	; 0xa1e <__stack+0x11f>
	{	
		if(ChangedScreen)
     964:	80 91 00 01 	lds	r24, 0x0100	; 0x800100 <ChangedScreen>
     968:	88 23       	and	r24, r24
     96a:	19 f0       	breq	.+6      	; 0x972 <__stack+0x73>
			displayProtocol(&dec_results_save);
     96c:	86 eb       	ldi	r24, 0xB6	; 182
     96e:	91 e0       	ldi	r25, 0x01	; 1
     970:	c5 d0       	rcall	.+394    	; 0xafc <displayProtocol>
		saved=1;
		switch(PressedKeyCode)
     972:	e0 91 b0 01 	lds	r30, 0x01B0	; 0x8001b0 <PressedKeyCode>
     976:	8e 2f       	mov	r24, r30
     978:	90 e0       	ldi	r25, 0x00	; 0
     97a:	fc 01       	movw	r30, r24
     97c:	39 97       	sbiw	r30, 0x09	; 9
     97e:	ea 33       	cpi	r30, 0x3A	; 58
     980:	f1 05       	cpc	r31, r1
     982:	08 f0       	brcs	.+2      	; 0x986 <__stack+0x87>
     984:	40 c0       	rjmp	.+128    	; 0xa06 <__stack+0x107>
     986:	e6 55       	subi	r30, 0x56	; 86
     988:	ff 4f       	sbci	r31, 0xFF	; 255
     98a:	0c 94 1d 17 	jmp	0x2e3a	; 0x2e3a <__tablejump2__>
		{
			case KEY_0:
				saveCode(&dec_results_save, 0);
     98e:	60 e0       	ldi	r22, 0x00	; 0
     990:	86 eb       	ldi	r24, 0xB6	; 182
     992:	91 e0       	ldi	r25, 0x01	; 1
     994:	37 dc       	rcall	.-1938   	; 0x204 <saveCode>
	}
	if(dec_results_save.decode_type != 0 && dec_results_save.decode_type != UNKNOWN)
	{	
		if(ChangedScreen)
			displayProtocol(&dec_results_save);
		saved=1;
     996:	81 e0       	ldi	r24, 0x01	; 1
		switch(PressedKeyCode)
		{
			case KEY_0:
				saveCode(&dec_results_save, 0);
				break;
     998:	37 c0       	rjmp	.+110    	; 0xa08 <__stack+0x109>
			case KEY_1:
				saveCode(&dec_results_save, 1);
     99a:	61 e0       	ldi	r22, 0x01	; 1
     99c:	86 eb       	ldi	r24, 0xB6	; 182
     99e:	91 e0       	ldi	r25, 0x01	; 1
     9a0:	31 dc       	rcall	.-1950   	; 0x204 <saveCode>
	}
	if(dec_results_save.decode_type != 0 && dec_results_save.decode_type != UNKNOWN)
	{	
		if(ChangedScreen)
			displayProtocol(&dec_results_save);
		saved=1;
     9a2:	81 e0       	ldi	r24, 0x01	; 1
				break;
			case KEY_1:
				saveCode(&dec_results_save, 1);
				break;
			case KEY_2:
				saveCode(&dec_results_save, 2);
     9a4:	31 c0       	rjmp	.+98     	; 0xa08 <__stack+0x109>
     9a6:	62 e0       	ldi	r22, 0x02	; 2
     9a8:	86 eb       	ldi	r24, 0xB6	; 182
     9aa:	91 e0       	ldi	r25, 0x01	; 1
     9ac:	2b dc       	rcall	.-1962   	; 0x204 <saveCode>
				break;
     9ae:	81 e0       	ldi	r24, 0x01	; 1
			case KEY_3:
				saveCode(&dec_results_save, 3);
     9b0:	2b c0       	rjmp	.+86     	; 0xa08 <__stack+0x109>
     9b2:	63 e0       	ldi	r22, 0x03	; 3
     9b4:	86 eb       	ldi	r24, 0xB6	; 182
     9b6:	91 e0       	ldi	r25, 0x01	; 1
	}
	if(dec_results_save.decode_type != 0 && dec_results_save.decode_type != UNKNOWN)
	{	
		if(ChangedScreen)
			displayProtocol(&dec_results_save);
		saved=1;
     9b8:	25 dc       	rcall	.-1974   	; 0x204 <saveCode>
			case KEY_2:
				saveCode(&dec_results_save, 2);
				break;
			case KEY_3:
				saveCode(&dec_results_save, 3);
				break;
     9ba:	81 e0       	ldi	r24, 0x01	; 1
			case KEY_4:
				saveCode(&dec_results_save, 4);
     9bc:	25 c0       	rjmp	.+74     	; 0xa08 <__stack+0x109>
     9be:	64 e0       	ldi	r22, 0x04	; 4
     9c0:	86 eb       	ldi	r24, 0xB6	; 182
     9c2:	91 e0       	ldi	r25, 0x01	; 1
	}
	if(dec_results_save.decode_type != 0 && dec_results_save.decode_type != UNKNOWN)
	{	
		if(ChangedScreen)
			displayProtocol(&dec_results_save);
		saved=1;
     9c4:	1f dc       	rcall	.-1986   	; 0x204 <saveCode>
			case KEY_3:
				saveCode(&dec_results_save, 3);
				break;
			case KEY_4:
				saveCode(&dec_results_save, 4);
				break;
     9c6:	81 e0       	ldi	r24, 0x01	; 1
			case KEY_5:
				saveCode(&dec_results_save, 5);
     9c8:	1f c0       	rjmp	.+62     	; 0xa08 <__stack+0x109>
     9ca:	65 e0       	ldi	r22, 0x05	; 5
     9cc:	86 eb       	ldi	r24, 0xB6	; 182
     9ce:	91 e0       	ldi	r25, 0x01	; 1
	}
	if(dec_results_save.decode_type != 0 && dec_results_save.decode_type != UNKNOWN)
	{	
		if(ChangedScreen)
			displayProtocol(&dec_results_save);
		saved=1;
     9d0:	19 dc       	rcall	.-1998   	; 0x204 <saveCode>
			case KEY_4:
				saveCode(&dec_results_save, 4);
				break;
			case KEY_5:
				saveCode(&dec_results_save, 5);
				break;
     9d2:	81 e0       	ldi	r24, 0x01	; 1
			case KEY_6:
				saveCode(&dec_results_save, 6);
     9d4:	19 c0       	rjmp	.+50     	; 0xa08 <__stack+0x109>
     9d6:	66 e0       	ldi	r22, 0x06	; 6
     9d8:	86 eb       	ldi	r24, 0xB6	; 182
     9da:	91 e0       	ldi	r25, 0x01	; 1
	}
	if(dec_results_save.decode_type != 0 && dec_results_save.decode_type != UNKNOWN)
	{	
		if(ChangedScreen)
			displayProtocol(&dec_results_save);
		saved=1;
     9dc:	13 dc       	rcall	.-2010   	; 0x204 <saveCode>
			case KEY_5:
				saveCode(&dec_results_save, 5);
				break;
			case KEY_6:
				saveCode(&dec_results_save, 6);
				break;
     9de:	81 e0       	ldi	r24, 0x01	; 1
			case KEY_7:
				saveCode(&dec_results_save, 7);
     9e0:	13 c0       	rjmp	.+38     	; 0xa08 <__stack+0x109>
     9e2:	67 e0       	ldi	r22, 0x07	; 7
     9e4:	86 eb       	ldi	r24, 0xB6	; 182
     9e6:	91 e0       	ldi	r25, 0x01	; 1
	}
	if(dec_results_save.decode_type != 0 && dec_results_save.decode_type != UNKNOWN)
	{	
		if(ChangedScreen)
			displayProtocol(&dec_results_save);
		saved=1;
     9e8:	0d dc       	rcall	.-2022   	; 0x204 <saveCode>
				break;
			case KEY_7:
				saveCode(&dec_results_save, 7);
				break;
			case KEY_8:
				saveCode(&dec_results_save, 8);
     9ea:	81 e0       	ldi	r24, 0x01	; 1
     9ec:	0d c0       	rjmp	.+26     	; 0xa08 <__stack+0x109>
     9ee:	68 e0       	ldi	r22, 0x08	; 8
     9f0:	86 eb       	ldi	r24, 0xB6	; 182
     9f2:	91 e0       	ldi	r25, 0x01	; 1
	}
	if(dec_results_save.decode_type != 0 && dec_results_save.decode_type != UNKNOWN)
	{	
		if(ChangedScreen)
			displayProtocol(&dec_results_save);
		saved=1;
     9f4:	07 dc       	rcall	.-2034   	; 0x204 <saveCode>
			case KEY_7:
				saveCode(&dec_results_save, 7);
				break;
			case KEY_8:
				saveCode(&dec_results_save, 8);
				break;
     9f6:	81 e0       	ldi	r24, 0x01	; 1
			case KEY_9:
				saveCode(&dec_results_save, 9);
     9f8:	07 c0       	rjmp	.+14     	; 0xa08 <__stack+0x109>
     9fa:	69 e0       	ldi	r22, 0x09	; 9
     9fc:	86 eb       	ldi	r24, 0xB6	; 182
     9fe:	91 e0       	ldi	r25, 0x01	; 1
     a00:	01 dc       	rcall	.-2046   	; 0x204 <saveCode>
	}
	if(dec_results_save.decode_type != 0 && dec_results_save.decode_type != UNKNOWN)
	{	
		if(ChangedScreen)
			displayProtocol(&dec_results_save);
		saved=1;
     a02:	81 e0       	ldi	r24, 0x01	; 1
			case KEY_8:
				saveCode(&dec_results_save, 8);
				break;
			case KEY_9:
				saveCode(&dec_results_save, 9);
				break;
     a04:	01 c0       	rjmp	.+2      	; 0xa08 <__stack+0x109>
			default:
				saved=0;
     a06:	80 e0       	ldi	r24, 0x00	; 0
				break;
		}
		if(saved)
     a08:	88 23       	and	r24, r24
     a0a:	49 f0       	breq	.+18     	; 0xa1e <__stack+0x11f>
		{
			updatePtr=updateSaved;
     a0c:	82 e4       	ldi	r24, 0x42	; 66
     a0e:	94 e0       	ldi	r25, 0x04	; 4
     a10:	90 93 ec 01 	sts	0x01EC, r25	; 0x8001ec <updatePtr+0x1>
     a14:	80 93 eb 01 	sts	0x01EB, r24	; 0x8001eb <updatePtr>
			ChangedScreen=1;
     a18:	81 e0       	ldi	r24, 0x01	; 1
     a1a:	80 93 00 01 	sts	0x0100, r24	; 0x800100 <ChangedScreen>
		}
		
	}
		
     a1e:	2e 96       	adiw	r28, 0x0e	; 14
     a20:	0f b6       	in	r0, 0x3f	; 63
     a22:	f8 94       	cli
     a24:	de bf       	out	0x3e, r29	; 62
     a26:	0f be       	out	0x3f, r0	; 63
     a28:	cd bf       	out	0x3d, r28	; 61
     a2a:	df 91       	pop	r29
     a2c:	cf 91       	pop	r28
     a2e:	08 95       	ret

00000a30 <updateSpyRec>:



void updateSpyRec()
{	
	if(ChangedScreen)
     a30:	80 91 00 01 	lds	r24, 0x0100	; 0x800100 <ChangedScreen>
     a34:	88 23       	and	r24, r24
     a36:	b9 f0       	breq	.+46     	; 0xa66 <updateSpyRec+0x36>
	{
		ir_enableIRIn();
     a38:	0e 94 dd 10 	call	0x21ba	; 0x21ba <ir_enableIRIn>
		sprintf(ScreenBuf[0], "Spying... Press");
     a3c:	80 e1       	ldi	r24, 0x10	; 16
     a3e:	e9 e4       	ldi	r30, 0x49	; 73
     a40:	f1 e0       	ldi	r31, 0x01	; 1
     a42:	a6 ec       	ldi	r26, 0xC6	; 198
     a44:	b1 e0       	ldi	r27, 0x01	; 1
     a46:	01 90       	ld	r0, Z+
     a48:	0d 92       	st	X+, r0
     a4a:	8a 95       	dec	r24
     a4c:	e1 f7       	brne	.-8      	; 0xa46 <updateSpyRec+0x16>
		sprintf(ScreenBuf[1], "0-9 to save !");
     a4e:	8e e0       	ldi	r24, 0x0E	; 14
     a50:	e9 e5       	ldi	r30, 0x59	; 89
     a52:	f1 e0       	ldi	r31, 0x01	; 1
     a54:	a7 ed       	ldi	r26, 0xD7	; 215
     a56:	b1 e0       	ldi	r27, 0x01	; 1
     a58:	01 90       	ld	r0, Z+
     a5a:	0d 92       	st	X+, r0
     a5c:	8a 95       	dec	r24
     a5e:	e1 f7       	brne	.-8      	; 0xa58 <updateSpyRec+0x28>
		Refresh=1;
     a60:	81 e0       	ldi	r24, 0x01	; 1
     a62:	80 93 c5 01 	sts	0x01C5, r24	; 0x8001c5 <Refresh>
	}
		
	spy();
     a66:	35 df       	rcall	.-406    	; 0x8d2 <spy>
	
	if(PressedKeyCode==KEY_ASTERISK)
     a68:	80 91 b0 01 	lds	r24, 0x01B0	; 0x8001b0 <PressedKeyCode>
     a6c:	81 34       	cpi	r24, 0x41	; 65
     a6e:	49 f4       	brne	.+18     	; 0xa82 <updateSpyRec+0x52>
	{
		updatePtr=updateMain;
     a70:	89 e1       	ldi	r24, 0x19	; 25
     a72:	93 e0       	ldi	r25, 0x03	; 3
     a74:	90 93 ec 01 	sts	0x01EC, r25	; 0x8001ec <updatePtr+0x1>
     a78:	80 93 eb 01 	sts	0x01EB, r24	; 0x8001eb <updatePtr>
		ChangedScreen=1;
     a7c:	81 e0       	ldi	r24, 0x01	; 1
     a7e:	80 93 00 01 	sts	0x0100, r24	; 0x800100 <ChangedScreen>
     a82:	08 95       	ret

00000a84 <updateIndex>:
char ScreenBuf[2][17] = {0}; //17 pour '\0' 
uint8_t Refresh = 0;
uint8_t ChangedScreen = 1;
	
uint8_t updateIndex(uint8_t *index, uint8_t maxItem)
{
     a84:	fc 01       	movw	r30, r24
	switch(PressedKeyCode)
     a86:	90 91 b0 01 	lds	r25, 0x01B0	; 0x8001b0 <PressedKeyCode>
     a8a:	9a 30       	cpi	r25, 0x0A	; 10
     a8c:	19 f0       	breq	.+6      	; 0xa94 <updateIndex+0x10>
     a8e:	92 32       	cpi	r25, 0x22	; 34
     a90:	61 f0       	breq	.+24     	; 0xaaa <updateIndex+0x26>
     a92:	1b c0       	rjmp	.+54     	; 0xaca <updateIndex+0x46>
	{
		case KEY_2:
			if(*index == 0)
     a94:	80 81       	ld	r24, Z
     a96:	81 11       	cpse	r24, r1
     a98:	04 c0       	rjmp	.+8      	; 0xaa2 <updateIndex+0x1e>
				*index=maxItem-1;
     a9a:	61 50       	subi	r22, 0x01	; 1
     a9c:	60 83       	st	Z, r22
			break;
		default:
			return 0;
			break;
	}
	return 1;
     a9e:	81 e0       	ldi	r24, 0x01	; 1
     aa0:	08 95       	ret
	{
		case KEY_2:
			if(*index == 0)
				*index=maxItem-1;
			else
				(*index)--;
     aa2:	81 50       	subi	r24, 0x01	; 1
     aa4:	80 83       	st	Z, r24
			break;
		default:
			return 0;
			break;
	}
	return 1;
     aa6:	81 e0       	ldi	r24, 0x01	; 1
     aa8:	08 95       	ret
				*index=maxItem-1;
			else
				(*index)--;
			break;
		case KEY_8:
			if(*index == maxItem-1)
     aaa:	80 81       	ld	r24, Z
     aac:	28 2f       	mov	r18, r24
     aae:	30 e0       	ldi	r19, 0x00	; 0
     ab0:	70 e0       	ldi	r23, 0x00	; 0
     ab2:	61 50       	subi	r22, 0x01	; 1
     ab4:	71 09       	sbc	r23, r1
     ab6:	26 17       	cp	r18, r22
     ab8:	37 07       	cpc	r19, r23
     aba:	19 f4       	brne	.+6      	; 0xac2 <updateIndex+0x3e>
				*index=0;
     abc:	10 82       	st	Z, r1
			break;
		default:
			return 0;
			break;
	}
	return 1;
     abe:	81 e0       	ldi	r24, 0x01	; 1
     ac0:	08 95       	ret
			break;
		case KEY_8:
			if(*index == maxItem-1)
				*index=0;
			else
				(*index)++;
     ac2:	8f 5f       	subi	r24, 0xFF	; 255
     ac4:	80 83       	st	Z, r24
			break;
		default:
			return 0;
			break;
	}
	return 1;
     ac6:	81 e0       	ldi	r24, 0x01	; 1
     ac8:	08 95       	ret
				*index=0;
			else
				(*index)++;
			break;
		default:
			return 0;
     aca:	80 e0       	ldi	r24, 0x00	; 0
			break;
	}
	return 1;
}
     acc:	08 95       	ret

00000ace <render>:
	
void render()
{
	if(Refresh)
     ace:	80 91 c5 01 	lds	r24, 0x01C5	; 0x8001c5 <Refresh>
     ad2:	88 23       	and	r24, r24
     ad4:	91 f0       	breq	.+36     	; 0xafa <render+0x2c>
	{
		lcd_clrscr();
     ad6:	0e 94 35 13 	call	0x266a	; 0x266a <lcd_clrscr>
		lcd_home();
     ada:	0e 94 4a 13 	call	0x2694	; 0x2694 <lcd_home>
		lcd_puts(ScreenBuf[0]);
     ade:	86 ec       	ldi	r24, 0xC6	; 198
     ae0:	91 e0       	ldi	r25, 0x01	; 1
     ae2:	0e 94 5f 13 	call	0x26be	; 0x26be <lcd_puts>
		lcd_gotoxy(0, 1);
     ae6:	61 e0       	ldi	r22, 0x01	; 1
     ae8:	80 e0       	ldi	r24, 0x00	; 0
     aea:	0e 94 2d 13 	call	0x265a	; 0x265a <lcd_gotoxy>
		lcd_puts(ScreenBuf[1]);
     aee:	87 ed       	ldi	r24, 0xD7	; 215
     af0:	91 e0       	ldi	r25, 0x01	; 1
     af2:	0e 94 5f 13 	call	0x26be	; 0x26be <lcd_puts>
		Refresh=0;
     af6:	10 92 c5 01 	sts	0x01C5, r1	; 0x8001c5 <Refresh>
     afa:	08 95       	ret

00000afc <displayProtocol>:
	}
}
void displayProtocol(decode_results *dec_results)
{
     afc:	cf 93       	push	r28
     afe:	df 93       	push	r29
     b00:	ec 01       	movw	r28, r24
	char *typeStr = "Type:";
	char *addrStr = "Addr:";
	char *cmdStr = "Cmd:";
	
	strcpy(ScreenBuf[0], typeStr);
     b02:	86 e0       	ldi	r24, 0x06	; 6
     b04:	e7 e6       	ldi	r30, 0x67	; 103
     b06:	f1 e0       	ldi	r31, 0x01	; 1
     b08:	a6 ec       	ldi	r26, 0xC6	; 198
     b0a:	b1 e0       	ldi	r27, 0x01	; 1
     b0c:	01 90       	ld	r0, Z+
     b0e:	0d 92       	st	X+, r0
     b10:	8a 95       	dec	r24
     b12:	e1 f7       	brne	.-8      	; 0xb0c <displayProtocol+0x10>
	
	switch(dec_results->decode_type)
     b14:	88 81       	ld	r24, Y
     b16:	99 81       	ldd	r25, Y+1	; 0x01
     b18:	82 30       	cpi	r24, 0x02	; 2
     b1a:	91 05       	cpc	r25, r1
     b1c:	09 f4       	brne	.+2      	; 0xb20 <displayProtocol+0x24>
     b1e:	80 c0       	rjmp	.+256    	; 0xc20 <displayProtocol+0x124>
     b20:	83 30       	cpi	r24, 0x03	; 3
     b22:	91 05       	cpc	r25, r1
     b24:	09 f4       	brne	.+2      	; 0xb28 <displayProtocol+0x2c>
     b26:	40 c0       	rjmp	.+128    	; 0xba8 <displayProtocol+0xac>
     b28:	01 97       	sbiw	r24, 0x01	; 1
     b2a:	09 f0       	breq	.+2      	; 0xb2e <displayProtocol+0x32>
     b2c:	2d c1       	rjmp	.+602    	; 0xd88 <displayProtocol+0x28c>
	{
		case NEC:
			strcpy(ScreenBuf[0]+strlen(typeStr), "NEC");
     b2e:	eb ec       	ldi	r30, 0xCB	; 203
     b30:	f1 e0       	ldi	r31, 0x01	; 1
     b32:	8e e4       	ldi	r24, 0x4E	; 78
     b34:	95 e4       	ldi	r25, 0x45	; 69
     b36:	91 83       	std	Z+1, r25	; 0x01
     b38:	80 83       	st	Z, r24
     b3a:	83 e4       	ldi	r24, 0x43	; 67
     b3c:	90 e0       	ldi	r25, 0x00	; 0
     b3e:	93 83       	std	Z+3, r25	; 0x03
     b40:	82 83       	std	Z+2, r24	; 0x02
			if(dec_results->value!=REPEAT)
     b42:	8c 81       	ldd	r24, Y+4	; 0x04
     b44:	9d 81       	ldd	r25, Y+5	; 0x05
     b46:	ae 81       	ldd	r26, Y+6	; 0x06
     b48:	bf 81       	ldd	r27, Y+7	; 0x07
     b4a:	8f 3f       	cpi	r24, 0xFF	; 255
     b4c:	2f ef       	ldi	r18, 0xFF	; 255
     b4e:	92 07       	cpc	r25, r18
     b50:	a2 07       	cpc	r26, r18
     b52:	b2 07       	cpc	r27, r18
     b54:	f9 f0       	breq	.+62     	; 0xb94 <displayProtocol+0x98>
				sprintf(ScreenBuf[1], "%sx%02X %sx%02X", addrStr, (uint8_t)((dec_results->value&0xFF000000)>>24), cmdStr, (uint8_t)((dec_results->value&0xFF00)>>8));
     b56:	1f 92       	push	r1
     b58:	9f 93       	push	r25
     b5a:	2d e6       	ldi	r18, 0x6D	; 109
     b5c:	31 e0       	ldi	r19, 0x01	; 1
     b5e:	3f 93       	push	r19
     b60:	2f 93       	push	r18
     b62:	1f 92       	push	r1
     b64:	bf 93       	push	r27
     b66:	82 e7       	ldi	r24, 0x72	; 114
     b68:	91 e0       	ldi	r25, 0x01	; 1
     b6a:	9f 93       	push	r25
     b6c:	8f 93       	push	r24
     b6e:	88 e7       	ldi	r24, 0x78	; 120
     b70:	91 e0       	ldi	r25, 0x01	; 1
     b72:	9f 93       	push	r25
     b74:	8f 93       	push	r24
     b76:	87 ed       	ldi	r24, 0xD7	; 215
     b78:	91 e0       	ldi	r25, 0x01	; 1
     b7a:	9f 93       	push	r25
     b7c:	8f 93       	push	r24
     b7e:	0e 94 3c 17 	call	0x2e78	; 0x2e78 <sprintf>
     b82:	8d b7       	in	r24, 0x3d	; 61
     b84:	9e b7       	in	r25, 0x3e	; 62
     b86:	0c 96       	adiw	r24, 0x0c	; 12
     b88:	0f b6       	in	r0, 0x3f	; 63
     b8a:	f8 94       	cli
     b8c:	9e bf       	out	0x3e, r25	; 62
     b8e:	0f be       	out	0x3f, r0	; 63
     b90:	8d bf       	out	0x3d, r24	; 61
     b92:	05 c1       	rjmp	.+522    	; 0xd9e <displayProtocol+0x2a2>
			else
				sprintf(ScreenBuf[1], "Repeat code");
     b94:	8c e0       	ldi	r24, 0x0C	; 12
     b96:	e8 e8       	ldi	r30, 0x88	; 136
     b98:	f1 e0       	ldi	r31, 0x01	; 1
     b9a:	a7 ed       	ldi	r26, 0xD7	; 215
     b9c:	b1 e0       	ldi	r27, 0x01	; 1
     b9e:	01 90       	ld	r0, Z+
     ba0:	0d 92       	st	X+, r0
     ba2:	8a 95       	dec	r24
     ba4:	e1 f7       	brne	.-8      	; 0xb9e <displayProtocol+0xa2>
     ba6:	fb c0       	rjmp	.+502    	; 0xd9e <displayProtocol+0x2a2>
			break;
		case RC5:
			strcpy(ScreenBuf[0]+strlen(typeStr), "RC5");
     ba8:	eb ec       	ldi	r30, 0xCB	; 203
     baa:	f1 e0       	ldi	r31, 0x01	; 1
     bac:	82 e5       	ldi	r24, 0x52	; 82
     bae:	93 e4       	ldi	r25, 0x43	; 67
     bb0:	91 83       	std	Z+1, r25	; 0x01
     bb2:	80 83       	st	Z, r24
     bb4:	85 e3       	ldi	r24, 0x35	; 53
     bb6:	90 e0       	ldi	r25, 0x00	; 0
     bb8:	93 83       	std	Z+3, r25	; 0x03
     bba:	82 83       	std	Z+2, r24	; 0x02
			sprintf(ScreenBuf[1], "%sx%02X %sx%02X", addrStr, (uint8_t)((dec_results->value&0x7C0)>>6), cmdStr, (uint8_t)(dec_results->value&0x3F));
     bbc:	8c 81       	ldd	r24, Y+4	; 0x04
     bbe:	9d 81       	ldd	r25, Y+5	; 0x05
     bc0:	ae 81       	ldd	r26, Y+6	; 0x06
     bc2:	bf 81       	ldd	r27, Y+7	; 0x07
     bc4:	ac 01       	movw	r20, r24
     bc6:	bd 01       	movw	r22, r26
     bc8:	40 7c       	andi	r20, 0xC0	; 192
     bca:	57 70       	andi	r21, 0x07	; 7
     bcc:	66 27       	eor	r22, r22
     bce:	77 27       	eor	r23, r23
     bd0:	68 94       	set
     bd2:	15 f8       	bld	r1, 5
     bd4:	76 95       	lsr	r23
     bd6:	67 95       	ror	r22
     bd8:	57 95       	ror	r21
     bda:	47 95       	ror	r20
     bdc:	16 94       	lsr	r1
     bde:	d1 f7       	brne	.-12     	; 0xbd4 <displayProtocol+0xd8>
     be0:	8f 73       	andi	r24, 0x3F	; 63
     be2:	1f 92       	push	r1
     be4:	8f 93       	push	r24
     be6:	8d e6       	ldi	r24, 0x6D	; 109
     be8:	91 e0       	ldi	r25, 0x01	; 1
     bea:	9f 93       	push	r25
     bec:	8f 93       	push	r24
     bee:	1f 92       	push	r1
     bf0:	4f 93       	push	r20
     bf2:	82 e7       	ldi	r24, 0x72	; 114
     bf4:	91 e0       	ldi	r25, 0x01	; 1
     bf6:	9f 93       	push	r25
     bf8:	8f 93       	push	r24
     bfa:	88 e7       	ldi	r24, 0x78	; 120
     bfc:	91 e0       	ldi	r25, 0x01	; 1
     bfe:	9f 93       	push	r25
     c00:	8f 93       	push	r24
     c02:	87 ed       	ldi	r24, 0xD7	; 215
     c04:	91 e0       	ldi	r25, 0x01	; 1
     c06:	9f 93       	push	r25
     c08:	8f 93       	push	r24
     c0a:	0e 94 3c 17 	call	0x2e78	; 0x2e78 <sprintf>
			break;
     c0e:	8d b7       	in	r24, 0x3d	; 61
     c10:	9e b7       	in	r25, 0x3e	; 62
     c12:	0c 96       	adiw	r24, 0x0c	; 12
     c14:	0f b6       	in	r0, 0x3f	; 63
     c16:	f8 94       	cli
     c18:	9e bf       	out	0x3e, r25	; 62
     c1a:	0f be       	out	0x3f, r0	; 63
     c1c:	8d bf       	out	0x3d, r24	; 61
     c1e:	bf c0       	rjmp	.+382    	; 0xd9e <displayProtocol+0x2a2>
		case SONY:
			strcpy(ScreenBuf[0]+strlen(typeStr), "SONY");
     c20:	85 e0       	ldi	r24, 0x05	; 5
     c22:	e4 e9       	ldi	r30, 0x94	; 148
     c24:	f1 e0       	ldi	r31, 0x01	; 1
     c26:	ab ec       	ldi	r26, 0xCB	; 203
     c28:	b1 e0       	ldi	r27, 0x01	; 1
     c2a:	01 90       	ld	r0, Z+
     c2c:	0d 92       	st	X+, r0
     c2e:	8a 95       	dec	r24
     c30:	e1 f7       	brne	.-8      	; 0xc2a <displayProtocol+0x12e>
			if(dec_results->bits == 12)
     c32:	88 85       	ldd	r24, Y+8	; 0x08
     c34:	99 85       	ldd	r25, Y+9	; 0x09
     c36:	8c 30       	cpi	r24, 0x0C	; 12
     c38:	91 05       	cpc	r25, r1
     c3a:	91 f5       	brne	.+100    	; 0xca0 <displayProtocol+0x1a4>
				sprintf(ScreenBuf[1], "%sx%02X %sx%02X", addrStr, (uint8_t)(dec_results->value&0x1F), cmdStr, (uint8_t)((dec_results->value&0xFE0)>>5));
     c3c:	8c 81       	ldd	r24, Y+4	; 0x04
     c3e:	9d 81       	ldd	r25, Y+5	; 0x05
     c40:	ae 81       	ldd	r26, Y+6	; 0x06
     c42:	bf 81       	ldd	r27, Y+7	; 0x07
     c44:	ac 01       	movw	r20, r24
     c46:	bd 01       	movw	r22, r26
     c48:	40 7e       	andi	r20, 0xE0	; 224
     c4a:	5f 70       	andi	r21, 0x0F	; 15
     c4c:	66 27       	eor	r22, r22
     c4e:	77 27       	eor	r23, r23
     c50:	68 94       	set
     c52:	14 f8       	bld	r1, 4
     c54:	76 95       	lsr	r23
     c56:	67 95       	ror	r22
     c58:	57 95       	ror	r21
     c5a:	47 95       	ror	r20
     c5c:	16 94       	lsr	r1
     c5e:	d1 f7       	brne	.-12     	; 0xc54 <displayProtocol+0x158>
     c60:	1f 92       	push	r1
     c62:	4f 93       	push	r20
     c64:	2d e6       	ldi	r18, 0x6D	; 109
     c66:	31 e0       	ldi	r19, 0x01	; 1
     c68:	3f 93       	push	r19
     c6a:	2f 93       	push	r18
     c6c:	8f 71       	andi	r24, 0x1F	; 31
     c6e:	1f 92       	push	r1
     c70:	8f 93       	push	r24
     c72:	82 e7       	ldi	r24, 0x72	; 114
     c74:	91 e0       	ldi	r25, 0x01	; 1
     c76:	9f 93       	push	r25
     c78:	8f 93       	push	r24
     c7a:	88 e7       	ldi	r24, 0x78	; 120
     c7c:	91 e0       	ldi	r25, 0x01	; 1
     c7e:	9f 93       	push	r25
     c80:	8f 93       	push	r24
     c82:	87 ed       	ldi	r24, 0xD7	; 215
     c84:	91 e0       	ldi	r25, 0x01	; 1
     c86:	9f 93       	push	r25
     c88:	8f 93       	push	r24
     c8a:	0e 94 3c 17 	call	0x2e78	; 0x2e78 <sprintf>
     c8e:	8d b7       	in	r24, 0x3d	; 61
     c90:	9e b7       	in	r25, 0x3e	; 62
     c92:	0c 96       	adiw	r24, 0x0c	; 12
     c94:	0f b6       	in	r0, 0x3f	; 63
     c96:	f8 94       	cli
     c98:	9e bf       	out	0x3e, r25	; 62
     c9a:	0f be       	out	0x3f, r0	; 63
     c9c:	8d bf       	out	0x3d, r24	; 61
     c9e:	7f c0       	rjmp	.+254    	; 0xd9e <displayProtocol+0x2a2>
			else if(dec_results->bits == 15)
     ca0:	8f 30       	cpi	r24, 0x0F	; 15
     ca2:	91 05       	cpc	r25, r1
     ca4:	49 f5       	brne	.+82     	; 0xcf8 <displayProtocol+0x1fc>
				sprintf(ScreenBuf[1], "%sx%02X %sx%02X", addrStr, (uint8_t)(dec_results->value&0xFF), cmdStr, (uint8_t)((dec_results->value&0x7F00)>>8));
     ca6:	8c 81       	ldd	r24, Y+4	; 0x04
     ca8:	9d 81       	ldd	r25, Y+5	; 0x05
     caa:	ae 81       	ldd	r26, Y+6	; 0x06
     cac:	bf 81       	ldd	r27, Y+7	; 0x07
     cae:	ac 01       	movw	r20, r24
     cb0:	bd 01       	movw	r22, r26
     cb2:	44 27       	eor	r20, r20
     cb4:	5f 77       	andi	r21, 0x7F	; 127
     cb6:	66 27       	eor	r22, r22
     cb8:	77 27       	eor	r23, r23
     cba:	1f 92       	push	r1
     cbc:	5f 93       	push	r21
     cbe:	2d e6       	ldi	r18, 0x6D	; 109
     cc0:	31 e0       	ldi	r19, 0x01	; 1
     cc2:	3f 93       	push	r19
     cc4:	2f 93       	push	r18
     cc6:	1f 92       	push	r1
     cc8:	8f 93       	push	r24
     cca:	82 e7       	ldi	r24, 0x72	; 114
     ccc:	91 e0       	ldi	r25, 0x01	; 1
     cce:	9f 93       	push	r25
     cd0:	8f 93       	push	r24
     cd2:	88 e7       	ldi	r24, 0x78	; 120
     cd4:	91 e0       	ldi	r25, 0x01	; 1
     cd6:	9f 93       	push	r25
     cd8:	8f 93       	push	r24
     cda:	87 ed       	ldi	r24, 0xD7	; 215
     cdc:	91 e0       	ldi	r25, 0x01	; 1
     cde:	9f 93       	push	r25
     ce0:	8f 93       	push	r24
     ce2:	0e 94 3c 17 	call	0x2e78	; 0x2e78 <sprintf>
     ce6:	8d b7       	in	r24, 0x3d	; 61
     ce8:	9e b7       	in	r25, 0x3e	; 62
     cea:	0c 96       	adiw	r24, 0x0c	; 12
     cec:	0f b6       	in	r0, 0x3f	; 63
     cee:	f8 94       	cli
     cf0:	9e bf       	out	0x3e, r25	; 62
     cf2:	0f be       	out	0x3f, r0	; 63
     cf4:	8d bf       	out	0x3d, r24	; 61
     cf6:	53 c0       	rjmp	.+166    	; 0xd9e <displayProtocol+0x2a2>
			else if(dec_results->bits == 20)
     cf8:	44 97       	sbiw	r24, 0x14	; 20
     cfa:	09 f0       	breq	.+2      	; 0xcfe <displayProtocol+0x202>
     cfc:	50 c0       	rjmp	.+160    	; 0xd9e <displayProtocol+0x2a2>
			{
				sprintf(ScreenBuf[0], "%s Ex:x%02X", ScreenBuf[0], (uint8_t)(dec_results->value&0xFF));
     cfe:	8c 81       	ldd	r24, Y+4	; 0x04
     d00:	1f 92       	push	r1
     d02:	8f 93       	push	r24
     d04:	86 ec       	ldi	r24, 0xC6	; 198
     d06:	91 e0       	ldi	r25, 0x01	; 1
     d08:	9f 93       	push	r25
     d0a:	8f 93       	push	r24
     d0c:	29 e9       	ldi	r18, 0x99	; 153
     d0e:	31 e0       	ldi	r19, 0x01	; 1
     d10:	3f 93       	push	r19
     d12:	2f 93       	push	r18
     d14:	9f 93       	push	r25
     d16:	8f 93       	push	r24
     d18:	0e 94 3c 17 	call	0x2e78	; 0x2e78 <sprintf>
				sprintf(ScreenBuf[1], "%sx%02X %sx%02X", addrStr, (uint8_t)((dec_results->value&0x1F00)>>8), cmdStr, (uint8_t)((dec_results->value&0xFE000)>>13));
     d1c:	8c 81       	ldd	r24, Y+4	; 0x04
     d1e:	9d 81       	ldd	r25, Y+5	; 0x05
     d20:	ae 81       	ldd	r26, Y+6	; 0x06
     d22:	bf 81       	ldd	r27, Y+7	; 0x07
     d24:	ac 01       	movw	r20, r24
     d26:	bd 01       	movw	r22, r26
     d28:	44 27       	eor	r20, r20
     d2a:	50 7e       	andi	r21, 0xE0	; 224
     d2c:	6f 70       	andi	r22, 0x0F	; 15
     d2e:	77 27       	eor	r23, r23
     d30:	03 2e       	mov	r0, r19
     d32:	3d e0       	ldi	r19, 0x0D	; 13
     d34:	76 95       	lsr	r23
     d36:	67 95       	ror	r22
     d38:	57 95       	ror	r21
     d3a:	47 95       	ror	r20
     d3c:	3a 95       	dec	r19
     d3e:	d1 f7       	brne	.-12     	; 0xd34 <displayProtocol+0x238>
     d40:	30 2d       	mov	r19, r0
     d42:	88 27       	eor	r24, r24
     d44:	9f 71       	andi	r25, 0x1F	; 31
     d46:	aa 27       	eor	r26, r26
     d48:	bb 27       	eor	r27, r27
     d4a:	1f 92       	push	r1
     d4c:	4f 93       	push	r20
     d4e:	2d e6       	ldi	r18, 0x6D	; 109
     d50:	31 e0       	ldi	r19, 0x01	; 1
     d52:	3f 93       	push	r19
     d54:	2f 93       	push	r18
     d56:	1f 92       	push	r1
     d58:	9f 93       	push	r25
     d5a:	82 e7       	ldi	r24, 0x72	; 114
     d5c:	91 e0       	ldi	r25, 0x01	; 1
     d5e:	9f 93       	push	r25
     d60:	8f 93       	push	r24
     d62:	88 e7       	ldi	r24, 0x78	; 120
     d64:	91 e0       	ldi	r25, 0x01	; 1
     d66:	9f 93       	push	r25
     d68:	8f 93       	push	r24
     d6a:	87 ed       	ldi	r24, 0xD7	; 215
     d6c:	91 e0       	ldi	r25, 0x01	; 1
     d6e:	9f 93       	push	r25
     d70:	8f 93       	push	r24
     d72:	0e 94 3c 17 	call	0x2e78	; 0x2e78 <sprintf>
     d76:	8d b7       	in	r24, 0x3d	; 61
     d78:	9e b7       	in	r25, 0x3e	; 62
     d7a:	44 96       	adiw	r24, 0x14	; 20
     d7c:	0f b6       	in	r0, 0x3f	; 63
     d7e:	f8 94       	cli
     d80:	9e bf       	out	0x3e, r25	; 62
     d82:	0f be       	out	0x3f, r0	; 63
     d84:	8d bf       	out	0x3d, r24	; 61
     d86:	0b c0       	rjmp	.+22     	; 0xd9e <displayProtocol+0x2a2>
			}
			break;
		default:
			strcpy(ScreenBuf[0]+strlen(typeStr), "UNKNOWN");
     d88:	88 e0       	ldi	r24, 0x08	; 8
     d8a:	e5 ea       	ldi	r30, 0xA5	; 165
     d8c:	f1 e0       	ldi	r31, 0x01	; 1
     d8e:	ab ec       	ldi	r26, 0xCB	; 203
     d90:	b1 e0       	ldi	r27, 0x01	; 1
     d92:	01 90       	ld	r0, Z+
     d94:	0d 92       	st	X+, r0
     d96:	8a 95       	dec	r24
     d98:	e1 f7       	brne	.-8      	; 0xd92 <displayProtocol+0x296>
			ScreenBuf[1][0]='\0';
     d9a:	10 92 d7 01 	sts	0x01D7, r1	; 0x8001d7 <ScreenBuf+0x11>
		break;
	}
	Refresh=1;
     d9e:	81 e0       	ldi	r24, 0x01	; 1
     da0:	80 93 c5 01 	sts	0x01C5, r24	; 0x8001c5 <Refresh>
     da4:	df 91       	pop	r29
     da6:	cf 91       	pop	r28
     da8:	08 95       	ret

00000daa <i2c_init>:
	TWCR = (1<<TWINT) | (1<<TWEN) | (1<<TWEA);
	while(!(TWCR & (1<<TWINT)));    

    return TWDR;

}/* i2c_readAck */
     daa:	10 92 b9 00 	sts	0x00B9, r1	; 0x8000b9 <__TEXT_REGION_LENGTH__+0x7e00b9>
     dae:	8c e5       	ldi	r24, 0x5C	; 92
     db0:	80 93 b8 00 	sts	0x00B8, r24	; 0x8000b8 <__TEXT_REGION_LENGTH__+0x7e00b8>
     db4:	08 95       	ret

00000db6 <i2c_start>:
     db6:	94 ea       	ldi	r25, 0xA4	; 164
     db8:	90 93 bc 00 	sts	0x00BC, r25	; 0x8000bc <__TEXT_REGION_LENGTH__+0x7e00bc>
     dbc:	90 91 bc 00 	lds	r25, 0x00BC	; 0x8000bc <__TEXT_REGION_LENGTH__+0x7e00bc>
     dc0:	99 23       	and	r25, r25
     dc2:	e4 f7       	brge	.-8      	; 0xdbc <i2c_start+0x6>
     dc4:	90 91 b9 00 	lds	r25, 0x00B9	; 0x8000b9 <__TEXT_REGION_LENGTH__+0x7e00b9>
     dc8:	98 7f       	andi	r25, 0xF8	; 248
     dca:	98 30       	cpi	r25, 0x08	; 8
     dcc:	11 f0       	breq	.+4      	; 0xdd2 <i2c_start+0x1c>
     dce:	90 31       	cpi	r25, 0x10	; 16
     dd0:	91 f4       	brne	.+36     	; 0xdf6 <i2c_start+0x40>
     dd2:	80 93 bb 00 	sts	0x00BB, r24	; 0x8000bb <__TEXT_REGION_LENGTH__+0x7e00bb>
     dd6:	84 e8       	ldi	r24, 0x84	; 132
     dd8:	80 93 bc 00 	sts	0x00BC, r24	; 0x8000bc <__TEXT_REGION_LENGTH__+0x7e00bc>
     ddc:	80 91 bc 00 	lds	r24, 0x00BC	; 0x8000bc <__TEXT_REGION_LENGTH__+0x7e00bc>
     de0:	88 23       	and	r24, r24
     de2:	e4 f7       	brge	.-8      	; 0xddc <i2c_start+0x26>
     de4:	80 91 b9 00 	lds	r24, 0x00B9	; 0x8000b9 <__TEXT_REGION_LENGTH__+0x7e00b9>
     de8:	88 7f       	andi	r24, 0xF8	; 248
     dea:	88 31       	cpi	r24, 0x18	; 24
     dec:	31 f0       	breq	.+12     	; 0xdfa <i2c_start+0x44>
     dee:	80 34       	cpi	r24, 0x40	; 64
     df0:	31 f4       	brne	.+12     	; 0xdfe <i2c_start+0x48>
     df2:	80 e0       	ldi	r24, 0x00	; 0
     df4:	08 95       	ret
     df6:	81 e0       	ldi	r24, 0x01	; 1
     df8:	08 95       	ret
     dfa:	80 e0       	ldi	r24, 0x00	; 0
     dfc:	08 95       	ret
     dfe:	81 e0       	ldi	r24, 0x01	; 1
     e00:	08 95       	ret

00000e02 <i2c_stop>:
     e02:	84 e9       	ldi	r24, 0x94	; 148
     e04:	80 93 bc 00 	sts	0x00BC, r24	; 0x8000bc <__TEXT_REGION_LENGTH__+0x7e00bc>
     e08:	80 91 bc 00 	lds	r24, 0x00BC	; 0x8000bc <__TEXT_REGION_LENGTH__+0x7e00bc>
     e0c:	84 fd       	sbrc	r24, 4
     e0e:	fc cf       	rjmp	.-8      	; 0xe08 <i2c_stop+0x6>
     e10:	08 95       	ret

00000e12 <i2c_write>:
     e12:	80 93 bb 00 	sts	0x00BB, r24	; 0x8000bb <__TEXT_REGION_LENGTH__+0x7e00bb>
     e16:	84 e8       	ldi	r24, 0x84	; 132
     e18:	80 93 bc 00 	sts	0x00BC, r24	; 0x8000bc <__TEXT_REGION_LENGTH__+0x7e00bc>
     e1c:	80 91 bc 00 	lds	r24, 0x00BC	; 0x8000bc <__TEXT_REGION_LENGTH__+0x7e00bc>
     e20:	88 23       	and	r24, r24
     e22:	e4 f7       	brge	.-8      	; 0xe1c <i2c_write+0xa>
     e24:	80 91 b9 00 	lds	r24, 0x00B9	; 0x8000b9 <__TEXT_REGION_LENGTH__+0x7e00b9>
     e28:	88 7f       	andi	r24, 0xF8	; 248
     e2a:	88 32       	cpi	r24, 0x28	; 40
     e2c:	11 f0       	breq	.+4      	; 0xe32 <i2c_write+0x20>
     e2e:	81 e0       	ldi	r24, 0x01	; 1
     e30:	08 95       	ret
     e32:	80 e0       	ldi	r24, 0x00	; 0
     e34:	08 95       	ret

00000e36 <i2c_readNak>:
 
 Return:  byte read from I2C device
*************************************************************************/
unsigned char i2c_readNak(void)
{
	TWCR = (1<<TWINT) | (1<<TWEN);
     e36:	84 e8       	ldi	r24, 0x84	; 132
     e38:	80 93 bc 00 	sts	0x00BC, r24	; 0x8000bc <__TEXT_REGION_LENGTH__+0x7e00bc>
	while(!(TWCR & (1<<TWINT)));
     e3c:	80 91 bc 00 	lds	r24, 0x00BC	; 0x8000bc <__TEXT_REGION_LENGTH__+0x7e00bc>
     e40:	88 23       	and	r24, r24
     e42:	e4 f7       	brge	.-8      	; 0xe3c <i2c_readNak+0x6>
	
    return TWDR;
     e44:	80 91 bb 00 	lds	r24, 0x00BB	; 0x8000bb <__TEXT_REGION_LENGTH__+0x7e00bb>

}/* i2c_readNak */
     e48:	08 95       	ret

00000e4a <ir_timerRst>:
}

// enable/disable blinking of pin 13 on IR processing
void ir_blink13(int blinkflag)
{
  irparams.blinkflag = blinkflag;
     e4a:	16 bc       	out	0x26, r1	; 38
     e4c:	08 95       	ret

00000e4e <ir_timerCfgNorm>:
     e4e:	86 e0       	ldi	r24, 0x06	; 6
     e50:	87 bd       	out	0x27, r24	; 39
     e52:	82 e0       	ldi	r24, 0x02	; 2
     e54:	84 bd       	out	0x24, r24	; 36
     e56:	93 e0       	ldi	r25, 0x03	; 3
     e58:	95 bd       	out	0x25, r25	; 37
     e5a:	80 93 6e 00 	sts	0x006E, r24	; 0x80006e <__TEXT_REGION_LENGTH__+0x7e006e>
     e5e:	08 95       	ret

00000e60 <ir_timerCfgKhz>:
     e60:	10 92 6e 00 	sts	0x006E, r1	; 0x80006e <__TEXT_REGION_LENGTH__+0x7e006e>
     e64:	68 2f       	mov	r22, r24
     e66:	70 e0       	ldi	r23, 0x00	; 0
     e68:	80 e0       	ldi	r24, 0x00	; 0
     e6a:	90 e0       	ldi	r25, 0x00	; 0
     e6c:	0e 94 f9 15 	call	0x2bf2	; 0x2bf2 <__floatunsisf>
     e70:	9b 01       	movw	r18, r22
     e72:	ac 01       	movw	r20, r24
     e74:	60 e0       	ldi	r22, 0x00	; 0
     e76:	70 e0       	ldi	r23, 0x00	; 0
     e78:	8a e7       	ldi	r24, 0x7A	; 122
     e7a:	95 e4       	ldi	r25, 0x45	; 69
     e7c:	0e 94 60 15 	call	0x2ac0	; 0x2ac0 <__divsf3>
     e80:	0e 94 cd 15 	call	0x2b9a	; 0x2b9a <__fixunssfsi>
     e84:	67 bd       	out	0x27, r22	; 39
     e86:	82 e4       	ldi	r24, 0x42	; 66
     e88:	84 bd       	out	0x24, r24	; 36
     e8a:	81 e0       	ldi	r24, 0x01	; 1
     e8c:	85 bd       	out	0x25, r24	; 37
     e8e:	08 95       	ret

00000e90 <ir_delayMicroseconds>:
     e90:	9c 01       	movw	r18, r24
     e92:	e1 e8       	ldi	r30, 0x81	; 129
     e94:	f0 e0       	ldi	r31, 0x00	; 0
     e96:	10 82       	st	Z, r1
     e98:	10 92 85 00 	sts	0x0085, r1	; 0x800085 <__TEXT_REGION_LENGTH__+0x7e0085>
     e9c:	10 92 84 00 	sts	0x0084, r1	; 0x800084 <__TEXT_REGION_LENGTH__+0x7e0084>
     ea0:	96 b3       	in	r25, 0x16	; 22
     ea2:	92 60       	ori	r25, 0x02	; 2
     ea4:	96 bb       	out	0x16, r25	; 22
     ea6:	30 93 89 00 	sts	0x0089, r19	; 0x800089 <__TEXT_REGION_LENGTH__+0x7e0089>
     eaa:	20 93 88 00 	sts	0x0088, r18	; 0x800088 <__TEXT_REGION_LENGTH__+0x7e0088>
     eae:	10 92 80 00 	sts	0x0080, r1	; 0x800080 <__TEXT_REGION_LENGTH__+0x7e0080>
     eb2:	8a e0       	ldi	r24, 0x0A	; 10
     eb4:	80 83       	st	Z, r24
     eb6:	b1 9b       	sbis	0x16, 1	; 22
     eb8:	fe cf       	rjmp	.-4      	; 0xeb6 <ir_delayMicroseconds+0x26>
     eba:	08 95       	ret

00000ebc <ir_mark>:
     ebc:	24 b5       	in	r18, 0x24	; 36
     ebe:	20 64       	ori	r18, 0x40	; 64
     ec0:	24 bd       	out	0x24, r18	; 36
     ec2:	24 b5       	in	r18, 0x24	; 36
     ec4:	20 64       	ori	r18, 0x40	; 64
     ec6:	24 bd       	out	0x24, r18	; 36
     ec8:	24 b5       	in	r18, 0x24	; 36
     eca:	20 64       	ori	r18, 0x40	; 64
     ecc:	24 bd       	out	0x24, r18	; 36
     ece:	24 b5       	in	r18, 0x24	; 36
     ed0:	20 64       	ori	r18, 0x40	; 64
     ed2:	24 bd       	out	0x24, r18	; 36
     ed4:	dd cf       	rjmp	.-70     	; 0xe90 <ir_delayMicroseconds>
     ed6:	08 95       	ret

00000ed8 <ir_space>:
     ed8:	24 b5       	in	r18, 0x24	; 36
     eda:	2f 7b       	andi	r18, 0xBF	; 191
     edc:	24 bd       	out	0x24, r18	; 36
     ede:	d8 cf       	rjmp	.-80     	; 0xe90 <ir_delayMicroseconds>
     ee0:	08 95       	ret

00000ee2 <ir_enableIROut>:
     ee2:	9a b1       	in	r25, 0x0a	; 10
     ee4:	90 64       	ori	r25, 0x40	; 64
     ee6:	9a b9       	out	0x0a, r25	; 10
     ee8:	9b b1       	in	r25, 0x0b	; 11
     eea:	9f 7b       	andi	r25, 0xBF	; 191
     eec:	9b b9       	out	0x0b, r25	; 11
     eee:	b8 cf       	rjmp	.-144    	; 0xe60 <ir_timerCfgKhz>
     ef0:	08 95       	ret

00000ef2 <ir_compare>:
     ef2:	8f 92       	push	r8
     ef4:	9f 92       	push	r9
     ef6:	af 92       	push	r10
     ef8:	bf 92       	push	r11
     efa:	cf 92       	push	r12
     efc:	df 92       	push	r13
     efe:	ef 92       	push	r14
     f00:	ff 92       	push	r15
     f02:	cf 93       	push	r28
     f04:	df 93       	push	r29
     f06:	ec 01       	movw	r28, r24
     f08:	80 e0       	ldi	r24, 0x00	; 0
     f0a:	90 e0       	ldi	r25, 0x00	; 0
     f0c:	0e 94 f9 15 	call	0x2bf2	; 0x2bf2 <__floatunsisf>
     f10:	4b 01       	movw	r8, r22
     f12:	5c 01       	movw	r10, r24
     f14:	be 01       	movw	r22, r28
     f16:	80 e0       	ldi	r24, 0x00	; 0
     f18:	90 e0       	ldi	r25, 0x00	; 0
     f1a:	0e 94 f9 15 	call	0x2bf2	; 0x2bf2 <__floatunsisf>
     f1e:	6b 01       	movw	r12, r22
     f20:	7c 01       	movw	r14, r24
     f22:	2d ec       	ldi	r18, 0xCD	; 205
     f24:	3c ec       	ldi	r19, 0xCC	; 204
     f26:	4c e4       	ldi	r20, 0x4C	; 76
     f28:	5f e3       	ldi	r21, 0x3F	; 63
     f2a:	0e 94 ab 16 	call	0x2d56	; 0x2d56 <__mulsf3>
     f2e:	9b 01       	movw	r18, r22
     f30:	ac 01       	movw	r20, r24
     f32:	c5 01       	movw	r24, r10
     f34:	b4 01       	movw	r22, r8
     f36:	0e 94 5c 15 	call	0x2ab8	; 0x2ab8 <__cmpsf2>
     f3a:	88 23       	and	r24, r24
     f3c:	9c f0       	brlt	.+38     	; 0xf64 <ir_compare+0x72>
     f3e:	2d ec       	ldi	r18, 0xCD	; 205
     f40:	3c ec       	ldi	r19, 0xCC	; 204
     f42:	4c e4       	ldi	r20, 0x4C	; 76
     f44:	5f e3       	ldi	r21, 0x3F	; 63
     f46:	c5 01       	movw	r24, r10
     f48:	b4 01       	movw	r22, r8
     f4a:	0e 94 ab 16 	call	0x2d56	; 0x2d56 <__mulsf3>
     f4e:	9b 01       	movw	r18, r22
     f50:	ac 01       	movw	r20, r24
     f52:	c7 01       	movw	r24, r14
     f54:	b6 01       	movw	r22, r12
     f56:	0e 94 5c 15 	call	0x2ab8	; 0x2ab8 <__cmpsf2>
     f5a:	88 23       	and	r24, r24
     f5c:	34 f4       	brge	.+12     	; 0xf6a <ir_compare+0x78>
     f5e:	82 e0       	ldi	r24, 0x02	; 2
     f60:	90 e0       	ldi	r25, 0x00	; 0
     f62:	05 c0       	rjmp	.+10     	; 0xf6e <ir_compare+0x7c>
     f64:	80 e0       	ldi	r24, 0x00	; 0
     f66:	90 e0       	ldi	r25, 0x00	; 0
     f68:	02 c0       	rjmp	.+4      	; 0xf6e <ir_compare+0x7c>
     f6a:	81 e0       	ldi	r24, 0x01	; 1
     f6c:	90 e0       	ldi	r25, 0x00	; 0
     f6e:	df 91       	pop	r29
     f70:	cf 91       	pop	r28
     f72:	ff 90       	pop	r15
     f74:	ef 90       	pop	r14
     f76:	df 90       	pop	r13
     f78:	cf 90       	pop	r12
     f7a:	bf 90       	pop	r11
     f7c:	af 90       	pop	r10
     f7e:	9f 90       	pop	r9
     f80:	8f 90       	pop	r8
     f82:	08 95       	ret

00000f84 <ir_decodeHash>:
     f84:	af 92       	push	r10
     f86:	bf 92       	push	r11
     f88:	cf 92       	push	r12
     f8a:	df 92       	push	r13
     f8c:	ef 92       	push	r14
     f8e:	ff 92       	push	r15
     f90:	0f 93       	push	r16
     f92:	1f 93       	push	r17
     f94:	cf 93       	push	r28
     f96:	df 93       	push	r29
     f98:	fc 01       	movw	r30, r24
     f9a:	a4 84       	ldd	r10, Z+12	; 0x0c
     f9c:	b5 84       	ldd	r11, Z+13	; 0x0d
     f9e:	f6 e0       	ldi	r31, 0x06	; 6
     fa0:	af 16       	cp	r10, r31
     fa2:	b1 04       	cpc	r11, r1
     fa4:	0c f4       	brge	.+2      	; 0xfa8 <ir_decodeHash+0x24>
     fa6:	49 c0       	rjmp	.+146    	; 0x103a <ir_decodeHash+0xb6>
     fa8:	ec 01       	movw	r28, r24
     faa:	01 e0       	ldi	r16, 0x01	; 1
     fac:	10 e0       	ldi	r17, 0x00	; 0
     fae:	0f 2e       	mov	r0, r31
     fb0:	f5 ec       	ldi	r31, 0xC5	; 197
     fb2:	cf 2e       	mov	r12, r31
     fb4:	fd e9       	ldi	r31, 0x9D	; 157
     fb6:	df 2e       	mov	r13, r31
     fb8:	fc e1       	ldi	r31, 0x1C	; 28
     fba:	ef 2e       	mov	r14, r31
     fbc:	f1 e8       	ldi	r31, 0x81	; 129
     fbe:	ff 2e       	mov	r15, r31
     fc0:	f0 2d       	mov	r31, r0
     fc2:	25 c0       	rjmp	.+74     	; 0x100e <ir_decodeHash+0x8a>
     fc4:	8a 85       	ldd	r24, Y+10	; 0x0a
     fc6:	9b 85       	ldd	r25, Y+11	; 0x0b
     fc8:	f8 01       	movw	r30, r16
     fca:	32 96       	adiw	r30, 0x02	; 2
     fcc:	ee 0f       	add	r30, r30
     fce:	ff 1f       	adc	r31, r31
     fd0:	e8 0f       	add	r30, r24
     fd2:	f9 1f       	adc	r31, r25
     fd4:	60 81       	ld	r22, Z
     fd6:	71 81       	ldd	r23, Z+1	; 0x01
     fd8:	f8 01       	movw	r30, r16
     fda:	ee 0f       	add	r30, r30
     fdc:	ff 1f       	adc	r31, r31
     fde:	e8 0f       	add	r30, r24
     fe0:	f9 1f       	adc	r31, r25
     fe2:	80 81       	ld	r24, Z
     fe4:	91 81       	ldd	r25, Z+1	; 0x01
     fe6:	85 df       	rcall	.-246    	; 0xef2 <ir_compare>
     fe8:	fc 01       	movw	r30, r24
     fea:	a7 01       	movw	r20, r14
     fec:	96 01       	movw	r18, r12
     fee:	63 e9       	ldi	r22, 0x93	; 147
     ff0:	71 e0       	ldi	r23, 0x01	; 1
     ff2:	80 e0       	ldi	r24, 0x00	; 0
     ff4:	91 e0       	ldi	r25, 0x01	; 1
     ff6:	0e 94 0e 17 	call	0x2e1c	; 0x2e1c <__mulsi3>
     ffa:	6f 01       	movw	r12, r30
     ffc:	ff 0f       	add	r31, r31
     ffe:	ee 08       	sbc	r14, r14
    1000:	ff 08       	sbc	r15, r15
    1002:	c6 26       	eor	r12, r22
    1004:	d7 26       	eor	r13, r23
    1006:	e8 26       	eor	r14, r24
    1008:	f9 26       	eor	r15, r25
    100a:	0f 5f       	subi	r16, 0xFF	; 255
    100c:	1f 4f       	sbci	r17, 0xFF	; 255
    100e:	c8 01       	movw	r24, r16
    1010:	02 96       	adiw	r24, 0x02	; 2
    1012:	8a 15       	cp	r24, r10
    1014:	9b 05       	cpc	r25, r11
    1016:	b4 f2       	brlt	.-84     	; 0xfc4 <ir_decodeHash+0x40>
    1018:	cc 82       	std	Y+4, r12	; 0x04
    101a:	dd 82       	std	Y+5, r13	; 0x05
    101c:	ee 82       	std	Y+6, r14	; 0x06
    101e:	ff 82       	std	Y+7, r15	; 0x07
    1020:	80 e2       	ldi	r24, 0x20	; 32
    1022:	90 e0       	ldi	r25, 0x00	; 0
    1024:	99 87       	std	Y+9, r25	; 0x09
    1026:	88 87       	std	Y+8, r24	; 0x08
    1028:	8f ef       	ldi	r24, 0xFF	; 255
    102a:	9f ef       	ldi	r25, 0xFF	; 255
    102c:	99 83       	std	Y+1, r25	; 0x01
    102e:	88 83       	st	Y, r24
    1030:	61 e0       	ldi	r22, 0x01	; 1
    1032:	70 e0       	ldi	r23, 0x00	; 0
    1034:	80 e0       	ldi	r24, 0x00	; 0
    1036:	90 e0       	ldi	r25, 0x00	; 0
    1038:	03 c0       	rjmp	.+6      	; 0x1040 <ir_decodeHash+0xbc>
    103a:	60 e0       	ldi	r22, 0x00	; 0
    103c:	70 e0       	ldi	r23, 0x00	; 0
    103e:	cb 01       	movw	r24, r22
    1040:	df 91       	pop	r29
    1042:	cf 91       	pop	r28
    1044:	1f 91       	pop	r17
    1046:	0f 91       	pop	r16
    1048:	ff 90       	pop	r15
    104a:	ef 90       	pop	r14
    104c:	df 90       	pop	r13
    104e:	cf 90       	pop	r12
    1050:	bf 90       	pop	r11
    1052:	af 90       	pop	r10
    1054:	08 95       	ret

00001056 <MATCH>:
    1056:	cf 92       	push	r12
    1058:	df 92       	push	r13
    105a:	ef 92       	push	r14
    105c:	ff 92       	push	r15
    105e:	cf 93       	push	r28
    1060:	df 93       	push	r29
    1062:	ec 01       	movw	r28, r24
    1064:	07 2e       	mov	r0, r23
    1066:	00 0c       	add	r0, r0
    1068:	88 0b       	sbc	r24, r24
    106a:	99 0b       	sbc	r25, r25
    106c:	0e 94 fb 15 	call	0x2bf6	; 0x2bf6 <__floatsisf>
    1070:	6b 01       	movw	r12, r22
    1072:	7c 01       	movw	r14, r24
    1074:	20 e0       	ldi	r18, 0x00	; 0
    1076:	30 e0       	ldi	r19, 0x00	; 0
    1078:	40 e4       	ldi	r20, 0x40	; 64
    107a:	5f e3       	ldi	r21, 0x3F	; 63
    107c:	0e 94 ab 16 	call	0x2d56	; 0x2d56 <__mulsf3>
    1080:	20 e0       	ldi	r18, 0x00	; 0
    1082:	30 e0       	ldi	r19, 0x00	; 0
    1084:	48 e4       	ldi	r20, 0x48	; 72
    1086:	52 e4       	ldi	r21, 0x42	; 66
    1088:	0e 94 60 15 	call	0x2ac0	; 0x2ac0 <__divsf3>
    108c:	0e 94 c8 15 	call	0x2b90	; 0x2b90 <__fixsfsi>
    1090:	c6 17       	cp	r28, r22
    1092:	d7 07       	cpc	r29, r23
    1094:	e4 f0       	brlt	.+56     	; 0x10ce <MATCH+0x78>
    1096:	20 e0       	ldi	r18, 0x00	; 0
    1098:	30 e0       	ldi	r19, 0x00	; 0
    109a:	40 ea       	ldi	r20, 0xA0	; 160
    109c:	5f e3       	ldi	r21, 0x3F	; 63
    109e:	c7 01       	movw	r24, r14
    10a0:	b6 01       	movw	r22, r12
    10a2:	0e 94 ab 16 	call	0x2d56	; 0x2d56 <__mulsf3>
    10a6:	20 e0       	ldi	r18, 0x00	; 0
    10a8:	30 e0       	ldi	r19, 0x00	; 0
    10aa:	48 e4       	ldi	r20, 0x48	; 72
    10ac:	52 e4       	ldi	r21, 0x42	; 66
    10ae:	0e 94 60 15 	call	0x2ac0	; 0x2ac0 <__divsf3>
    10b2:	20 e0       	ldi	r18, 0x00	; 0
    10b4:	30 e0       	ldi	r19, 0x00	; 0
    10b6:	40 e8       	ldi	r20, 0x80	; 128
    10b8:	5f e3       	ldi	r21, 0x3F	; 63
    10ba:	0e 94 f8 14 	call	0x29f0	; 0x29f0 <__addsf3>
    10be:	0e 94 c8 15 	call	0x2b90	; 0x2b90 <__fixsfsi>
    10c2:	6c 17       	cp	r22, r28
    10c4:	7d 07       	cpc	r23, r29
    10c6:	34 f4       	brge	.+12     	; 0x10d4 <MATCH+0x7e>
    10c8:	80 e0       	ldi	r24, 0x00	; 0
    10ca:	90 e0       	ldi	r25, 0x00	; 0
    10cc:	05 c0       	rjmp	.+10     	; 0x10d8 <MATCH+0x82>
    10ce:	80 e0       	ldi	r24, 0x00	; 0
    10d0:	90 e0       	ldi	r25, 0x00	; 0
    10d2:	02 c0       	rjmp	.+4      	; 0x10d8 <MATCH+0x82>
    10d4:	81 e0       	ldi	r24, 0x01	; 1
    10d6:	90 e0       	ldi	r25, 0x00	; 0
    10d8:	df 91       	pop	r29
    10da:	cf 91       	pop	r28
    10dc:	ff 90       	pop	r15
    10de:	ef 90       	pop	r14
    10e0:	df 90       	pop	r13
    10e2:	cf 90       	pop	r12
    10e4:	08 95       	ret

000010e6 <ir_getRClevel>:
    10e6:	af 92       	push	r10
    10e8:	bf 92       	push	r11
    10ea:	cf 92       	push	r12
    10ec:	df 92       	push	r13
    10ee:	ef 92       	push	r14
    10f0:	ff 92       	push	r15
    10f2:	0f 93       	push	r16
    10f4:	1f 93       	push	r17
    10f6:	cf 93       	push	r28
    10f8:	df 93       	push	r29
    10fa:	db 01       	movw	r26, r22
    10fc:	ed 91       	ld	r30, X+
    10fe:	fc 91       	ld	r31, X
    1100:	ec 01       	movw	r28, r24
    1102:	ac 85       	ldd	r26, Y+12	; 0x0c
    1104:	bd 85       	ldd	r27, Y+13	; 0x0d
    1106:	ea 17       	cp	r30, r26
    1108:	fb 07       	cpc	r31, r27
    110a:	0c f0       	brlt	.+2      	; 0x110e <ir_getRClevel+0x28>
    110c:	41 c0       	rjmp	.+130    	; 0x1190 <ir_getRClevel+0xaa>
    110e:	aa 85       	ldd	r26, Y+10	; 0x0a
    1110:	bb 85       	ldd	r27, Y+11	; 0x0b
    1112:	cf 01       	movw	r24, r30
    1114:	88 0f       	add	r24, r24
    1116:	99 1f       	adc	r25, r25
    1118:	a8 0f       	add	r26, r24
    111a:	b9 1f       	adc	r27, r25
    111c:	ad 90       	ld	r10, X+
    111e:	bc 90       	ld	r11, X
    1120:	81 e0       	ldi	r24, 0x01	; 1
    1122:	e0 ff       	sbrs	r30, 0
    1124:	80 e0       	ldi	r24, 0x00	; 0
    1126:	79 01       	movw	r14, r18
    1128:	8a 01       	movw	r16, r20
    112a:	eb 01       	movw	r28, r22
    112c:	c8 2e       	mov	r12, r24
    112e:	d1 2c       	mov	r13, r1
    1130:	b9 01       	movw	r22, r18
    1132:	c5 01       	movw	r24, r10
    1134:	90 df       	rcall	.-224    	; 0x1056 <MATCH>
    1136:	89 2b       	or	r24, r25
    1138:	99 f4       	brne	.+38     	; 0x1160 <ir_getRClevel+0x7a>
    113a:	b7 01       	movw	r22, r14
    113c:	66 0f       	add	r22, r22
    113e:	77 1f       	adc	r23, r23
    1140:	c5 01       	movw	r24, r10
    1142:	89 df       	rcall	.-238    	; 0x1056 <MATCH>
    1144:	89 2b       	or	r24, r25
    1146:	79 f4       	brne	.+30     	; 0x1166 <ir_getRClevel+0x80>
    1148:	b7 01       	movw	r22, r14
    114a:	66 0f       	add	r22, r22
    114c:	77 1f       	adc	r23, r23
    114e:	6e 0d       	add	r22, r14
    1150:	7f 1d       	adc	r23, r15
    1152:	c5 01       	movw	r24, r10
    1154:	80 df       	rcall	.-256    	; 0x1056 <MATCH>
    1156:	89 2b       	or	r24, r25
    1158:	f1 f0       	breq	.+60     	; 0x1196 <ir_getRClevel+0xb0>
    115a:	23 e0       	ldi	r18, 0x03	; 3
    115c:	30 e0       	ldi	r19, 0x00	; 0
    115e:	05 c0       	rjmp	.+10     	; 0x116a <ir_getRClevel+0x84>
    1160:	21 e0       	ldi	r18, 0x01	; 1
    1162:	30 e0       	ldi	r19, 0x00	; 0
    1164:	02 c0       	rjmp	.+4      	; 0x116a <ir_getRClevel+0x84>
    1166:	22 e0       	ldi	r18, 0x02	; 2
    1168:	30 e0       	ldi	r19, 0x00	; 0
    116a:	f8 01       	movw	r30, r16
    116c:	80 81       	ld	r24, Z
    116e:	91 81       	ldd	r25, Z+1	; 0x01
    1170:	01 96       	adiw	r24, 0x01	; 1
    1172:	91 83       	std	Z+1, r25	; 0x01
    1174:	80 83       	st	Z, r24
    1176:	82 17       	cp	r24, r18
    1178:	93 07       	cpc	r25, r19
    117a:	84 f0       	brlt	.+32     	; 0x119c <ir_getRClevel+0xb6>
    117c:	11 82       	std	Z+1, r1	; 0x01
    117e:	10 82       	st	Z, r1
    1180:	88 81       	ld	r24, Y
    1182:	99 81       	ldd	r25, Y+1	; 0x01
    1184:	01 96       	adiw	r24, 0x01	; 1
    1186:	99 83       	std	Y+1, r25	; 0x01
    1188:	88 83       	st	Y, r24
    118a:	8c 2d       	mov	r24, r12
    118c:	9d 2d       	mov	r25, r13
    118e:	08 c0       	rjmp	.+16     	; 0x11a0 <ir_getRClevel+0xba>
    1190:	80 e0       	ldi	r24, 0x00	; 0
    1192:	90 e0       	ldi	r25, 0x00	; 0
    1194:	05 c0       	rjmp	.+10     	; 0x11a0 <ir_getRClevel+0xba>
    1196:	8f ef       	ldi	r24, 0xFF	; 255
    1198:	9f ef       	ldi	r25, 0xFF	; 255
    119a:	02 c0       	rjmp	.+4      	; 0x11a0 <ir_getRClevel+0xba>
    119c:	8c 2d       	mov	r24, r12
    119e:	9d 2d       	mov	r25, r13
    11a0:	df 91       	pop	r29
    11a2:	cf 91       	pop	r28
    11a4:	1f 91       	pop	r17
    11a6:	0f 91       	pop	r16
    11a8:	ff 90       	pop	r15
    11aa:	ef 90       	pop	r14
    11ac:	df 90       	pop	r13
    11ae:	cf 90       	pop	r12
    11b0:	bf 90       	pop	r11
    11b2:	af 90       	pop	r10
    11b4:	08 95       	ret

000011b6 <ir_decodeRC5>:
    11b6:	8f 92       	push	r8
    11b8:	9f 92       	push	r9
    11ba:	af 92       	push	r10
    11bc:	bf 92       	push	r11
    11be:	cf 92       	push	r12
    11c0:	df 92       	push	r13
    11c2:	ef 92       	push	r14
    11c4:	ff 92       	push	r15
    11c6:	0f 93       	push	r16
    11c8:	1f 93       	push	r17
    11ca:	cf 93       	push	r28
    11cc:	df 93       	push	r29
    11ce:	00 d0       	rcall	.+0      	; 0x11d0 <ir_decodeRC5+0x1a>
    11d0:	00 d0       	rcall	.+0      	; 0x11d2 <ir_decodeRC5+0x1c>
    11d2:	cd b7       	in	r28, 0x3d	; 61
    11d4:	de b7       	in	r29, 0x3e	; 62
    11d6:	21 e0       	ldi	r18, 0x01	; 1
    11d8:	30 e0       	ldi	r19, 0x00	; 0
    11da:	3a 83       	std	Y+2, r19	; 0x02
    11dc:	29 83       	std	Y+1, r18	; 0x01
    11de:	1c 82       	std	Y+4, r1	; 0x04
    11e0:	1b 82       	std	Y+3, r1	; 0x03
    11e2:	20 91 b9 02 	lds	r18, 0x02B9	; 0x8002b9 <irparams+0xcc>
    11e6:	30 91 ba 02 	lds	r19, 0x02BA	; 0x8002ba <irparams+0xcd>
    11ea:	2d 30       	cpi	r18, 0x0D	; 13
    11ec:	31 05       	cpc	r19, r1
    11ee:	08 f4       	brcc	.+2      	; 0x11f2 <ir_decodeRC5+0x3c>
    11f0:	74 c0       	rjmp	.+232    	; 0x12da <ir_decodeRC5+0x124>
    11f2:	8c 01       	movw	r16, r24
    11f4:	29 e7       	ldi	r18, 0x79	; 121
    11f6:	33 e0       	ldi	r19, 0x03	; 3
    11f8:	ae 01       	movw	r20, r28
    11fa:	4d 5f       	subi	r20, 0xFD	; 253
    11fc:	5f 4f       	sbci	r21, 0xFF	; 255
    11fe:	be 01       	movw	r22, r28
    1200:	6f 5f       	subi	r22, 0xFF	; 255
    1202:	7f 4f       	sbci	r23, 0xFF	; 255
    1204:	70 df       	rcall	.-288    	; 0x10e6 <ir_getRClevel>
    1206:	01 97       	sbiw	r24, 0x01	; 1
    1208:	09 f0       	breq	.+2      	; 0x120c <ir_decodeRC5+0x56>
    120a:	6b c0       	rjmp	.+214    	; 0x12e2 <ir_decodeRC5+0x12c>
    120c:	29 e7       	ldi	r18, 0x79	; 121
    120e:	33 e0       	ldi	r19, 0x03	; 3
    1210:	ae 01       	movw	r20, r28
    1212:	4d 5f       	subi	r20, 0xFD	; 253
    1214:	5f 4f       	sbci	r21, 0xFF	; 255
    1216:	be 01       	movw	r22, r28
    1218:	6f 5f       	subi	r22, 0xFF	; 255
    121a:	7f 4f       	sbci	r23, 0xFF	; 255
    121c:	c8 01       	movw	r24, r16
    121e:	63 df       	rcall	.-314    	; 0x10e6 <ir_getRClevel>
    1220:	89 2b       	or	r24, r25
    1222:	09 f0       	breq	.+2      	; 0x1226 <ir_decodeRC5+0x70>
    1224:	62 c0       	rjmp	.+196    	; 0x12ea <ir_decodeRC5+0x134>
    1226:	29 e7       	ldi	r18, 0x79	; 121
    1228:	33 e0       	ldi	r19, 0x03	; 3
    122a:	ae 01       	movw	r20, r28
    122c:	4d 5f       	subi	r20, 0xFD	; 253
    122e:	5f 4f       	sbci	r21, 0xFF	; 255
    1230:	be 01       	movw	r22, r28
    1232:	6f 5f       	subi	r22, 0xFF	; 255
    1234:	7f 4f       	sbci	r23, 0xFF	; 255
    1236:	c8 01       	movw	r24, r16
    1238:	56 df       	rcall	.-340    	; 0x10e6 <ir_getRClevel>
    123a:	01 97       	sbiw	r24, 0x01	; 1
    123c:	09 f0       	breq	.+2      	; 0x1240 <ir_decodeRC5+0x8a>
    123e:	59 c0       	rjmp	.+178    	; 0x12f2 <ir_decodeRC5+0x13c>
    1240:	c1 2c       	mov	r12, r1
    1242:	d1 2c       	mov	r13, r1
    1244:	81 2c       	mov	r8, r1
    1246:	91 2c       	mov	r9, r1
    1248:	54 01       	movw	r10, r8
    124a:	2e c0       	rjmp	.+92     	; 0x12a8 <ir_decodeRC5+0xf2>
    124c:	29 e7       	ldi	r18, 0x79	; 121
    124e:	33 e0       	ldi	r19, 0x03	; 3
    1250:	ae 01       	movw	r20, r28
    1252:	4d 5f       	subi	r20, 0xFD	; 253
    1254:	5f 4f       	sbci	r21, 0xFF	; 255
    1256:	be 01       	movw	r22, r28
    1258:	6f 5f       	subi	r22, 0xFF	; 255
    125a:	7f 4f       	sbci	r23, 0xFF	; 255
    125c:	c8 01       	movw	r24, r16
    125e:	43 df       	rcall	.-378    	; 0x10e6 <ir_getRClevel>
    1260:	7c 01       	movw	r14, r24
    1262:	29 e7       	ldi	r18, 0x79	; 121
    1264:	33 e0       	ldi	r19, 0x03	; 3
    1266:	ae 01       	movw	r20, r28
    1268:	4d 5f       	subi	r20, 0xFD	; 253
    126a:	5f 4f       	sbci	r21, 0xFF	; 255
    126c:	be 01       	movw	r22, r28
    126e:	6f 5f       	subi	r22, 0xFF	; 255
    1270:	7f 4f       	sbci	r23, 0xFF	; 255
    1272:	c8 01       	movw	r24, r16
    1274:	38 df       	rcall	.-400    	; 0x10e6 <ir_getRClevel>
    1276:	e1 14       	cp	r14, r1
    1278:	f1 04       	cpc	r15, r1
    127a:	51 f4       	brne	.+20     	; 0x1290 <ir_decodeRC5+0xda>
    127c:	81 30       	cpi	r24, 0x01	; 1
    127e:	91 05       	cpc	r25, r1
    1280:	39 f4       	brne	.+14     	; 0x1290 <ir_decodeRC5+0xda>
    1282:	88 0c       	add	r8, r8
    1284:	99 1c       	adc	r9, r9
    1286:	aa 1c       	adc	r10, r10
    1288:	bb 1c       	adc	r11, r11
    128a:	68 94       	set
    128c:	80 f8       	bld	r8, 0
    128e:	09 c0       	rjmp	.+18     	; 0x12a2 <ir_decodeRC5+0xec>
    1290:	ea 94       	dec	r14
    1292:	ef 28       	or	r14, r15
    1294:	91 f5       	brne	.+100    	; 0x12fa <ir_decodeRC5+0x144>
    1296:	89 2b       	or	r24, r25
    1298:	a1 f5       	brne	.+104    	; 0x1302 <ir_decodeRC5+0x14c>
    129a:	88 0c       	add	r8, r8
    129c:	99 1c       	adc	r9, r9
    129e:	aa 1c       	adc	r10, r10
    12a0:	bb 1c       	adc	r11, r11
    12a2:	8f ef       	ldi	r24, 0xFF	; 255
    12a4:	c8 1a       	sub	r12, r24
    12a6:	d8 0a       	sbc	r13, r24
    12a8:	20 91 b9 02 	lds	r18, 0x02B9	; 0x8002b9 <irparams+0xcc>
    12ac:	30 91 ba 02 	lds	r19, 0x02BA	; 0x8002ba <irparams+0xcd>
    12b0:	89 81       	ldd	r24, Y+1	; 0x01
    12b2:	9a 81       	ldd	r25, Y+2	; 0x02
    12b4:	82 17       	cp	r24, r18
    12b6:	93 07       	cpc	r25, r19
    12b8:	48 f2       	brcs	.-110    	; 0x124c <ir_decodeRC5+0x96>
    12ba:	f8 01       	movw	r30, r16
    12bc:	d1 86       	std	Z+9, r13	; 0x09
    12be:	c0 86       	std	Z+8, r12	; 0x08
    12c0:	84 82       	std	Z+4, r8	; 0x04
    12c2:	95 82       	std	Z+5, r9	; 0x05
    12c4:	a6 82       	std	Z+6, r10	; 0x06
    12c6:	b7 82       	std	Z+7, r11	; 0x07
    12c8:	83 e0       	ldi	r24, 0x03	; 3
    12ca:	90 e0       	ldi	r25, 0x00	; 0
    12cc:	91 83       	std	Z+1, r25	; 0x01
    12ce:	80 83       	st	Z, r24
    12d0:	61 e0       	ldi	r22, 0x01	; 1
    12d2:	70 e0       	ldi	r23, 0x00	; 0
    12d4:	80 e0       	ldi	r24, 0x00	; 0
    12d6:	90 e0       	ldi	r25, 0x00	; 0
    12d8:	17 c0       	rjmp	.+46     	; 0x1308 <ir_decodeRC5+0x152>
    12da:	60 e0       	ldi	r22, 0x00	; 0
    12dc:	70 e0       	ldi	r23, 0x00	; 0
    12de:	cb 01       	movw	r24, r22
    12e0:	13 c0       	rjmp	.+38     	; 0x1308 <ir_decodeRC5+0x152>
    12e2:	60 e0       	ldi	r22, 0x00	; 0
    12e4:	70 e0       	ldi	r23, 0x00	; 0
    12e6:	cb 01       	movw	r24, r22
    12e8:	0f c0       	rjmp	.+30     	; 0x1308 <ir_decodeRC5+0x152>
    12ea:	60 e0       	ldi	r22, 0x00	; 0
    12ec:	70 e0       	ldi	r23, 0x00	; 0
    12ee:	cb 01       	movw	r24, r22
    12f0:	0b c0       	rjmp	.+22     	; 0x1308 <ir_decodeRC5+0x152>
    12f2:	60 e0       	ldi	r22, 0x00	; 0
    12f4:	70 e0       	ldi	r23, 0x00	; 0
    12f6:	cb 01       	movw	r24, r22
    12f8:	07 c0       	rjmp	.+14     	; 0x1308 <ir_decodeRC5+0x152>
    12fa:	60 e0       	ldi	r22, 0x00	; 0
    12fc:	70 e0       	ldi	r23, 0x00	; 0
    12fe:	cb 01       	movw	r24, r22
    1300:	03 c0       	rjmp	.+6      	; 0x1308 <ir_decodeRC5+0x152>
    1302:	60 e0       	ldi	r22, 0x00	; 0
    1304:	70 e0       	ldi	r23, 0x00	; 0
    1306:	cb 01       	movw	r24, r22
    1308:	0f 90       	pop	r0
    130a:	0f 90       	pop	r0
    130c:	0f 90       	pop	r0
    130e:	0f 90       	pop	r0
    1310:	df 91       	pop	r29
    1312:	cf 91       	pop	r28
    1314:	1f 91       	pop	r17
    1316:	0f 91       	pop	r16
    1318:	ff 90       	pop	r15
    131a:	ef 90       	pop	r14
    131c:	df 90       	pop	r13
    131e:	cf 90       	pop	r12
    1320:	bf 90       	pop	r11
    1322:	af 90       	pop	r10
    1324:	9f 90       	pop	r9
    1326:	8f 90       	pop	r8
    1328:	08 95       	ret

0000132a <MATCH_MARK>:
    132a:	95 ce       	rjmp	.-726    	; 0x1056 <MATCH>
    132c:	08 95       	ret

0000132e <MATCH_SPACE>:
    132e:	93 ce       	rjmp	.-730    	; 0x1056 <MATCH>
    1330:	08 95       	ret

00001332 <ir_decodeSigma>:
    1332:	6f 92       	push	r6
    1334:	7f 92       	push	r7
    1336:	8f 92       	push	r8
    1338:	9f 92       	push	r9
    133a:	af 92       	push	r10
    133c:	bf 92       	push	r11
    133e:	cf 92       	push	r12
    1340:	df 92       	push	r13
    1342:	ef 92       	push	r14
    1344:	ff 92       	push	r15
    1346:	0f 93       	push	r16
    1348:	1f 93       	push	r17
    134a:	cf 93       	push	r28
    134c:	df 93       	push	r29
    134e:	3c 01       	movw	r6, r24
    1350:	fc 01       	movw	r30, r24
    1352:	c2 84       	ldd	r12, Z+10	; 0x0a
    1354:	d3 84       	ldd	r13, Z+11	; 0x0b
    1356:	f6 01       	movw	r30, r12
    1358:	82 81       	ldd	r24, Z+2	; 0x02
    135a:	93 81       	ldd	r25, Z+3	; 0x03
    135c:	68 ef       	ldi	r22, 0xF8	; 248
    135e:	70 e2       	ldi	r23, 0x20	; 32
    1360:	e4 df       	rcall	.-56     	; 0x132a <MATCH_MARK>
    1362:	89 2b       	or	r24, r25
    1364:	09 f4       	brne	.+2      	; 0x1368 <ir_decodeSigma+0x36>
    1366:	8f c0       	rjmp	.+286    	; 0x1486 <ir_decodeSigma+0x154>
    1368:	80 91 b9 02 	lds	r24, 0x02B9	; 0x8002b9 <irparams+0xcc>
    136c:	90 91 ba 02 	lds	r25, 0x02BA	; 0x8002ba <irparams+0xcd>
    1370:	86 97       	sbiw	r24, 0x26	; 38
    1372:	08 f4       	brcc	.+2      	; 0x1376 <ir_decodeSigma+0x44>
    1374:	8c c0       	rjmp	.+280    	; 0x148e <ir_decodeSigma+0x15c>
    1376:	f6 01       	movw	r30, r12
    1378:	84 81       	ldd	r24, Z+4	; 0x04
    137a:	95 81       	ldd	r25, Z+5	; 0x05
    137c:	60 e9       	ldi	r22, 0x90	; 144
    137e:	70 e1       	ldi	r23, 0x10	; 16
    1380:	d6 df       	rcall	.-84     	; 0x132e <MATCH_SPACE>
    1382:	89 2b       	or	r24, r25
    1384:	09 f4       	brne	.+2      	; 0x1388 <ir_decodeSigma+0x56>
    1386:	87 c0       	rjmp	.+270    	; 0x1496 <ir_decodeSigma+0x164>
    1388:	03 e0       	ldi	r16, 0x03	; 3
    138a:	10 e0       	ldi	r17, 0x00	; 0
    138c:	81 2c       	mov	r8, r1
    138e:	91 2c       	mov	r9, r1
    1390:	54 01       	movw	r10, r8
    1392:	e1 2c       	mov	r14, r1
    1394:	f1 2c       	mov	r15, r1
    1396:	54 c0       	rjmp	.+168    	; 0x1440 <ir_decodeSigma+0x10e>
    1398:	f8 01       	movw	r30, r16
    139a:	ee 0f       	add	r30, r30
    139c:	ff 1f       	adc	r31, r31
    139e:	ec 0d       	add	r30, r12
    13a0:	fd 1d       	adc	r31, r13
    13a2:	80 81       	ld	r24, Z
    13a4:	91 81       	ldd	r25, Z+1	; 0x01
    13a6:	68 e0       	ldi	r22, 0x08	; 8
    13a8:	72 e0       	ldi	r23, 0x02	; 2
    13aa:	bf df       	rcall	.-130    	; 0x132a <MATCH_MARK>
    13ac:	89 2b       	or	r24, r25
    13ae:	09 f4       	brne	.+2      	; 0x13b2 <ir_decodeSigma+0x80>
    13b0:	76 c0       	rjmp	.+236    	; 0x149e <ir_decodeSigma+0x16c>
    13b2:	e8 01       	movw	r28, r16
    13b4:	21 96       	adiw	r28, 0x01	; 1
    13b6:	cc 0f       	add	r28, r28
    13b8:	dd 1f       	adc	r29, r29
    13ba:	cc 0d       	add	r28, r12
    13bc:	dd 1d       	adc	r29, r13
    13be:	88 81       	ld	r24, Y
    13c0:	99 81       	ldd	r25, Y+1	; 0x01
    13c2:	60 e4       	ldi	r22, 0x40	; 64
    13c4:	76 e0       	ldi	r23, 0x06	; 6
    13c6:	b3 df       	rcall	.-154    	; 0x132e <MATCH_SPACE>
    13c8:	89 2b       	or	r24, r25
    13ca:	39 f0       	breq	.+14     	; 0x13da <ir_decodeSigma+0xa8>
    13cc:	88 0c       	add	r8, r8
    13ce:	99 1c       	adc	r9, r9
    13d0:	aa 1c       	adc	r10, r10
    13d2:	bb 1c       	adc	r11, r11
    13d4:	68 94       	set
    13d6:	80 f8       	bld	r8, 0
    13d8:	0c c0       	rjmp	.+24     	; 0x13f2 <ir_decodeSigma+0xc0>
    13da:	88 81       	ld	r24, Y
    13dc:	99 81       	ldd	r25, Y+1	; 0x01
    13de:	68 e0       	ldi	r22, 0x08	; 8
    13e0:	72 e0       	ldi	r23, 0x02	; 2
    13e2:	a5 df       	rcall	.-182    	; 0x132e <MATCH_SPACE>
    13e4:	89 2b       	or	r24, r25
    13e6:	09 f4       	brne	.+2      	; 0x13ea <ir_decodeSigma+0xb8>
    13e8:	5e c0       	rjmp	.+188    	; 0x14a6 <ir_decodeSigma+0x174>
    13ea:	88 0c       	add	r8, r8
    13ec:	99 1c       	adc	r9, r9
    13ee:	aa 1c       	adc	r10, r10
    13f0:	bb 1c       	adc	r11, r11
    13f2:	c8 01       	movw	r24, r16
    13f4:	02 96       	adiw	r24, 0x02	; 2
    13f6:	f7 e0       	ldi	r31, 0x07	; 7
    13f8:	ef 16       	cp	r14, r31
    13fa:	f1 04       	cpc	r15, r1
    13fc:	e9 f4       	brne	.+58     	; 0x1438 <ir_decodeSigma+0x106>
    13fe:	88 0f       	add	r24, r24
    1400:	99 1f       	adc	r25, r25
    1402:	f6 01       	movw	r30, r12
    1404:	e8 0f       	add	r30, r24
    1406:	f9 1f       	adc	r31, r25
    1408:	80 81       	ld	r24, Z
    140a:	91 81       	ldd	r25, Z+1	; 0x01
    140c:	68 e0       	ldi	r22, 0x08	; 8
    140e:	72 e0       	ldi	r23, 0x02	; 2
    1410:	8c df       	rcall	.-232    	; 0x132a <MATCH_MARK>
    1412:	89 2b       	or	r24, r25
    1414:	09 f4       	brne	.+2      	; 0x1418 <ir_decodeSigma+0xe6>
    1416:	4b c0       	rjmp	.+150    	; 0x14ae <ir_decodeSigma+0x17c>
    1418:	f8 01       	movw	r30, r16
    141a:	33 96       	adiw	r30, 0x03	; 3
    141c:	ee 0f       	add	r30, r30
    141e:	ff 1f       	adc	r31, r31
    1420:	ec 0d       	add	r30, r12
    1422:	fd 1d       	adc	r31, r13
    1424:	80 81       	ld	r24, Z
    1426:	91 81       	ldd	r25, Z+1	; 0x01
    1428:	60 e9       	ldi	r22, 0x90	; 144
    142a:	70 e1       	ldi	r23, 0x10	; 16
    142c:	80 df       	rcall	.-256    	; 0x132e <MATCH_SPACE>
    142e:	89 2b       	or	r24, r25
    1430:	09 f4       	brne	.+2      	; 0x1434 <ir_decodeSigma+0x102>
    1432:	41 c0       	rjmp	.+130    	; 0x14b6 <ir_decodeSigma+0x184>
    1434:	c8 01       	movw	r24, r16
    1436:	04 96       	adiw	r24, 0x04	; 4
    1438:	2f ef       	ldi	r18, 0xFF	; 255
    143a:	e2 1a       	sub	r14, r18
    143c:	f2 0a       	sbc	r15, r18
    143e:	8c 01       	movw	r16, r24
    1440:	80 e1       	ldi	r24, 0x10	; 16
    1442:	e8 16       	cp	r14, r24
    1444:	f1 04       	cpc	r15, r1
    1446:	0c f4       	brge	.+2      	; 0x144a <ir_decodeSigma+0x118>
    1448:	a7 cf       	rjmp	.-178    	; 0x1398 <ir_decodeSigma+0x66>
    144a:	00 0f       	add	r16, r16
    144c:	11 1f       	adc	r17, r17
    144e:	f6 01       	movw	r30, r12
    1450:	e0 0f       	add	r30, r16
    1452:	f1 1f       	adc	r31, r17
    1454:	80 81       	ld	r24, Z
    1456:	91 81       	ldd	r25, Z+1	; 0x01
    1458:	68 e0       	ldi	r22, 0x08	; 8
    145a:	72 e0       	ldi	r23, 0x02	; 2
    145c:	66 df       	rcall	.-308    	; 0x132a <MATCH_MARK>
    145e:	89 2b       	or	r24, r25
    1460:	71 f1       	breq	.+92     	; 0x14be <ir_decodeSigma+0x18c>
    1462:	80 e2       	ldi	r24, 0x20	; 32
    1464:	90 e0       	ldi	r25, 0x00	; 0
    1466:	f3 01       	movw	r30, r6
    1468:	91 87       	std	Z+9, r25	; 0x09
    146a:	80 87       	std	Z+8, r24	; 0x08
    146c:	84 82       	std	Z+4, r8	; 0x04
    146e:	95 82       	std	Z+5, r9	; 0x05
    1470:	a6 82       	std	Z+6, r10	; 0x06
    1472:	b7 82       	std	Z+7, r11	; 0x07
    1474:	8b e0       	ldi	r24, 0x0B	; 11
    1476:	90 e0       	ldi	r25, 0x00	; 0
    1478:	91 83       	std	Z+1, r25	; 0x01
    147a:	80 83       	st	Z, r24
    147c:	61 e0       	ldi	r22, 0x01	; 1
    147e:	70 e0       	ldi	r23, 0x00	; 0
    1480:	80 e0       	ldi	r24, 0x00	; 0
    1482:	90 e0       	ldi	r25, 0x00	; 0
    1484:	1f c0       	rjmp	.+62     	; 0x14c4 <ir_decodeSigma+0x192>
    1486:	60 e0       	ldi	r22, 0x00	; 0
    1488:	70 e0       	ldi	r23, 0x00	; 0
    148a:	cb 01       	movw	r24, r22
    148c:	1b c0       	rjmp	.+54     	; 0x14c4 <ir_decodeSigma+0x192>
    148e:	60 e0       	ldi	r22, 0x00	; 0
    1490:	70 e0       	ldi	r23, 0x00	; 0
    1492:	cb 01       	movw	r24, r22
    1494:	17 c0       	rjmp	.+46     	; 0x14c4 <ir_decodeSigma+0x192>
    1496:	60 e0       	ldi	r22, 0x00	; 0
    1498:	70 e0       	ldi	r23, 0x00	; 0
    149a:	cb 01       	movw	r24, r22
    149c:	13 c0       	rjmp	.+38     	; 0x14c4 <ir_decodeSigma+0x192>
    149e:	60 e0       	ldi	r22, 0x00	; 0
    14a0:	70 e0       	ldi	r23, 0x00	; 0
    14a2:	cb 01       	movw	r24, r22
    14a4:	0f c0       	rjmp	.+30     	; 0x14c4 <ir_decodeSigma+0x192>
    14a6:	60 e0       	ldi	r22, 0x00	; 0
    14a8:	70 e0       	ldi	r23, 0x00	; 0
    14aa:	cb 01       	movw	r24, r22
    14ac:	0b c0       	rjmp	.+22     	; 0x14c4 <ir_decodeSigma+0x192>
    14ae:	60 e0       	ldi	r22, 0x00	; 0
    14b0:	70 e0       	ldi	r23, 0x00	; 0
    14b2:	cb 01       	movw	r24, r22
    14b4:	07 c0       	rjmp	.+14     	; 0x14c4 <ir_decodeSigma+0x192>
    14b6:	60 e0       	ldi	r22, 0x00	; 0
    14b8:	70 e0       	ldi	r23, 0x00	; 0
    14ba:	cb 01       	movw	r24, r22
    14bc:	03 c0       	rjmp	.+6      	; 0x14c4 <ir_decodeSigma+0x192>
    14be:	60 e0       	ldi	r22, 0x00	; 0
    14c0:	70 e0       	ldi	r23, 0x00	; 0
    14c2:	cb 01       	movw	r24, r22
    14c4:	df 91       	pop	r29
    14c6:	cf 91       	pop	r28
    14c8:	1f 91       	pop	r17
    14ca:	0f 91       	pop	r16
    14cc:	ff 90       	pop	r15
    14ce:	ef 90       	pop	r14
    14d0:	df 90       	pop	r13
    14d2:	cf 90       	pop	r12
    14d4:	bf 90       	pop	r11
    14d6:	af 90       	pop	r10
    14d8:	9f 90       	pop	r9
    14da:	8f 90       	pop	r8
    14dc:	7f 90       	pop	r7
    14de:	6f 90       	pop	r6
    14e0:	08 95       	ret

000014e2 <ir_decodeNEC>:
    14e2:	6f 92       	push	r6
    14e4:	7f 92       	push	r7
    14e6:	8f 92       	push	r8
    14e8:	9f 92       	push	r9
    14ea:	af 92       	push	r10
    14ec:	bf 92       	push	r11
    14ee:	cf 92       	push	r12
    14f0:	df 92       	push	r13
    14f2:	ef 92       	push	r14
    14f4:	ff 92       	push	r15
    14f6:	0f 93       	push	r16
    14f8:	1f 93       	push	r17
    14fa:	cf 93       	push	r28
    14fc:	df 93       	push	r29
    14fe:	3c 01       	movw	r6, r24
    1500:	fc 01       	movw	r30, r24
    1502:	c2 84       	ldd	r12, Z+10	; 0x0a
    1504:	d3 84       	ldd	r13, Z+11	; 0x0b
    1506:	f6 01       	movw	r30, r12
    1508:	82 81       	ldd	r24, Z+2	; 0x02
    150a:	93 81       	ldd	r25, Z+3	; 0x03
    150c:	68 e2       	ldi	r22, 0x28	; 40
    150e:	73 e2       	ldi	r23, 0x23	; 35
    1510:	0c df       	rcall	.-488    	; 0x132a <MATCH_MARK>
    1512:	89 2b       	or	r24, r25
    1514:	09 f4       	brne	.+2      	; 0x1518 <ir_decodeNEC+0x36>
    1516:	89 c0       	rjmp	.+274    	; 0x162a <ir_decodeNEC+0x148>
    1518:	80 91 b9 02 	lds	r24, 0x02B9	; 0x8002b9 <irparams+0xcc>
    151c:	90 91 ba 02 	lds	r25, 0x02BA	; 0x8002ba <irparams+0xcd>
    1520:	04 97       	sbiw	r24, 0x04	; 4
    1522:	19 f5       	brne	.+70     	; 0x156a <ir_decodeNEC+0x88>
    1524:	f6 01       	movw	r30, r12
    1526:	84 81       	ldd	r24, Z+4	; 0x04
    1528:	95 81       	ldd	r25, Z+5	; 0x05
    152a:	6a ec       	ldi	r22, 0xCA	; 202
    152c:	78 e0       	ldi	r23, 0x08	; 8
    152e:	ff de       	rcall	.-514    	; 0x132e <MATCH_SPACE>
    1530:	89 2b       	or	r24, r25
    1532:	d9 f0       	breq	.+54     	; 0x156a <ir_decodeNEC+0x88>
    1534:	f6 01       	movw	r30, r12
    1536:	86 81       	ldd	r24, Z+6	; 0x06
    1538:	97 81       	ldd	r25, Z+7	; 0x07
    153a:	60 e3       	ldi	r22, 0x30	; 48
    153c:	72 e0       	ldi	r23, 0x02	; 2
    153e:	f5 de       	rcall	.-534    	; 0x132a <MATCH_MARK>
    1540:	89 2b       	or	r24, r25
    1542:	99 f0       	breq	.+38     	; 0x156a <ir_decodeNEC+0x88>
    1544:	f3 01       	movw	r30, r6
    1546:	11 86       	std	Z+9, r1	; 0x09
    1548:	10 86       	std	Z+8, r1	; 0x08
    154a:	8f ef       	ldi	r24, 0xFF	; 255
    154c:	9f ef       	ldi	r25, 0xFF	; 255
    154e:	dc 01       	movw	r26, r24
    1550:	84 83       	std	Z+4, r24	; 0x04
    1552:	95 83       	std	Z+5, r25	; 0x05
    1554:	a6 83       	std	Z+6, r26	; 0x06
    1556:	b7 83       	std	Z+7, r27	; 0x07
    1558:	81 e0       	ldi	r24, 0x01	; 1
    155a:	90 e0       	ldi	r25, 0x00	; 0
    155c:	91 83       	std	Z+1, r25	; 0x01
    155e:	80 83       	st	Z, r24
    1560:	61 e0       	ldi	r22, 0x01	; 1
    1562:	70 e0       	ldi	r23, 0x00	; 0
    1564:	80 e0       	ldi	r24, 0x00	; 0
    1566:	90 e0       	ldi	r25, 0x00	; 0
    1568:	73 c0       	rjmp	.+230    	; 0x1650 <ir_decodeNEC+0x16e>
    156a:	80 91 b9 02 	lds	r24, 0x02B9	; 0x8002b9 <irparams+0xcc>
    156e:	90 91 ba 02 	lds	r25, 0x02BA	; 0x8002ba <irparams+0xcd>
    1572:	84 34       	cpi	r24, 0x44	; 68
    1574:	91 05       	cpc	r25, r1
    1576:	08 f4       	brcc	.+2      	; 0x157a <ir_decodeNEC+0x98>
    1578:	5c c0       	rjmp	.+184    	; 0x1632 <ir_decodeNEC+0x150>
    157a:	f6 01       	movw	r30, r12
    157c:	84 81       	ldd	r24, Z+4	; 0x04
    157e:	95 81       	ldd	r25, Z+5	; 0x05
    1580:	64 e9       	ldi	r22, 0x94	; 148
    1582:	71 e1       	ldi	r23, 0x11	; 17
    1584:	d4 de       	rcall	.-600    	; 0x132e <MATCH_SPACE>
    1586:	89 2b       	or	r24, r25
    1588:	09 f4       	brne	.+2      	; 0x158c <ir_decodeNEC+0xaa>
    158a:	57 c0       	rjmp	.+174    	; 0x163a <ir_decodeNEC+0x158>
    158c:	03 e0       	ldi	r16, 0x03	; 3
    158e:	10 e0       	ldi	r17, 0x00	; 0
    1590:	81 2c       	mov	r8, r1
    1592:	91 2c       	mov	r9, r1
    1594:	54 01       	movw	r10, r8
    1596:	e1 2c       	mov	r14, r1
    1598:	f1 2c       	mov	r15, r1
    159a:	31 c0       	rjmp	.+98     	; 0x15fe <ir_decodeNEC+0x11c>
    159c:	f8 01       	movw	r30, r16
    159e:	ee 0f       	add	r30, r30
    15a0:	ff 1f       	adc	r31, r31
    15a2:	ec 0d       	add	r30, r12
    15a4:	fd 1d       	adc	r31, r13
    15a6:	80 81       	ld	r24, Z
    15a8:	91 81       	ldd	r25, Z+1	; 0x01
    15aa:	60 e3       	ldi	r22, 0x30	; 48
    15ac:	72 e0       	ldi	r23, 0x02	; 2
    15ae:	bd de       	rcall	.-646    	; 0x132a <MATCH_MARK>
    15b0:	89 2b       	or	r24, r25
    15b2:	09 f4       	brne	.+2      	; 0x15b6 <ir_decodeNEC+0xd4>
    15b4:	46 c0       	rjmp	.+140    	; 0x1642 <ir_decodeNEC+0x160>
    15b6:	e8 01       	movw	r28, r16
    15b8:	21 96       	adiw	r28, 0x01	; 1
    15ba:	cc 0f       	add	r28, r28
    15bc:	dd 1f       	adc	r29, r29
    15be:	cc 0d       	add	r28, r12
    15c0:	dd 1d       	adc	r29, r13
    15c2:	88 81       	ld	r24, Y
    15c4:	99 81       	ldd	r25, Y+1	; 0x01
    15c6:	60 e4       	ldi	r22, 0x40	; 64
    15c8:	76 e0       	ldi	r23, 0x06	; 6
    15ca:	b1 de       	rcall	.-670    	; 0x132e <MATCH_SPACE>
    15cc:	89 2b       	or	r24, r25
    15ce:	39 f0       	breq	.+14     	; 0x15de <ir_decodeNEC+0xfc>
    15d0:	88 0c       	add	r8, r8
    15d2:	99 1c       	adc	r9, r9
    15d4:	aa 1c       	adc	r10, r10
    15d6:	bb 1c       	adc	r11, r11
    15d8:	68 94       	set
    15da:	80 f8       	bld	r8, 0
    15dc:	0b c0       	rjmp	.+22     	; 0x15f4 <ir_decodeNEC+0x112>
    15de:	88 81       	ld	r24, Y
    15e0:	99 81       	ldd	r25, Y+1	; 0x01
    15e2:	60 e3       	ldi	r22, 0x30	; 48
    15e4:	72 e0       	ldi	r23, 0x02	; 2
    15e6:	a3 de       	rcall	.-698    	; 0x132e <MATCH_SPACE>
    15e8:	89 2b       	or	r24, r25
    15ea:	79 f1       	breq	.+94     	; 0x164a <ir_decodeNEC+0x168>
    15ec:	88 0c       	add	r8, r8
    15ee:	99 1c       	adc	r9, r9
    15f0:	aa 1c       	adc	r10, r10
    15f2:	bb 1c       	adc	r11, r11
    15f4:	0e 5f       	subi	r16, 0xFE	; 254
    15f6:	1f 4f       	sbci	r17, 0xFF	; 255
    15f8:	ff ef       	ldi	r31, 0xFF	; 255
    15fa:	ef 1a       	sub	r14, r31
    15fc:	ff 0a       	sbc	r15, r31
    15fe:	80 e2       	ldi	r24, 0x20	; 32
    1600:	e8 16       	cp	r14, r24
    1602:	f1 04       	cpc	r15, r1
    1604:	5c f2       	brlt	.-106    	; 0x159c <ir_decodeNEC+0xba>
    1606:	80 e2       	ldi	r24, 0x20	; 32
    1608:	90 e0       	ldi	r25, 0x00	; 0
    160a:	f3 01       	movw	r30, r6
    160c:	91 87       	std	Z+9, r25	; 0x09
    160e:	80 87       	std	Z+8, r24	; 0x08
    1610:	84 82       	std	Z+4, r8	; 0x04
    1612:	95 82       	std	Z+5, r9	; 0x05
    1614:	a6 82       	std	Z+6, r10	; 0x06
    1616:	b7 82       	std	Z+7, r11	; 0x07
    1618:	81 e0       	ldi	r24, 0x01	; 1
    161a:	90 e0       	ldi	r25, 0x00	; 0
    161c:	91 83       	std	Z+1, r25	; 0x01
    161e:	80 83       	st	Z, r24
    1620:	61 e0       	ldi	r22, 0x01	; 1
    1622:	70 e0       	ldi	r23, 0x00	; 0
    1624:	80 e0       	ldi	r24, 0x00	; 0
    1626:	90 e0       	ldi	r25, 0x00	; 0
    1628:	13 c0       	rjmp	.+38     	; 0x1650 <ir_decodeNEC+0x16e>
    162a:	60 e0       	ldi	r22, 0x00	; 0
    162c:	70 e0       	ldi	r23, 0x00	; 0
    162e:	cb 01       	movw	r24, r22
    1630:	0f c0       	rjmp	.+30     	; 0x1650 <ir_decodeNEC+0x16e>
    1632:	60 e0       	ldi	r22, 0x00	; 0
    1634:	70 e0       	ldi	r23, 0x00	; 0
    1636:	cb 01       	movw	r24, r22
    1638:	0b c0       	rjmp	.+22     	; 0x1650 <ir_decodeNEC+0x16e>
    163a:	60 e0       	ldi	r22, 0x00	; 0
    163c:	70 e0       	ldi	r23, 0x00	; 0
    163e:	cb 01       	movw	r24, r22
    1640:	07 c0       	rjmp	.+14     	; 0x1650 <ir_decodeNEC+0x16e>
    1642:	60 e0       	ldi	r22, 0x00	; 0
    1644:	70 e0       	ldi	r23, 0x00	; 0
    1646:	cb 01       	movw	r24, r22
    1648:	03 c0       	rjmp	.+6      	; 0x1650 <ir_decodeNEC+0x16e>
    164a:	60 e0       	ldi	r22, 0x00	; 0
    164c:	70 e0       	ldi	r23, 0x00	; 0
    164e:	cb 01       	movw	r24, r22
    1650:	df 91       	pop	r29
    1652:	cf 91       	pop	r28
    1654:	1f 91       	pop	r17
    1656:	0f 91       	pop	r16
    1658:	ff 90       	pop	r15
    165a:	ef 90       	pop	r14
    165c:	df 90       	pop	r13
    165e:	cf 90       	pop	r12
    1660:	bf 90       	pop	r11
    1662:	af 90       	pop	r10
    1664:	9f 90       	pop	r9
    1666:	8f 90       	pop	r8
    1668:	7f 90       	pop	r7
    166a:	6f 90       	pop	r6
    166c:	08 95       	ret

0000166e <ir_decodeSony>:
    166e:	8f 92       	push	r8
    1670:	9f 92       	push	r9
    1672:	af 92       	push	r10
    1674:	bf 92       	push	r11
    1676:	cf 92       	push	r12
    1678:	df 92       	push	r13
    167a:	ef 92       	push	r14
    167c:	ff 92       	push	r15
    167e:	0f 93       	push	r16
    1680:	1f 93       	push	r17
    1682:	cf 93       	push	r28
    1684:	df 93       	push	r29
    1686:	20 91 b9 02 	lds	r18, 0x02B9	; 0x8002b9 <irparams+0xcc>
    168a:	30 91 ba 02 	lds	r19, 0x02BA	; 0x8002ba <irparams+0xcd>
    168e:	2a 31       	cpi	r18, 0x1A	; 26
    1690:	31 05       	cpc	r19, r1
    1692:	08 f4       	brcc	.+2      	; 0x1696 <ir_decodeSony+0x28>
    1694:	81 c0       	rjmp	.+258    	; 0x1798 <ir_decodeSony+0x12a>
    1696:	fc 01       	movw	r30, r24
    1698:	e2 84       	ldd	r14, Z+10	; 0x0a
    169a:	f3 84       	ldd	r15, Z+11	; 0x0b
    169c:	f7 01       	movw	r30, r14
    169e:	20 81       	ld	r18, Z
    16a0:	31 81       	ldd	r19, Z+1	; 0x01
    16a2:	24 3f       	cpi	r18, 0xF4	; 244
    16a4:	31 40       	sbci	r19, 0x01	; 1
    16a6:	98 f4       	brcc	.+38     	; 0x16ce <ir_decodeSony+0x60>
    16a8:	fc 01       	movw	r30, r24
    16aa:	11 86       	std	Z+9, r1	; 0x09
    16ac:	10 86       	std	Z+8, r1	; 0x08
    16ae:	4f ef       	ldi	r20, 0xFF	; 255
    16b0:	5f ef       	ldi	r21, 0xFF	; 255
    16b2:	ba 01       	movw	r22, r20
    16b4:	44 83       	std	Z+4, r20	; 0x04
    16b6:	55 83       	std	Z+5, r21	; 0x05
    16b8:	66 83       	std	Z+6, r22	; 0x06
    16ba:	77 83       	std	Z+7, r23	; 0x07
    16bc:	29 e0       	ldi	r18, 0x09	; 9
    16be:	30 e0       	ldi	r19, 0x00	; 0
    16c0:	31 83       	std	Z+1, r19	; 0x01
    16c2:	20 83       	st	Z, r18
    16c4:	61 e0       	ldi	r22, 0x01	; 1
    16c6:	70 e0       	ldi	r23, 0x00	; 0
    16c8:	80 e0       	ldi	r24, 0x00	; 0
    16ca:	90 e0       	ldi	r25, 0x00	; 0
    16cc:	70 c0       	rjmp	.+224    	; 0x17ae <ir_decodeSony+0x140>
    16ce:	6c 01       	movw	r12, r24
    16d0:	f7 01       	movw	r30, r14
    16d2:	82 81       	ldd	r24, Z+2	; 0x02
    16d4:	93 81       	ldd	r25, Z+3	; 0x03
    16d6:	60 e6       	ldi	r22, 0x60	; 96
    16d8:	79 e0       	ldi	r23, 0x09	; 9
    16da:	27 de       	rcall	.-946    	; 0x132a <MATCH_MARK>
    16dc:	89 2b       	or	r24, r25
    16de:	09 f4       	brne	.+2      	; 0x16e2 <ir_decodeSony+0x74>
    16e0:	5f c0       	rjmp	.+190    	; 0x17a0 <ir_decodeSony+0x132>
    16e2:	02 e0       	ldi	r16, 0x02	; 2
    16e4:	10 e0       	ldi	r17, 0x00	; 0
    16e6:	81 2c       	mov	r8, r1
    16e8:	91 2c       	mov	r9, r1
    16ea:	54 01       	movw	r10, r8
    16ec:	2b c0       	rjmp	.+86     	; 0x1744 <ir_decodeSony+0xd6>
    16ee:	f8 01       	movw	r30, r16
    16f0:	ee 0f       	add	r30, r30
    16f2:	ff 1f       	adc	r31, r31
    16f4:	ee 0d       	add	r30, r14
    16f6:	ff 1d       	adc	r31, r15
    16f8:	80 81       	ld	r24, Z
    16fa:	91 81       	ldd	r25, Z+1	; 0x01
    16fc:	68 e5       	ldi	r22, 0x58	; 88
    16fe:	72 e0       	ldi	r23, 0x02	; 2
    1700:	16 de       	rcall	.-980    	; 0x132e <MATCH_SPACE>
    1702:	89 2b       	or	r24, r25
    1704:	41 f1       	breq	.+80     	; 0x1756 <ir_decodeSony+0xe8>
    1706:	cc 0f       	add	r28, r28
    1708:	dd 1f       	adc	r29, r29
    170a:	ce 0d       	add	r28, r14
    170c:	df 1d       	adc	r29, r15
    170e:	88 81       	ld	r24, Y
    1710:	99 81       	ldd	r25, Y+1	; 0x01
    1712:	60 eb       	ldi	r22, 0xB0	; 176
    1714:	74 e0       	ldi	r23, 0x04	; 4
    1716:	09 de       	rcall	.-1006   	; 0x132a <MATCH_MARK>
    1718:	89 2b       	or	r24, r25
    171a:	39 f0       	breq	.+14     	; 0x172a <ir_decodeSony+0xbc>
    171c:	88 0c       	add	r8, r8
    171e:	99 1c       	adc	r9, r9
    1720:	aa 1c       	adc	r10, r10
    1722:	bb 1c       	adc	r11, r11
    1724:	68 94       	set
    1726:	80 f8       	bld	r8, 0
    1728:	0b c0       	rjmp	.+22     	; 0x1740 <ir_decodeSony+0xd2>
    172a:	88 81       	ld	r24, Y
    172c:	99 81       	ldd	r25, Y+1	; 0x01
    172e:	68 e5       	ldi	r22, 0x58	; 88
    1730:	72 e0       	ldi	r23, 0x02	; 2
    1732:	fb dd       	rcall	.-1034   	; 0x132a <MATCH_MARK>
    1734:	89 2b       	or	r24, r25
    1736:	c1 f1       	breq	.+112    	; 0x17a8 <ir_decodeSony+0x13a>
    1738:	88 0c       	add	r8, r8
    173a:	99 1c       	adc	r9, r9
    173c:	aa 1c       	adc	r10, r10
    173e:	bb 1c       	adc	r11, r11
    1740:	0e 5f       	subi	r16, 0xFE	; 254
    1742:	1f 4f       	sbci	r17, 0xFF	; 255
    1744:	e8 01       	movw	r28, r16
    1746:	21 96       	adiw	r28, 0x01	; 1
    1748:	80 91 b9 02 	lds	r24, 0x02B9	; 0x8002b9 <irparams+0xcc>
    174c:	90 91 ba 02 	lds	r25, 0x02BA	; 0x8002ba <irparams+0xcd>
    1750:	c8 17       	cp	r28, r24
    1752:	d9 07       	cpc	r29, r25
    1754:	60 f2       	brcs	.-104    	; 0x16ee <ir_decodeSony+0x80>
    1756:	01 50       	subi	r16, 0x01	; 1
    1758:	11 09       	sbc	r17, r1
    175a:	c8 01       	movw	r24, r16
    175c:	99 23       	and	r25, r25
    175e:	0c f4       	brge	.+2      	; 0x1762 <ir_decodeSony+0xf4>
    1760:	01 96       	adiw	r24, 0x01	; 1
    1762:	95 95       	asr	r25
    1764:	87 95       	ror	r24
    1766:	f6 01       	movw	r30, r12
    1768:	91 87       	std	Z+9, r25	; 0x09
    176a:	80 87       	std	Z+8, r24	; 0x08
    176c:	0c 97       	sbiw	r24, 0x0c	; 12
    176e:	34 f4       	brge	.+12     	; 0x177c <ir_decodeSony+0x10e>
    1770:	11 86       	std	Z+9, r1	; 0x09
    1772:	10 86       	std	Z+8, r1	; 0x08
    1774:	60 e0       	ldi	r22, 0x00	; 0
    1776:	70 e0       	ldi	r23, 0x00	; 0
    1778:	cb 01       	movw	r24, r22
    177a:	19 c0       	rjmp	.+50     	; 0x17ae <ir_decodeSony+0x140>
    177c:	f6 01       	movw	r30, r12
    177e:	84 82       	std	Z+4, r8	; 0x04
    1780:	95 82       	std	Z+5, r9	; 0x05
    1782:	a6 82       	std	Z+6, r10	; 0x06
    1784:	b7 82       	std	Z+7, r11	; 0x07
    1786:	82 e0       	ldi	r24, 0x02	; 2
    1788:	90 e0       	ldi	r25, 0x00	; 0
    178a:	91 83       	std	Z+1, r25	; 0x01
    178c:	80 83       	st	Z, r24
    178e:	61 e0       	ldi	r22, 0x01	; 1
    1790:	70 e0       	ldi	r23, 0x00	; 0
    1792:	80 e0       	ldi	r24, 0x00	; 0
    1794:	90 e0       	ldi	r25, 0x00	; 0
    1796:	0b c0       	rjmp	.+22     	; 0x17ae <ir_decodeSony+0x140>
    1798:	60 e0       	ldi	r22, 0x00	; 0
    179a:	70 e0       	ldi	r23, 0x00	; 0
    179c:	cb 01       	movw	r24, r22
    179e:	07 c0       	rjmp	.+14     	; 0x17ae <ir_decodeSony+0x140>
    17a0:	60 e0       	ldi	r22, 0x00	; 0
    17a2:	70 e0       	ldi	r23, 0x00	; 0
    17a4:	cb 01       	movw	r24, r22
    17a6:	03 c0       	rjmp	.+6      	; 0x17ae <ir_decodeSony+0x140>
    17a8:	60 e0       	ldi	r22, 0x00	; 0
    17aa:	70 e0       	ldi	r23, 0x00	; 0
    17ac:	cb 01       	movw	r24, r22
    17ae:	df 91       	pop	r29
    17b0:	cf 91       	pop	r28
    17b2:	1f 91       	pop	r17
    17b4:	0f 91       	pop	r16
    17b6:	ff 90       	pop	r15
    17b8:	ef 90       	pop	r14
    17ba:	df 90       	pop	r13
    17bc:	cf 90       	pop	r12
    17be:	bf 90       	pop	r11
    17c0:	af 90       	pop	r10
    17c2:	9f 90       	pop	r9
    17c4:	8f 90       	pop	r8
    17c6:	08 95       	ret

000017c8 <ir_decodeSanyo>:
    17c8:	8f 92       	push	r8
    17ca:	9f 92       	push	r9
    17cc:	af 92       	push	r10
    17ce:	bf 92       	push	r11
    17d0:	cf 92       	push	r12
    17d2:	df 92       	push	r13
    17d4:	ef 92       	push	r14
    17d6:	ff 92       	push	r15
    17d8:	0f 93       	push	r16
    17da:	1f 93       	push	r17
    17dc:	cf 93       	push	r28
    17de:	df 93       	push	r29
    17e0:	20 91 b9 02 	lds	r18, 0x02B9	; 0x8002b9 <irparams+0xcc>
    17e4:	30 91 ba 02 	lds	r19, 0x02BA	; 0x8002ba <irparams+0xcd>
    17e8:	2a 31       	cpi	r18, 0x1A	; 26
    17ea:	31 05       	cpc	r19, r1
    17ec:	08 f4       	brcc	.+2      	; 0x17f0 <ir_decodeSanyo+0x28>
    17ee:	8a c0       	rjmp	.+276    	; 0x1904 <ir_decodeSanyo+0x13c>
    17f0:	fc 01       	movw	r30, r24
    17f2:	e2 84       	ldd	r14, Z+10	; 0x0a
    17f4:	f3 84       	ldd	r15, Z+11	; 0x0b
    17f6:	f7 01       	movw	r30, r14
    17f8:	20 81       	ld	r18, Z
    17fa:	31 81       	ldd	r19, Z+1	; 0x01
    17fc:	20 32       	cpi	r18, 0x20	; 32
    17fe:	33 40       	sbci	r19, 0x03	; 3
    1800:	98 f4       	brcc	.+38     	; 0x1828 <ir_decodeSanyo+0x60>
    1802:	fc 01       	movw	r30, r24
    1804:	11 86       	std	Z+9, r1	; 0x09
    1806:	10 86       	std	Z+8, r1	; 0x08
    1808:	4f ef       	ldi	r20, 0xFF	; 255
    180a:	5f ef       	ldi	r21, 0xFF	; 255
    180c:	ba 01       	movw	r22, r20
    180e:	44 83       	std	Z+4, r20	; 0x04
    1810:	55 83       	std	Z+5, r21	; 0x05
    1812:	66 83       	std	Z+6, r22	; 0x06
    1814:	77 83       	std	Z+7, r23	; 0x07
    1816:	29 e0       	ldi	r18, 0x09	; 9
    1818:	30 e0       	ldi	r19, 0x00	; 0
    181a:	31 83       	std	Z+1, r19	; 0x01
    181c:	20 83       	st	Z, r18
    181e:	61 e0       	ldi	r22, 0x01	; 1
    1820:	70 e0       	ldi	r23, 0x00	; 0
    1822:	80 e0       	ldi	r24, 0x00	; 0
    1824:	90 e0       	ldi	r25, 0x00	; 0
    1826:	7d c0       	rjmp	.+250    	; 0x1922 <ir_decodeSanyo+0x15a>
    1828:	6c 01       	movw	r12, r24
    182a:	f7 01       	movw	r30, r14
    182c:	82 81       	ldd	r24, Z+2	; 0x02
    182e:	93 81       	ldd	r25, Z+3	; 0x03
    1830:	6c ea       	ldi	r22, 0xAC	; 172
    1832:	7d e0       	ldi	r23, 0x0D	; 13
    1834:	7a dd       	rcall	.-1292   	; 0x132a <MATCH_MARK>
    1836:	89 2b       	or	r24, r25
    1838:	09 f4       	brne	.+2      	; 0x183c <ir_decodeSanyo+0x74>
    183a:	68 c0       	rjmp	.+208    	; 0x190c <ir_decodeSanyo+0x144>
    183c:	f7 01       	movw	r30, r14
    183e:	84 81       	ldd	r24, Z+4	; 0x04
    1840:	95 81       	ldd	r25, Z+5	; 0x05
    1842:	6c ea       	ldi	r22, 0xAC	; 172
    1844:	7d e0       	ldi	r23, 0x0D	; 13
    1846:	71 dd       	rcall	.-1310   	; 0x132a <MATCH_MARK>
    1848:	89 2b       	or	r24, r25
    184a:	09 f4       	brne	.+2      	; 0x184e <ir_decodeSanyo+0x86>
    184c:	63 c0       	rjmp	.+198    	; 0x1914 <ir_decodeSanyo+0x14c>
    184e:	03 e0       	ldi	r16, 0x03	; 3
    1850:	10 e0       	ldi	r17, 0x00	; 0
    1852:	81 2c       	mov	r8, r1
    1854:	91 2c       	mov	r9, r1
    1856:	54 01       	movw	r10, r8
    1858:	2b c0       	rjmp	.+86     	; 0x18b0 <ir_decodeSanyo+0xe8>
    185a:	f8 01       	movw	r30, r16
    185c:	ee 0f       	add	r30, r30
    185e:	ff 1f       	adc	r31, r31
    1860:	ee 0d       	add	r30, r14
    1862:	ff 1d       	adc	r31, r15
    1864:	80 81       	ld	r24, Z
    1866:	91 81       	ldd	r25, Z+1	; 0x01
    1868:	66 eb       	ldi	r22, 0xB6	; 182
    186a:	73 e0       	ldi	r23, 0x03	; 3
    186c:	60 dd       	rcall	.-1344   	; 0x132e <MATCH_SPACE>
    186e:	89 2b       	or	r24, r25
    1870:	41 f1       	breq	.+80     	; 0x18c2 <ir_decodeSanyo+0xfa>
    1872:	cc 0f       	add	r28, r28
    1874:	dd 1f       	adc	r29, r29
    1876:	ce 0d       	add	r28, r14
    1878:	df 1d       	adc	r29, r15
    187a:	88 81       	ld	r24, Y
    187c:	99 81       	ldd	r25, Y+1	; 0x01
    187e:	60 e6       	ldi	r22, 0x60	; 96
    1880:	79 e0       	ldi	r23, 0x09	; 9
    1882:	53 dd       	rcall	.-1370   	; 0x132a <MATCH_MARK>
    1884:	89 2b       	or	r24, r25
    1886:	39 f0       	breq	.+14     	; 0x1896 <ir_decodeSanyo+0xce>
    1888:	88 0c       	add	r8, r8
    188a:	99 1c       	adc	r9, r9
    188c:	aa 1c       	adc	r10, r10
    188e:	bb 1c       	adc	r11, r11
    1890:	68 94       	set
    1892:	80 f8       	bld	r8, 0
    1894:	0b c0       	rjmp	.+22     	; 0x18ac <ir_decodeSanyo+0xe4>
    1896:	88 81       	ld	r24, Y
    1898:	99 81       	ldd	r25, Y+1	; 0x01
    189a:	6c eb       	ldi	r22, 0xBC	; 188
    189c:	72 e0       	ldi	r23, 0x02	; 2
    189e:	45 dd       	rcall	.-1398   	; 0x132a <MATCH_MARK>
    18a0:	89 2b       	or	r24, r25
    18a2:	e1 f1       	breq	.+120    	; 0x191c <ir_decodeSanyo+0x154>
    18a4:	88 0c       	add	r8, r8
    18a6:	99 1c       	adc	r9, r9
    18a8:	aa 1c       	adc	r10, r10
    18aa:	bb 1c       	adc	r11, r11
    18ac:	0e 5f       	subi	r16, 0xFE	; 254
    18ae:	1f 4f       	sbci	r17, 0xFF	; 255
    18b0:	e8 01       	movw	r28, r16
    18b2:	21 96       	adiw	r28, 0x01	; 1
    18b4:	80 91 b9 02 	lds	r24, 0x02B9	; 0x8002b9 <irparams+0xcc>
    18b8:	90 91 ba 02 	lds	r25, 0x02BA	; 0x8002ba <irparams+0xcd>
    18bc:	c8 17       	cp	r28, r24
    18be:	d9 07       	cpc	r29, r25
    18c0:	60 f2       	brcs	.-104    	; 0x185a <ir_decodeSanyo+0x92>
    18c2:	01 50       	subi	r16, 0x01	; 1
    18c4:	11 09       	sbc	r17, r1
    18c6:	c8 01       	movw	r24, r16
    18c8:	99 23       	and	r25, r25
    18ca:	0c f4       	brge	.+2      	; 0x18ce <ir_decodeSanyo+0x106>
    18cc:	01 96       	adiw	r24, 0x01	; 1
    18ce:	95 95       	asr	r25
    18d0:	87 95       	ror	r24
    18d2:	f6 01       	movw	r30, r12
    18d4:	91 87       	std	Z+9, r25	; 0x09
    18d6:	80 87       	std	Z+8, r24	; 0x08
    18d8:	0c 97       	sbiw	r24, 0x0c	; 12
    18da:	34 f4       	brge	.+12     	; 0x18e8 <ir_decodeSanyo+0x120>
    18dc:	11 86       	std	Z+9, r1	; 0x09
    18de:	10 86       	std	Z+8, r1	; 0x08
    18e0:	60 e0       	ldi	r22, 0x00	; 0
    18e2:	70 e0       	ldi	r23, 0x00	; 0
    18e4:	cb 01       	movw	r24, r22
    18e6:	1d c0       	rjmp	.+58     	; 0x1922 <ir_decodeSanyo+0x15a>
    18e8:	f6 01       	movw	r30, r12
    18ea:	84 82       	std	Z+4, r8	; 0x04
    18ec:	95 82       	std	Z+5, r9	; 0x05
    18ee:	a6 82       	std	Z+6, r10	; 0x06
    18f0:	b7 82       	std	Z+7, r11	; 0x07
    18f2:	89 e0       	ldi	r24, 0x09	; 9
    18f4:	90 e0       	ldi	r25, 0x00	; 0
    18f6:	91 83       	std	Z+1, r25	; 0x01
    18f8:	80 83       	st	Z, r24
    18fa:	61 e0       	ldi	r22, 0x01	; 1
    18fc:	70 e0       	ldi	r23, 0x00	; 0
    18fe:	80 e0       	ldi	r24, 0x00	; 0
    1900:	90 e0       	ldi	r25, 0x00	; 0
    1902:	0f c0       	rjmp	.+30     	; 0x1922 <ir_decodeSanyo+0x15a>
    1904:	60 e0       	ldi	r22, 0x00	; 0
    1906:	70 e0       	ldi	r23, 0x00	; 0
    1908:	cb 01       	movw	r24, r22
    190a:	0b c0       	rjmp	.+22     	; 0x1922 <ir_decodeSanyo+0x15a>
    190c:	60 e0       	ldi	r22, 0x00	; 0
    190e:	70 e0       	ldi	r23, 0x00	; 0
    1910:	cb 01       	movw	r24, r22
    1912:	07 c0       	rjmp	.+14     	; 0x1922 <ir_decodeSanyo+0x15a>
    1914:	60 e0       	ldi	r22, 0x00	; 0
    1916:	70 e0       	ldi	r23, 0x00	; 0
    1918:	cb 01       	movw	r24, r22
    191a:	03 c0       	rjmp	.+6      	; 0x1922 <ir_decodeSanyo+0x15a>
    191c:	60 e0       	ldi	r22, 0x00	; 0
    191e:	70 e0       	ldi	r23, 0x00	; 0
    1920:	cb 01       	movw	r24, r22
    1922:	df 91       	pop	r29
    1924:	cf 91       	pop	r28
    1926:	1f 91       	pop	r17
    1928:	0f 91       	pop	r16
    192a:	ff 90       	pop	r15
    192c:	ef 90       	pop	r14
    192e:	df 90       	pop	r13
    1930:	cf 90       	pop	r12
    1932:	bf 90       	pop	r11
    1934:	af 90       	pop	r10
    1936:	9f 90       	pop	r9
    1938:	8f 90       	pop	r8
    193a:	08 95       	ret

0000193c <ir_decodeMitsubishi>:
    193c:	6f 92       	push	r6
    193e:	7f 92       	push	r7
    1940:	8f 92       	push	r8
    1942:	9f 92       	push	r9
    1944:	af 92       	push	r10
    1946:	bf 92       	push	r11
    1948:	cf 92       	push	r12
    194a:	df 92       	push	r13
    194c:	ef 92       	push	r14
    194e:	ff 92       	push	r15
    1950:	0f 93       	push	r16
    1952:	1f 93       	push	r17
    1954:	cf 93       	push	r28
    1956:	df 93       	push	r29
    1958:	20 91 b9 02 	lds	r18, 0x02B9	; 0x8002b9 <irparams+0xcc>
    195c:	30 91 ba 02 	lds	r19, 0x02BA	; 0x8002ba <irparams+0xcd>
    1960:	22 32       	cpi	r18, 0x22	; 34
    1962:	31 05       	cpc	r19, r1
    1964:	08 f4       	brcc	.+2      	; 0x1968 <ir_decodeMitsubishi+0x2c>
    1966:	6e c0       	rjmp	.+220    	; 0x1a44 <ir_decodeMitsubishi+0x108>
    1968:	3c 01       	movw	r6, r24
    196a:	fc 01       	movw	r30, r24
    196c:	c2 84       	ldd	r12, Z+10	; 0x0a
    196e:	d3 84       	ldd	r13, Z+11	; 0x0b
    1970:	f6 01       	movw	r30, r12
    1972:	82 81       	ldd	r24, Z+2	; 0x02
    1974:	93 81       	ldd	r25, Z+3	; 0x03
    1976:	6e e5       	ldi	r22, 0x5E	; 94
    1978:	71 e0       	ldi	r23, 0x01	; 1
    197a:	d7 dc       	rcall	.-1618   	; 0x132a <MATCH_MARK>
    197c:	89 2b       	or	r24, r25
    197e:	09 f4       	brne	.+2      	; 0x1982 <ir_decodeMitsubishi+0x46>
    1980:	65 c0       	rjmp	.+202    	; 0x1a4c <ir_decodeMitsubishi+0x110>
    1982:	02 e0       	ldi	r16, 0x02	; 2
    1984:	10 e0       	ldi	r17, 0x00	; 0
    1986:	81 2c       	mov	r8, r1
    1988:	91 2c       	mov	r9, r1
    198a:	54 01       	movw	r10, r8
    198c:	2d c0       	rjmp	.+90     	; 0x19e8 <ir_decodeMitsubishi+0xac>
    198e:	e8 01       	movw	r28, r16
    1990:	cc 0f       	add	r28, r28
    1992:	dd 1f       	adc	r29, r29
    1994:	cc 0d       	add	r28, r12
    1996:	dd 1d       	adc	r29, r13
    1998:	88 81       	ld	r24, Y
    199a:	99 81       	ldd	r25, Y+1	; 0x01
    199c:	6e e9       	ldi	r22, 0x9E	; 158
    199e:	77 e0       	ldi	r23, 0x07	; 7
    19a0:	c4 dc       	rcall	.-1656   	; 0x132a <MATCH_MARK>
    19a2:	89 2b       	or	r24, r25
    19a4:	39 f0       	breq	.+14     	; 0x19b4 <ir_decodeMitsubishi+0x78>
    19a6:	88 0c       	add	r8, r8
    19a8:	99 1c       	adc	r9, r9
    19aa:	aa 1c       	adc	r10, r10
    19ac:	bb 1c       	adc	r11, r11
    19ae:	68 94       	set
    19b0:	80 f8       	bld	r8, 0
    19b2:	0c c0       	rjmp	.+24     	; 0x19cc <ir_decodeMitsubishi+0x90>
    19b4:	88 81       	ld	r24, Y
    19b6:	99 81       	ldd	r25, Y+1	; 0x01
    19b8:	6e ee       	ldi	r22, 0xEE	; 238
    19ba:	72 e0       	ldi	r23, 0x02	; 2
    19bc:	b6 dc       	rcall	.-1684   	; 0x132a <MATCH_MARK>
    19be:	89 2b       	or	r24, r25
    19c0:	09 f4       	brne	.+2      	; 0x19c4 <ir_decodeMitsubishi+0x88>
    19c2:	48 c0       	rjmp	.+144    	; 0x1a54 <ir_decodeMitsubishi+0x118>
    19c4:	88 0c       	add	r8, r8
    19c6:	99 1c       	adc	r9, r9
    19c8:	aa 1c       	adc	r10, r10
    19ca:	bb 1c       	adc	r11, r11
    19cc:	f7 01       	movw	r30, r14
    19ce:	ee 0f       	add	r30, r30
    19d0:	ff 1f       	adc	r31, r31
    19d2:	ec 0d       	add	r30, r12
    19d4:	fd 1d       	adc	r31, r13
    19d6:	80 81       	ld	r24, Z
    19d8:	91 81       	ldd	r25, Z+1	; 0x01
    19da:	6e e5       	ldi	r22, 0x5E	; 94
    19dc:	71 e0       	ldi	r23, 0x01	; 1
    19de:	a7 dc       	rcall	.-1714   	; 0x132e <MATCH_SPACE>
    19e0:	89 2b       	or	r24, r25
    19e2:	71 f0       	breq	.+28     	; 0x1a00 <ir_decodeMitsubishi+0xc4>
    19e4:	0e 5f       	subi	r16, 0xFE	; 254
    19e6:	1f 4f       	sbci	r17, 0xFF	; 255
    19e8:	78 01       	movw	r14, r16
    19ea:	ff ef       	ldi	r31, 0xFF	; 255
    19ec:	ef 1a       	sub	r14, r31
    19ee:	ff 0a       	sbc	r15, r31
    19f0:	80 91 b9 02 	lds	r24, 0x02B9	; 0x8002b9 <irparams+0xcc>
    19f4:	90 91 ba 02 	lds	r25, 0x02BA	; 0x8002ba <irparams+0xcd>
    19f8:	e8 16       	cp	r14, r24
    19fa:	f9 06       	cpc	r15, r25
    19fc:	40 f2       	brcs	.-112    	; 0x198e <ir_decodeMitsubishi+0x52>
    19fe:	01 c0       	rjmp	.+2      	; 0x1a02 <ir_decodeMitsubishi+0xc6>
    1a00:	87 01       	movw	r16, r14
    1a02:	01 50       	subi	r16, 0x01	; 1
    1a04:	11 09       	sbc	r17, r1
    1a06:	c8 01       	movw	r24, r16
    1a08:	99 23       	and	r25, r25
    1a0a:	0c f4       	brge	.+2      	; 0x1a0e <ir_decodeMitsubishi+0xd2>
    1a0c:	01 96       	adiw	r24, 0x01	; 1
    1a0e:	95 95       	asr	r25
    1a10:	87 95       	ror	r24
    1a12:	f3 01       	movw	r30, r6
    1a14:	91 87       	std	Z+9, r25	; 0x09
    1a16:	80 87       	std	Z+8, r24	; 0x08
    1a18:	40 97       	sbiw	r24, 0x10	; 16
    1a1a:	34 f4       	brge	.+12     	; 0x1a28 <ir_decodeMitsubishi+0xec>
    1a1c:	11 86       	std	Z+9, r1	; 0x09
    1a1e:	10 86       	std	Z+8, r1	; 0x08
    1a20:	60 e0       	ldi	r22, 0x00	; 0
    1a22:	70 e0       	ldi	r23, 0x00	; 0
    1a24:	cb 01       	movw	r24, r22
    1a26:	19 c0       	rjmp	.+50     	; 0x1a5a <ir_decodeMitsubishi+0x11e>
    1a28:	f3 01       	movw	r30, r6
    1a2a:	84 82       	std	Z+4, r8	; 0x04
    1a2c:	95 82       	std	Z+5, r9	; 0x05
    1a2e:	a6 82       	std	Z+6, r10	; 0x06
    1a30:	b7 82       	std	Z+7, r11	; 0x07
    1a32:	8a e0       	ldi	r24, 0x0A	; 10
    1a34:	90 e0       	ldi	r25, 0x00	; 0
    1a36:	91 83       	std	Z+1, r25	; 0x01
    1a38:	80 83       	st	Z, r24
    1a3a:	61 e0       	ldi	r22, 0x01	; 1
    1a3c:	70 e0       	ldi	r23, 0x00	; 0
    1a3e:	80 e0       	ldi	r24, 0x00	; 0
    1a40:	90 e0       	ldi	r25, 0x00	; 0
    1a42:	0b c0       	rjmp	.+22     	; 0x1a5a <ir_decodeMitsubishi+0x11e>
    1a44:	60 e0       	ldi	r22, 0x00	; 0
    1a46:	70 e0       	ldi	r23, 0x00	; 0
    1a48:	cb 01       	movw	r24, r22
    1a4a:	07 c0       	rjmp	.+14     	; 0x1a5a <ir_decodeMitsubishi+0x11e>
    1a4c:	60 e0       	ldi	r22, 0x00	; 0
    1a4e:	70 e0       	ldi	r23, 0x00	; 0
    1a50:	cb 01       	movw	r24, r22
    1a52:	03 c0       	rjmp	.+6      	; 0x1a5a <ir_decodeMitsubishi+0x11e>
    1a54:	60 e0       	ldi	r22, 0x00	; 0
    1a56:	70 e0       	ldi	r23, 0x00	; 0
    1a58:	cb 01       	movw	r24, r22
    1a5a:	df 91       	pop	r29
    1a5c:	cf 91       	pop	r28
    1a5e:	1f 91       	pop	r17
    1a60:	0f 91       	pop	r16
    1a62:	ff 90       	pop	r15
    1a64:	ef 90       	pop	r14
    1a66:	df 90       	pop	r13
    1a68:	cf 90       	pop	r12
    1a6a:	bf 90       	pop	r11
    1a6c:	af 90       	pop	r10
    1a6e:	9f 90       	pop	r9
    1a70:	8f 90       	pop	r8
    1a72:	7f 90       	pop	r7
    1a74:	6f 90       	pop	r6
    1a76:	08 95       	ret

00001a78 <ir_decodeRC6>:
    1a78:	4f 92       	push	r4
    1a7a:	5f 92       	push	r5
    1a7c:	6f 92       	push	r6
    1a7e:	7f 92       	push	r7
    1a80:	af 92       	push	r10
    1a82:	bf 92       	push	r11
    1a84:	cf 92       	push	r12
    1a86:	df 92       	push	r13
    1a88:	ef 92       	push	r14
    1a8a:	ff 92       	push	r15
    1a8c:	0f 93       	push	r16
    1a8e:	1f 93       	push	r17
    1a90:	cf 93       	push	r28
    1a92:	df 93       	push	r29
    1a94:	00 d0       	rcall	.+0      	; 0x1a96 <ir_decodeRC6+0x1e>
    1a96:	00 d0       	rcall	.+0      	; 0x1a98 <ir_decodeRC6+0x20>
    1a98:	cd b7       	in	r28, 0x3d	; 61
    1a9a:	de b7       	in	r29, 0x3e	; 62
    1a9c:	21 e0       	ldi	r18, 0x01	; 1
    1a9e:	30 e0       	ldi	r19, 0x00	; 0
    1aa0:	3a 83       	std	Y+2, r19	; 0x02
    1aa2:	29 83       	std	Y+1, r18	; 0x01
    1aa4:	1c 82       	std	Y+4, r1	; 0x04
    1aa6:	1b 82       	std	Y+3, r1	; 0x03
    1aa8:	fc 01       	movw	r30, r24
    1aaa:	24 85       	ldd	r18, Z+12	; 0x0c
    1aac:	35 85       	ldd	r19, Z+13	; 0x0d
    1aae:	12 16       	cp	r1, r18
    1ab0:	13 06       	cpc	r1, r19
    1ab2:	0c f0       	brlt	.+2      	; 0x1ab6 <ir_decodeRC6+0x3e>
    1ab4:	aa c0       	rjmp	.+340    	; 0x1c0a <ir_decodeRC6+0x192>
    1ab6:	8c 01       	movw	r16, r24
    1ab8:	e2 84       	ldd	r14, Z+10	; 0x0a
    1aba:	f3 84       	ldd	r15, Z+11	; 0x0b
    1abc:	f7 01       	movw	r30, r14
    1abe:	82 81       	ldd	r24, Z+2	; 0x02
    1ac0:	93 81       	ldd	r25, Z+3	; 0x03
    1ac2:	6a e6       	ldi	r22, 0x6A	; 106
    1ac4:	7a e0       	ldi	r23, 0x0A	; 10
    1ac6:	31 dc       	rcall	.-1950   	; 0x132a <MATCH_MARK>
    1ac8:	89 2b       	or	r24, r25
    1aca:	09 f4       	brne	.+2      	; 0x1ace <ir_decodeRC6+0x56>
    1acc:	a2 c0       	rjmp	.+324    	; 0x1c12 <ir_decodeRC6+0x19a>
    1ace:	82 e0       	ldi	r24, 0x02	; 2
    1ad0:	90 e0       	ldi	r25, 0x00	; 0
    1ad2:	9a 83       	std	Y+2, r25	; 0x02
    1ad4:	89 83       	std	Y+1, r24	; 0x01
    1ad6:	f7 01       	movw	r30, r14
    1ad8:	84 81       	ldd	r24, Z+4	; 0x04
    1ada:	95 81       	ldd	r25, Z+5	; 0x05
    1adc:	69 e7       	ldi	r22, 0x79	; 121
    1ade:	73 e0       	ldi	r23, 0x03	; 3
    1ae0:	26 dc       	rcall	.-1972   	; 0x132e <MATCH_SPACE>
    1ae2:	89 2b       	or	r24, r25
    1ae4:	09 f4       	brne	.+2      	; 0x1ae8 <ir_decodeRC6+0x70>
    1ae6:	99 c0       	rjmp	.+306    	; 0x1c1a <ir_decodeRC6+0x1a2>
    1ae8:	83 e0       	ldi	r24, 0x03	; 3
    1aea:	90 e0       	ldi	r25, 0x00	; 0
    1aec:	9a 83       	std	Y+2, r25	; 0x02
    1aee:	89 83       	std	Y+1, r24	; 0x01
    1af0:	2c eb       	ldi	r18, 0xBC	; 188
    1af2:	31 e0       	ldi	r19, 0x01	; 1
    1af4:	ae 01       	movw	r20, r28
    1af6:	4d 5f       	subi	r20, 0xFD	; 253
    1af8:	5f 4f       	sbci	r21, 0xFF	; 255
    1afa:	be 01       	movw	r22, r28
    1afc:	6f 5f       	subi	r22, 0xFF	; 255
    1afe:	7f 4f       	sbci	r23, 0xFF	; 255
    1b00:	c8 01       	movw	r24, r16
    1b02:	f1 da       	rcall	.-2590   	; 0x10e6 <ir_getRClevel>
    1b04:	01 97       	sbiw	r24, 0x01	; 1
    1b06:	09 f0       	breq	.+2      	; 0x1b0a <ir_decodeRC6+0x92>
    1b08:	8c c0       	rjmp	.+280    	; 0x1c22 <ir_decodeRC6+0x1aa>
    1b0a:	2c eb       	ldi	r18, 0xBC	; 188
    1b0c:	31 e0       	ldi	r19, 0x01	; 1
    1b0e:	ae 01       	movw	r20, r28
    1b10:	4d 5f       	subi	r20, 0xFD	; 253
    1b12:	5f 4f       	sbci	r21, 0xFF	; 255
    1b14:	be 01       	movw	r22, r28
    1b16:	6f 5f       	subi	r22, 0xFF	; 255
    1b18:	7f 4f       	sbci	r23, 0xFF	; 255
    1b1a:	c8 01       	movw	r24, r16
    1b1c:	e4 da       	rcall	.-2616   	; 0x10e6 <ir_getRClevel>
    1b1e:	89 2b       	or	r24, r25
    1b20:	09 f0       	breq	.+2      	; 0x1b24 <ir_decodeRC6+0xac>
    1b22:	83 c0       	rjmp	.+262    	; 0x1c2a <ir_decodeRC6+0x1b2>
    1b24:	e1 2c       	mov	r14, r1
    1b26:	f1 2c       	mov	r15, r1
    1b28:	41 2c       	mov	r4, r1
    1b2a:	51 2c       	mov	r5, r1
    1b2c:	32 01       	movw	r6, r4
    1b2e:	55 c0       	rjmp	.+170    	; 0x1bda <ir_decodeRC6+0x162>
    1b30:	2c eb       	ldi	r18, 0xBC	; 188
    1b32:	31 e0       	ldi	r19, 0x01	; 1
    1b34:	ae 01       	movw	r20, r28
    1b36:	4d 5f       	subi	r20, 0xFD	; 253
    1b38:	5f 4f       	sbci	r21, 0xFF	; 255
    1b3a:	be 01       	movw	r22, r28
    1b3c:	6f 5f       	subi	r22, 0xFF	; 255
    1b3e:	7f 4f       	sbci	r23, 0xFF	; 255
    1b40:	c8 01       	movw	r24, r16
    1b42:	d1 da       	rcall	.-2654   	; 0x10e6 <ir_getRClevel>
    1b44:	5c 01       	movw	r10, r24
    1b46:	f3 e0       	ldi	r31, 0x03	; 3
    1b48:	ef 16       	cp	r14, r31
    1b4a:	f1 04       	cpc	r15, r1
    1b4c:	71 f4       	brne	.+28     	; 0x1b6a <ir_decodeRC6+0xf2>
    1b4e:	2c eb       	ldi	r18, 0xBC	; 188
    1b50:	31 e0       	ldi	r19, 0x01	; 1
    1b52:	ae 01       	movw	r20, r28
    1b54:	4d 5f       	subi	r20, 0xFD	; 253
    1b56:	5f 4f       	sbci	r21, 0xFF	; 255
    1b58:	be 01       	movw	r22, r28
    1b5a:	6f 5f       	subi	r22, 0xFF	; 255
    1b5c:	7f 4f       	sbci	r23, 0xFF	; 255
    1b5e:	c8 01       	movw	r24, r16
    1b60:	c2 da       	rcall	.-2684   	; 0x10e6 <ir_getRClevel>
    1b62:	a8 16       	cp	r10, r24
    1b64:	b9 06       	cpc	r11, r25
    1b66:	09 f0       	breq	.+2      	; 0x1b6a <ir_decodeRC6+0xf2>
    1b68:	64 c0       	rjmp	.+200    	; 0x1c32 <ir_decodeRC6+0x1ba>
    1b6a:	2c eb       	ldi	r18, 0xBC	; 188
    1b6c:	31 e0       	ldi	r19, 0x01	; 1
    1b6e:	ae 01       	movw	r20, r28
    1b70:	4d 5f       	subi	r20, 0xFD	; 253
    1b72:	5f 4f       	sbci	r21, 0xFF	; 255
    1b74:	be 01       	movw	r22, r28
    1b76:	6f 5f       	subi	r22, 0xFF	; 255
    1b78:	7f 4f       	sbci	r23, 0xFF	; 255
    1b7a:	c8 01       	movw	r24, r16
    1b7c:	b4 da       	rcall	.-2712   	; 0x10e6 <ir_getRClevel>
    1b7e:	6c 01       	movw	r12, r24
    1b80:	83 e0       	ldi	r24, 0x03	; 3
    1b82:	e8 16       	cp	r14, r24
    1b84:	f1 04       	cpc	r15, r1
    1b86:	71 f4       	brne	.+28     	; 0x1ba4 <ir_decodeRC6+0x12c>
    1b88:	2c eb       	ldi	r18, 0xBC	; 188
    1b8a:	31 e0       	ldi	r19, 0x01	; 1
    1b8c:	ae 01       	movw	r20, r28
    1b8e:	4d 5f       	subi	r20, 0xFD	; 253
    1b90:	5f 4f       	sbci	r21, 0xFF	; 255
    1b92:	be 01       	movw	r22, r28
    1b94:	6f 5f       	subi	r22, 0xFF	; 255
    1b96:	7f 4f       	sbci	r23, 0xFF	; 255
    1b98:	c8 01       	movw	r24, r16
    1b9a:	a5 da       	rcall	.-2742   	; 0x10e6 <ir_getRClevel>
    1b9c:	c8 16       	cp	r12, r24
    1b9e:	d9 06       	cpc	r13, r25
    1ba0:	09 f0       	breq	.+2      	; 0x1ba4 <ir_decodeRC6+0x12c>
    1ba2:	4b c0       	rjmp	.+150    	; 0x1c3a <ir_decodeRC6+0x1c2>
    1ba4:	e1 e0       	ldi	r30, 0x01	; 1
    1ba6:	ae 16       	cp	r10, r30
    1ba8:	b1 04       	cpc	r11, r1
    1baa:	51 f4       	brne	.+20     	; 0x1bc0 <ir_decodeRC6+0x148>
    1bac:	c1 14       	cp	r12, r1
    1bae:	d1 04       	cpc	r13, r1
    1bb0:	39 f4       	brne	.+14     	; 0x1bc0 <ir_decodeRC6+0x148>
    1bb2:	44 0c       	add	r4, r4
    1bb4:	55 1c       	adc	r5, r5
    1bb6:	66 1c       	adc	r6, r6
    1bb8:	77 1c       	adc	r7, r7
    1bba:	68 94       	set
    1bbc:	40 f8       	bld	r4, 0
    1bbe:	0a c0       	rjmp	.+20     	; 0x1bd4 <ir_decodeRC6+0x15c>
    1bc0:	ab 28       	or	r10, r11
    1bc2:	f9 f5       	brne	.+126    	; 0x1c42 <ir_decodeRC6+0x1ca>
    1bc4:	ca 94       	dec	r12
    1bc6:	cd 28       	or	r12, r13
    1bc8:	09 f0       	breq	.+2      	; 0x1bcc <ir_decodeRC6+0x154>
    1bca:	3f c0       	rjmp	.+126    	; 0x1c4a <ir_decodeRC6+0x1d2>
    1bcc:	44 0c       	add	r4, r4
    1bce:	55 1c       	adc	r5, r5
    1bd0:	66 1c       	adc	r6, r6
    1bd2:	77 1c       	adc	r7, r7
    1bd4:	8f ef       	ldi	r24, 0xFF	; 255
    1bd6:	e8 1a       	sub	r14, r24
    1bd8:	f8 0a       	sbc	r15, r24
    1bda:	f8 01       	movw	r30, r16
    1bdc:	24 85       	ldd	r18, Z+12	; 0x0c
    1bde:	35 85       	ldd	r19, Z+13	; 0x0d
    1be0:	89 81       	ldd	r24, Y+1	; 0x01
    1be2:	9a 81       	ldd	r25, Y+2	; 0x02
    1be4:	82 17       	cp	r24, r18
    1be6:	93 07       	cpc	r25, r19
    1be8:	0c f4       	brge	.+2      	; 0x1bec <ir_decodeRC6+0x174>
    1bea:	a2 cf       	rjmp	.-188    	; 0x1b30 <ir_decodeRC6+0xb8>
    1bec:	f1 86       	std	Z+9, r15	; 0x09
    1bee:	e0 86       	std	Z+8, r14	; 0x08
    1bf0:	44 82       	std	Z+4, r4	; 0x04
    1bf2:	55 82       	std	Z+5, r5	; 0x05
    1bf4:	66 82       	std	Z+6, r6	; 0x06
    1bf6:	77 82       	std	Z+7, r7	; 0x07
    1bf8:	84 e0       	ldi	r24, 0x04	; 4
    1bfa:	90 e0       	ldi	r25, 0x00	; 0
    1bfc:	91 83       	std	Z+1, r25	; 0x01
    1bfe:	80 83       	st	Z, r24
    1c00:	61 e0       	ldi	r22, 0x01	; 1
    1c02:	70 e0       	ldi	r23, 0x00	; 0
    1c04:	80 e0       	ldi	r24, 0x00	; 0
    1c06:	90 e0       	ldi	r25, 0x00	; 0
    1c08:	23 c0       	rjmp	.+70     	; 0x1c50 <ir_decodeRC6+0x1d8>
    1c0a:	60 e0       	ldi	r22, 0x00	; 0
    1c0c:	70 e0       	ldi	r23, 0x00	; 0
    1c0e:	cb 01       	movw	r24, r22
    1c10:	1f c0       	rjmp	.+62     	; 0x1c50 <ir_decodeRC6+0x1d8>
    1c12:	60 e0       	ldi	r22, 0x00	; 0
    1c14:	70 e0       	ldi	r23, 0x00	; 0
    1c16:	cb 01       	movw	r24, r22
    1c18:	1b c0       	rjmp	.+54     	; 0x1c50 <ir_decodeRC6+0x1d8>
    1c1a:	60 e0       	ldi	r22, 0x00	; 0
    1c1c:	70 e0       	ldi	r23, 0x00	; 0
    1c1e:	cb 01       	movw	r24, r22
    1c20:	17 c0       	rjmp	.+46     	; 0x1c50 <ir_decodeRC6+0x1d8>
    1c22:	60 e0       	ldi	r22, 0x00	; 0
    1c24:	70 e0       	ldi	r23, 0x00	; 0
    1c26:	cb 01       	movw	r24, r22
    1c28:	13 c0       	rjmp	.+38     	; 0x1c50 <ir_decodeRC6+0x1d8>
    1c2a:	60 e0       	ldi	r22, 0x00	; 0
    1c2c:	70 e0       	ldi	r23, 0x00	; 0
    1c2e:	cb 01       	movw	r24, r22
    1c30:	0f c0       	rjmp	.+30     	; 0x1c50 <ir_decodeRC6+0x1d8>
    1c32:	60 e0       	ldi	r22, 0x00	; 0
    1c34:	70 e0       	ldi	r23, 0x00	; 0
    1c36:	cb 01       	movw	r24, r22
    1c38:	0b c0       	rjmp	.+22     	; 0x1c50 <ir_decodeRC6+0x1d8>
    1c3a:	60 e0       	ldi	r22, 0x00	; 0
    1c3c:	70 e0       	ldi	r23, 0x00	; 0
    1c3e:	cb 01       	movw	r24, r22
    1c40:	07 c0       	rjmp	.+14     	; 0x1c50 <ir_decodeRC6+0x1d8>
    1c42:	60 e0       	ldi	r22, 0x00	; 0
    1c44:	70 e0       	ldi	r23, 0x00	; 0
    1c46:	cb 01       	movw	r24, r22
    1c48:	03 c0       	rjmp	.+6      	; 0x1c50 <ir_decodeRC6+0x1d8>
    1c4a:	60 e0       	ldi	r22, 0x00	; 0
    1c4c:	70 e0       	ldi	r23, 0x00	; 0
    1c4e:	cb 01       	movw	r24, r22
    1c50:	0f 90       	pop	r0
    1c52:	0f 90       	pop	r0
    1c54:	0f 90       	pop	r0
    1c56:	0f 90       	pop	r0
    1c58:	df 91       	pop	r29
    1c5a:	cf 91       	pop	r28
    1c5c:	1f 91       	pop	r17
    1c5e:	0f 91       	pop	r16
    1c60:	ff 90       	pop	r15
    1c62:	ef 90       	pop	r14
    1c64:	df 90       	pop	r13
    1c66:	cf 90       	pop	r12
    1c68:	bf 90       	pop	r11
    1c6a:	af 90       	pop	r10
    1c6c:	7f 90       	pop	r7
    1c6e:	6f 90       	pop	r6
    1c70:	5f 90       	pop	r5
    1c72:	4f 90       	pop	r4
    1c74:	08 95       	ret

00001c76 <ir_decodePanasonic>:
    1c76:	6f 92       	push	r6
    1c78:	7f 92       	push	r7
    1c7a:	8f 92       	push	r8
    1c7c:	9f 92       	push	r9
    1c7e:	af 92       	push	r10
    1c80:	bf 92       	push	r11
    1c82:	cf 92       	push	r12
    1c84:	df 92       	push	r13
    1c86:	ef 92       	push	r14
    1c88:	ff 92       	push	r15
    1c8a:	0f 93       	push	r16
    1c8c:	1f 93       	push	r17
    1c8e:	cf 93       	push	r28
    1c90:	df 93       	push	r29
    1c92:	4c 01       	movw	r8, r24
    1c94:	fc 01       	movw	r30, r24
    1c96:	02 85       	ldd	r16, Z+10	; 0x0a
    1c98:	13 85       	ldd	r17, Z+11	; 0x0b
    1c9a:	f8 01       	movw	r30, r16
    1c9c:	82 81       	ldd	r24, Z+2	; 0x02
    1c9e:	93 81       	ldd	r25, Z+3	; 0x03
    1ca0:	6e ea       	ldi	r22, 0xAE	; 174
    1ca2:	7d e0       	ldi	r23, 0x0D	; 13
    1ca4:	42 db       	rcall	.-2428   	; 0x132a <MATCH_MARK>
    1ca6:	89 2b       	or	r24, r25
    1ca8:	09 f4       	brne	.+2      	; 0x1cac <ir_decodePanasonic+0x36>
    1caa:	9a c0       	rjmp	.+308    	; 0x1de0 <ir_decodePanasonic+0x16a>
    1cac:	f8 01       	movw	r30, r16
    1cae:	84 81       	ldd	r24, Z+4	; 0x04
    1cb0:	95 81       	ldd	r25, Z+5	; 0x05
    1cb2:	66 ed       	ldi	r22, 0xD6	; 214
    1cb4:	76 e0       	ldi	r23, 0x06	; 6
    1cb6:	39 db       	rcall	.-2446   	; 0x132a <MATCH_MARK>
    1cb8:	89 2b       	or	r24, r25
    1cba:	09 f4       	brne	.+2      	; 0x1cbe <ir_decodePanasonic+0x48>
    1cbc:	95 c0       	rjmp	.+298    	; 0x1de8 <ir_decodePanasonic+0x172>
    1cbe:	61 2c       	mov	r6, r1
    1cc0:	71 2c       	mov	r7, r1
    1cc2:	c3 e0       	ldi	r28, 0x03	; 3
    1cc4:	d0 e0       	ldi	r29, 0x00	; 0
    1cc6:	c1 2c       	mov	r12, r1
    1cc8:	d1 2c       	mov	r13, r1
    1cca:	76 01       	movw	r14, r12
    1ccc:	35 c0       	rjmp	.+106    	; 0x1d38 <ir_decodePanasonic+0xc2>
    1cce:	5e 01       	movw	r10, r28
    1cd0:	ff ef       	ldi	r31, 0xFF	; 255
    1cd2:	af 1a       	sub	r10, r31
    1cd4:	bf 0a       	sbc	r11, r31
    1cd6:	fe 01       	movw	r30, r28
    1cd8:	ee 0f       	add	r30, r30
    1cda:	ff 1f       	adc	r31, r31
    1cdc:	e0 0f       	add	r30, r16
    1cde:	f1 1f       	adc	r31, r17
    1ce0:	80 81       	ld	r24, Z
    1ce2:	91 81       	ldd	r25, Z+1	; 0x01
    1ce4:	66 ef       	ldi	r22, 0xF6	; 246
    1ce6:	71 e0       	ldi	r23, 0x01	; 1
    1ce8:	20 db       	rcall	.-2496   	; 0x132a <MATCH_MARK>
    1cea:	89 2b       	or	r24, r25
    1cec:	09 f4       	brne	.+2      	; 0x1cf0 <ir_decodePanasonic+0x7a>
    1cee:	80 c0       	rjmp	.+256    	; 0x1df0 <ir_decodePanasonic+0x17a>
    1cf0:	aa 0c       	add	r10, r10
    1cf2:	bb 1c       	adc	r11, r11
    1cf4:	a0 0e       	add	r10, r16
    1cf6:	b1 1e       	adc	r11, r17
    1cf8:	f5 01       	movw	r30, r10
    1cfa:	80 81       	ld	r24, Z
    1cfc:	91 81       	ldd	r25, Z+1	; 0x01
    1cfe:	6c ed       	ldi	r22, 0xDC	; 220
    1d00:	74 e0       	ldi	r23, 0x04	; 4
    1d02:	15 db       	rcall	.-2518   	; 0x132e <MATCH_SPACE>
    1d04:	89 2b       	or	r24, r25
    1d06:	39 f0       	breq	.+14     	; 0x1d16 <ir_decodePanasonic+0xa0>
    1d08:	cc 0c       	add	r12, r12
    1d0a:	dd 1c       	adc	r13, r13
    1d0c:	ee 1c       	adc	r14, r14
    1d0e:	ff 1c       	adc	r15, r15
    1d10:	68 94       	set
    1d12:	c0 f8       	bld	r12, 0
    1d14:	0d c0       	rjmp	.+26     	; 0x1d30 <ir_decodePanasonic+0xba>
    1d16:	f5 01       	movw	r30, r10
    1d18:	80 81       	ld	r24, Z
    1d1a:	91 81       	ldd	r25, Z+1	; 0x01
    1d1c:	60 e9       	ldi	r22, 0x90	; 144
    1d1e:	71 e0       	ldi	r23, 0x01	; 1
    1d20:	06 db       	rcall	.-2548   	; 0x132e <MATCH_SPACE>
    1d22:	89 2b       	or	r24, r25
    1d24:	09 f4       	brne	.+2      	; 0x1d28 <ir_decodePanasonic+0xb2>
    1d26:	68 c0       	rjmp	.+208    	; 0x1df8 <ir_decodePanasonic+0x182>
    1d28:	cc 0c       	add	r12, r12
    1d2a:	dd 1c       	adc	r13, r13
    1d2c:	ee 1c       	adc	r14, r14
    1d2e:	ff 1c       	adc	r15, r15
    1d30:	22 96       	adiw	r28, 0x02	; 2
    1d32:	ff ef       	ldi	r31, 0xFF	; 255
    1d34:	6f 1a       	sub	r6, r31
    1d36:	7f 0a       	sbc	r7, r31
    1d38:	80 e1       	ldi	r24, 0x10	; 16
    1d3a:	68 16       	cp	r6, r24
    1d3c:	71 04       	cpc	r7, r1
    1d3e:	3c f2       	brlt	.-114    	; 0x1cce <ir_decodePanasonic+0x58>
    1d40:	f4 01       	movw	r30, r8
    1d42:	d3 82       	std	Z+3, r13	; 0x03
    1d44:	c2 82       	std	Z+2, r12	; 0x02
    1d46:	61 2c       	mov	r6, r1
    1d48:	71 2c       	mov	r7, r1
    1d4a:	34 c0       	rjmp	.+104    	; 0x1db4 <ir_decodePanasonic+0x13e>
    1d4c:	5e 01       	movw	r10, r28
    1d4e:	ff ef       	ldi	r31, 0xFF	; 255
    1d50:	af 1a       	sub	r10, r31
    1d52:	bf 0a       	sbc	r11, r31
    1d54:	fe 01       	movw	r30, r28
    1d56:	ee 0f       	add	r30, r30
    1d58:	ff 1f       	adc	r31, r31
    1d5a:	e0 0f       	add	r30, r16
    1d5c:	f1 1f       	adc	r31, r17
    1d5e:	80 81       	ld	r24, Z
    1d60:	91 81       	ldd	r25, Z+1	; 0x01
    1d62:	66 ef       	ldi	r22, 0xF6	; 246
    1d64:	71 e0       	ldi	r23, 0x01	; 1
    1d66:	e1 da       	rcall	.-2622   	; 0x132a <MATCH_MARK>
    1d68:	89 2b       	or	r24, r25
    1d6a:	09 f4       	brne	.+2      	; 0x1d6e <ir_decodePanasonic+0xf8>
    1d6c:	49 c0       	rjmp	.+146    	; 0x1e00 <ir_decodePanasonic+0x18a>
    1d6e:	aa 0c       	add	r10, r10
    1d70:	bb 1c       	adc	r11, r11
    1d72:	a0 0e       	add	r10, r16
    1d74:	b1 1e       	adc	r11, r17
    1d76:	f5 01       	movw	r30, r10
    1d78:	80 81       	ld	r24, Z
    1d7a:	91 81       	ldd	r25, Z+1	; 0x01
    1d7c:	6c ed       	ldi	r22, 0xDC	; 220
    1d7e:	74 e0       	ldi	r23, 0x04	; 4
    1d80:	d6 da       	rcall	.-2644   	; 0x132e <MATCH_SPACE>
    1d82:	89 2b       	or	r24, r25
    1d84:	39 f0       	breq	.+14     	; 0x1d94 <ir_decodePanasonic+0x11e>
    1d86:	cc 0c       	add	r12, r12
    1d88:	dd 1c       	adc	r13, r13
    1d8a:	ee 1c       	adc	r14, r14
    1d8c:	ff 1c       	adc	r15, r15
    1d8e:	68 94       	set
    1d90:	c0 f8       	bld	r12, 0
    1d92:	0c c0       	rjmp	.+24     	; 0x1dac <ir_decodePanasonic+0x136>
    1d94:	f5 01       	movw	r30, r10
    1d96:	80 81       	ld	r24, Z
    1d98:	91 81       	ldd	r25, Z+1	; 0x01
    1d9a:	60 e9       	ldi	r22, 0x90	; 144
    1d9c:	71 e0       	ldi	r23, 0x01	; 1
    1d9e:	c7 da       	rcall	.-2674   	; 0x132e <MATCH_SPACE>
    1da0:	89 2b       	or	r24, r25
    1da2:	91 f1       	breq	.+100    	; 0x1e08 <ir_decodePanasonic+0x192>
    1da4:	cc 0c       	add	r12, r12
    1da6:	dd 1c       	adc	r13, r13
    1da8:	ee 1c       	adc	r14, r14
    1daa:	ff 1c       	adc	r15, r15
    1dac:	22 96       	adiw	r28, 0x02	; 2
    1dae:	ff ef       	ldi	r31, 0xFF	; 255
    1db0:	6f 1a       	sub	r6, r31
    1db2:	7f 0a       	sbc	r7, r31
    1db4:	80 e2       	ldi	r24, 0x20	; 32
    1db6:	68 16       	cp	r6, r24
    1db8:	71 04       	cpc	r7, r1
    1dba:	44 f2       	brlt	.-112    	; 0x1d4c <ir_decodePanasonic+0xd6>
    1dbc:	f4 01       	movw	r30, r8
    1dbe:	c4 82       	std	Z+4, r12	; 0x04
    1dc0:	d5 82       	std	Z+5, r13	; 0x05
    1dc2:	e6 82       	std	Z+6, r14	; 0x06
    1dc4:	f7 82       	std	Z+7, r15	; 0x07
    1dc6:	87 e0       	ldi	r24, 0x07	; 7
    1dc8:	90 e0       	ldi	r25, 0x00	; 0
    1dca:	91 83       	std	Z+1, r25	; 0x01
    1dcc:	80 83       	st	Z, r24
    1dce:	80 e3       	ldi	r24, 0x30	; 48
    1dd0:	90 e0       	ldi	r25, 0x00	; 0
    1dd2:	91 87       	std	Z+9, r25	; 0x09
    1dd4:	80 87       	std	Z+8, r24	; 0x08
    1dd6:	61 e0       	ldi	r22, 0x01	; 1
    1dd8:	70 e0       	ldi	r23, 0x00	; 0
    1dda:	80 e0       	ldi	r24, 0x00	; 0
    1ddc:	90 e0       	ldi	r25, 0x00	; 0
    1dde:	17 c0       	rjmp	.+46     	; 0x1e0e <ir_decodePanasonic+0x198>
    1de0:	60 e0       	ldi	r22, 0x00	; 0
    1de2:	70 e0       	ldi	r23, 0x00	; 0
    1de4:	cb 01       	movw	r24, r22
    1de6:	13 c0       	rjmp	.+38     	; 0x1e0e <ir_decodePanasonic+0x198>
    1de8:	60 e0       	ldi	r22, 0x00	; 0
    1dea:	70 e0       	ldi	r23, 0x00	; 0
    1dec:	cb 01       	movw	r24, r22
    1dee:	0f c0       	rjmp	.+30     	; 0x1e0e <ir_decodePanasonic+0x198>
    1df0:	60 e0       	ldi	r22, 0x00	; 0
    1df2:	70 e0       	ldi	r23, 0x00	; 0
    1df4:	cb 01       	movw	r24, r22
    1df6:	0b c0       	rjmp	.+22     	; 0x1e0e <ir_decodePanasonic+0x198>
    1df8:	60 e0       	ldi	r22, 0x00	; 0
    1dfa:	70 e0       	ldi	r23, 0x00	; 0
    1dfc:	cb 01       	movw	r24, r22
    1dfe:	07 c0       	rjmp	.+14     	; 0x1e0e <ir_decodePanasonic+0x198>
    1e00:	60 e0       	ldi	r22, 0x00	; 0
    1e02:	70 e0       	ldi	r23, 0x00	; 0
    1e04:	cb 01       	movw	r24, r22
    1e06:	03 c0       	rjmp	.+6      	; 0x1e0e <ir_decodePanasonic+0x198>
    1e08:	60 e0       	ldi	r22, 0x00	; 0
    1e0a:	70 e0       	ldi	r23, 0x00	; 0
    1e0c:	cb 01       	movw	r24, r22
    1e0e:	df 91       	pop	r29
    1e10:	cf 91       	pop	r28
    1e12:	1f 91       	pop	r17
    1e14:	0f 91       	pop	r16
    1e16:	ff 90       	pop	r15
    1e18:	ef 90       	pop	r14
    1e1a:	df 90       	pop	r13
    1e1c:	cf 90       	pop	r12
    1e1e:	bf 90       	pop	r11
    1e20:	af 90       	pop	r10
    1e22:	9f 90       	pop	r9
    1e24:	8f 90       	pop	r8
    1e26:	7f 90       	pop	r7
    1e28:	6f 90       	pop	r6
    1e2a:	08 95       	ret

00001e2c <ir_decodeJVC>:
    1e2c:	6f 92       	push	r6
    1e2e:	7f 92       	push	r7
    1e30:	8f 92       	push	r8
    1e32:	9f 92       	push	r9
    1e34:	af 92       	push	r10
    1e36:	bf 92       	push	r11
    1e38:	cf 92       	push	r12
    1e3a:	df 92       	push	r13
    1e3c:	ef 92       	push	r14
    1e3e:	ff 92       	push	r15
    1e40:	0f 93       	push	r16
    1e42:	1f 93       	push	r17
    1e44:	cf 93       	push	r28
    1e46:	df 93       	push	r29
    1e48:	8c 01       	movw	r16, r24
    1e4a:	80 91 b9 02 	lds	r24, 0x02B9	; 0x8002b9 <irparams+0xcc>
    1e4e:	90 91 ba 02 	lds	r25, 0x02BA	; 0x8002ba <irparams+0xcd>
    1e52:	82 97       	sbiw	r24, 0x22	; 34
    1e54:	71 f5       	brne	.+92     	; 0x1eb2 <ir_decodeJVC+0x86>
    1e56:	f8 01       	movw	r30, r16
    1e58:	c2 85       	ldd	r28, Z+10	; 0x0a
    1e5a:	d3 85       	ldd	r29, Z+11	; 0x0b
    1e5c:	8a 81       	ldd	r24, Y+2	; 0x02
    1e5e:	9b 81       	ldd	r25, Y+3	; 0x03
    1e60:	68 e5       	ldi	r22, 0x58	; 88
    1e62:	72 e0       	ldi	r23, 0x02	; 2
    1e64:	62 da       	rcall	.-2876   	; 0x132a <MATCH_MARK>
    1e66:	89 2b       	or	r24, r25
    1e68:	21 f1       	breq	.+72     	; 0x1eb2 <ir_decodeJVC+0x86>
    1e6a:	e0 91 b9 02 	lds	r30, 0x02B9	; 0x8002b9 <irparams+0xcc>
    1e6e:	f0 91 ba 02 	lds	r31, 0x02BA	; 0x8002ba <irparams+0xcd>
    1e72:	e1 50       	subi	r30, 0x01	; 1
    1e74:	f0 48       	sbci	r31, 0x80	; 128
    1e76:	ee 0f       	add	r30, r30
    1e78:	ff 1f       	adc	r31, r31
    1e7a:	ec 0f       	add	r30, r28
    1e7c:	fd 1f       	adc	r31, r29
    1e7e:	80 81       	ld	r24, Z
    1e80:	91 81       	ldd	r25, Z+1	; 0x01
    1e82:	68 e5       	ldi	r22, 0x58	; 88
    1e84:	72 e0       	ldi	r23, 0x02	; 2
    1e86:	51 da       	rcall	.-2910   	; 0x132a <MATCH_MARK>
    1e88:	89 2b       	or	r24, r25
    1e8a:	99 f0       	breq	.+38     	; 0x1eb2 <ir_decodeJVC+0x86>
    1e8c:	f8 01       	movw	r30, r16
    1e8e:	11 86       	std	Z+9, r1	; 0x09
    1e90:	10 86       	std	Z+8, r1	; 0x08
    1e92:	8f ef       	ldi	r24, 0xFF	; 255
    1e94:	9f ef       	ldi	r25, 0xFF	; 255
    1e96:	dc 01       	movw	r26, r24
    1e98:	84 83       	std	Z+4, r24	; 0x04
    1e9a:	95 83       	std	Z+5, r25	; 0x05
    1e9c:	a6 83       	std	Z+6, r26	; 0x06
    1e9e:	b7 83       	std	Z+7, r27	; 0x07
    1ea0:	88 e0       	ldi	r24, 0x08	; 8
    1ea2:	90 e0       	ldi	r25, 0x00	; 0
    1ea4:	91 83       	std	Z+1, r25	; 0x01
    1ea6:	80 83       	st	Z, r24
    1ea8:	61 e0       	ldi	r22, 0x01	; 1
    1eaa:	70 e0       	ldi	r23, 0x00	; 0
    1eac:	80 e0       	ldi	r24, 0x00	; 0
    1eae:	90 e0       	ldi	r25, 0x00	; 0
    1eb0:	90 c0       	rjmp	.+288    	; 0x1fd2 <ir_decodeJVC+0x1a6>
    1eb2:	f8 01       	movw	r30, r16
    1eb4:	c2 84       	ldd	r12, Z+10	; 0x0a
    1eb6:	d3 84       	ldd	r13, Z+11	; 0x0b
    1eb8:	f6 01       	movw	r30, r12
    1eba:	82 81       	ldd	r24, Z+2	; 0x02
    1ebc:	93 81       	ldd	r25, Z+3	; 0x03
    1ebe:	60 e4       	ldi	r22, 0x40	; 64
    1ec0:	7f e1       	ldi	r23, 0x1F	; 31
    1ec2:	33 da       	rcall	.-2970   	; 0x132a <MATCH_MARK>
    1ec4:	89 2b       	or	r24, r25
    1ec6:	09 f4       	brne	.+2      	; 0x1eca <ir_decodeJVC+0x9e>
    1ec8:	6d c0       	rjmp	.+218    	; 0x1fa4 <ir_decodeJVC+0x178>
    1eca:	80 91 b9 02 	lds	r24, 0x02B9	; 0x8002b9 <irparams+0xcc>
    1ece:	90 91 ba 02 	lds	r25, 0x02BA	; 0x8002ba <irparams+0xcd>
    1ed2:	81 97       	sbiw	r24, 0x21	; 33
    1ed4:	08 f4       	brcc	.+2      	; 0x1ed8 <ir_decodeJVC+0xac>
    1ed6:	6a c0       	rjmp	.+212    	; 0x1fac <ir_decodeJVC+0x180>
    1ed8:	f6 01       	movw	r30, r12
    1eda:	84 81       	ldd	r24, Z+4	; 0x04
    1edc:	95 81       	ldd	r25, Z+5	; 0x05
    1ede:	60 ea       	ldi	r22, 0xA0	; 160
    1ee0:	7f e0       	ldi	r23, 0x0F	; 15
    1ee2:	25 da       	rcall	.-2998   	; 0x132e <MATCH_SPACE>
    1ee4:	89 2b       	or	r24, r25
    1ee6:	09 f4       	brne	.+2      	; 0x1eea <ir_decodeJVC+0xbe>
    1ee8:	65 c0       	rjmp	.+202    	; 0x1fb4 <ir_decodeJVC+0x188>
    1eea:	c3 e0       	ldi	r28, 0x03	; 3
    1eec:	d0 e0       	ldi	r29, 0x00	; 0
    1eee:	81 2c       	mov	r8, r1
    1ef0:	91 2c       	mov	r9, r1
    1ef2:	54 01       	movw	r10, r8
    1ef4:	61 2c       	mov	r6, r1
    1ef6:	71 2c       	mov	r7, r1
    1ef8:	34 c0       	rjmp	.+104    	; 0x1f62 <ir_decodeJVC+0x136>
    1efa:	fe 01       	movw	r30, r28
    1efc:	ee 0f       	add	r30, r30
    1efe:	ff 1f       	adc	r31, r31
    1f00:	ec 0d       	add	r30, r12
    1f02:	fd 1d       	adc	r31, r13
    1f04:	80 81       	ld	r24, Z
    1f06:	91 81       	ldd	r25, Z+1	; 0x01
    1f08:	68 e5       	ldi	r22, 0x58	; 88
    1f0a:	72 e0       	ldi	r23, 0x02	; 2
    1f0c:	0e da       	rcall	.-3044   	; 0x132a <MATCH_MARK>
    1f0e:	89 2b       	or	r24, r25
    1f10:	09 f4       	brne	.+2      	; 0x1f14 <ir_decodeJVC+0xe8>
    1f12:	54 c0       	rjmp	.+168    	; 0x1fbc <ir_decodeJVC+0x190>
    1f14:	7e 01       	movw	r14, r28
    1f16:	ff ef       	ldi	r31, 0xFF	; 255
    1f18:	ef 1a       	sub	r14, r31
    1f1a:	ff 0a       	sbc	r15, r31
    1f1c:	ee 0c       	add	r14, r14
    1f1e:	ff 1c       	adc	r15, r15
    1f20:	ec 0c       	add	r14, r12
    1f22:	fd 1c       	adc	r15, r13
    1f24:	f7 01       	movw	r30, r14
    1f26:	80 81       	ld	r24, Z
    1f28:	91 81       	ldd	r25, Z+1	; 0x01
    1f2a:	60 e4       	ldi	r22, 0x40	; 64
    1f2c:	76 e0       	ldi	r23, 0x06	; 6
    1f2e:	ff d9       	rcall	.-3074   	; 0x132e <MATCH_SPACE>
    1f30:	89 2b       	or	r24, r25
    1f32:	39 f0       	breq	.+14     	; 0x1f42 <ir_decodeJVC+0x116>
    1f34:	88 0c       	add	r8, r8
    1f36:	99 1c       	adc	r9, r9
    1f38:	aa 1c       	adc	r10, r10
    1f3a:	bb 1c       	adc	r11, r11
    1f3c:	68 94       	set
    1f3e:	80 f8       	bld	r8, 0
    1f40:	0c c0       	rjmp	.+24     	; 0x1f5a <ir_decodeJVC+0x12e>
    1f42:	f7 01       	movw	r30, r14
    1f44:	80 81       	ld	r24, Z
    1f46:	91 81       	ldd	r25, Z+1	; 0x01
    1f48:	66 e2       	ldi	r22, 0x26	; 38
    1f4a:	72 e0       	ldi	r23, 0x02	; 2
    1f4c:	f0 d9       	rcall	.-3104   	; 0x132e <MATCH_SPACE>
    1f4e:	89 2b       	or	r24, r25
    1f50:	c9 f1       	breq	.+114    	; 0x1fc4 <ir_decodeJVC+0x198>
    1f52:	88 0c       	add	r8, r8
    1f54:	99 1c       	adc	r9, r9
    1f56:	aa 1c       	adc	r10, r10
    1f58:	bb 1c       	adc	r11, r11
    1f5a:	22 96       	adiw	r28, 0x02	; 2
    1f5c:	ff ef       	ldi	r31, 0xFF	; 255
    1f5e:	6f 1a       	sub	r6, r31
    1f60:	7f 0a       	sbc	r7, r31
    1f62:	80 e1       	ldi	r24, 0x10	; 16
    1f64:	68 16       	cp	r6, r24
    1f66:	71 04       	cpc	r7, r1
    1f68:	44 f2       	brlt	.-112    	; 0x1efa <ir_decodeJVC+0xce>
    1f6a:	cc 0f       	add	r28, r28
    1f6c:	dd 1f       	adc	r29, r29
    1f6e:	cc 0d       	add	r28, r12
    1f70:	dd 1d       	adc	r29, r13
    1f72:	88 81       	ld	r24, Y
    1f74:	99 81       	ldd	r25, Y+1	; 0x01
    1f76:	68 e5       	ldi	r22, 0x58	; 88
    1f78:	72 e0       	ldi	r23, 0x02	; 2
    1f7a:	d7 d9       	rcall	.-3154   	; 0x132a <MATCH_MARK>
    1f7c:	89 2b       	or	r24, r25
    1f7e:	31 f1       	breq	.+76     	; 0x1fcc <ir_decodeJVC+0x1a0>
    1f80:	80 e1       	ldi	r24, 0x10	; 16
    1f82:	90 e0       	ldi	r25, 0x00	; 0
    1f84:	f8 01       	movw	r30, r16
    1f86:	91 87       	std	Z+9, r25	; 0x09
    1f88:	80 87       	std	Z+8, r24	; 0x08
    1f8a:	84 82       	std	Z+4, r8	; 0x04
    1f8c:	95 82       	std	Z+5, r9	; 0x05
    1f8e:	a6 82       	std	Z+6, r10	; 0x06
    1f90:	b7 82       	std	Z+7, r11	; 0x07
    1f92:	88 e0       	ldi	r24, 0x08	; 8
    1f94:	90 e0       	ldi	r25, 0x00	; 0
    1f96:	91 83       	std	Z+1, r25	; 0x01
    1f98:	80 83       	st	Z, r24
    1f9a:	61 e0       	ldi	r22, 0x01	; 1
    1f9c:	70 e0       	ldi	r23, 0x00	; 0
    1f9e:	80 e0       	ldi	r24, 0x00	; 0
    1fa0:	90 e0       	ldi	r25, 0x00	; 0
    1fa2:	17 c0       	rjmp	.+46     	; 0x1fd2 <ir_decodeJVC+0x1a6>
    1fa4:	60 e0       	ldi	r22, 0x00	; 0
    1fa6:	70 e0       	ldi	r23, 0x00	; 0
    1fa8:	cb 01       	movw	r24, r22
    1faa:	13 c0       	rjmp	.+38     	; 0x1fd2 <ir_decodeJVC+0x1a6>
    1fac:	60 e0       	ldi	r22, 0x00	; 0
    1fae:	70 e0       	ldi	r23, 0x00	; 0
    1fb0:	cb 01       	movw	r24, r22
    1fb2:	0f c0       	rjmp	.+30     	; 0x1fd2 <ir_decodeJVC+0x1a6>
    1fb4:	60 e0       	ldi	r22, 0x00	; 0
    1fb6:	70 e0       	ldi	r23, 0x00	; 0
    1fb8:	cb 01       	movw	r24, r22
    1fba:	0b c0       	rjmp	.+22     	; 0x1fd2 <ir_decodeJVC+0x1a6>
    1fbc:	60 e0       	ldi	r22, 0x00	; 0
    1fbe:	70 e0       	ldi	r23, 0x00	; 0
    1fc0:	cb 01       	movw	r24, r22
    1fc2:	07 c0       	rjmp	.+14     	; 0x1fd2 <ir_decodeJVC+0x1a6>
    1fc4:	60 e0       	ldi	r22, 0x00	; 0
    1fc6:	70 e0       	ldi	r23, 0x00	; 0
    1fc8:	cb 01       	movw	r24, r22
    1fca:	03 c0       	rjmp	.+6      	; 0x1fd2 <ir_decodeJVC+0x1a6>
    1fcc:	60 e0       	ldi	r22, 0x00	; 0
    1fce:	70 e0       	ldi	r23, 0x00	; 0
    1fd0:	cb 01       	movw	r24, r22
    1fd2:	df 91       	pop	r29
    1fd4:	cf 91       	pop	r28
    1fd6:	1f 91       	pop	r17
    1fd8:	0f 91       	pop	r16
    1fda:	ff 90       	pop	r15
    1fdc:	ef 90       	pop	r14
    1fde:	df 90       	pop	r13
    1fe0:	cf 90       	pop	r12
    1fe2:	bf 90       	pop	r11
    1fe4:	af 90       	pop	r10
    1fe6:	9f 90       	pop	r9
    1fe8:	8f 90       	pop	r8
    1fea:	7f 90       	pop	r7
    1fec:	6f 90       	pop	r6
    1fee:	08 95       	ret

00001ff0 <ir_sendNEC>:
    1ff0:	cf 92       	push	r12
    1ff2:	df 92       	push	r13
    1ff4:	ef 92       	push	r14
    1ff6:	ff 92       	push	r15
    1ff8:	0f 93       	push	r16
    1ffa:	1f 93       	push	r17
    1ffc:	cf 93       	push	r28
    1ffe:	df 93       	push	r29
    2000:	6b 01       	movw	r12, r22
    2002:	7c 01       	movw	r14, r24
    2004:	8a 01       	movw	r16, r20
    2006:	10 92 6e 00 	sts	0x006E, r1	; 0x80006e <__TEXT_REGION_LENGTH__+0x7e006e>
    200a:	86 e2       	ldi	r24, 0x26	; 38
    200c:	0e 94 71 07 	call	0xee2	; 0xee2 <ir_enableIROut>
    2010:	88 e2       	ldi	r24, 0x28	; 40
    2012:	93 e2       	ldi	r25, 0x23	; 35
    2014:	0e 94 5e 07 	call	0xebc	; 0xebc <ir_mark>
    2018:	84 e9       	ldi	r24, 0x94	; 148
    201a:	91 e1       	ldi	r25, 0x11	; 17
    201c:	0e 94 6c 07 	call	0xed8	; 0xed8 <ir_space>
    2020:	c0 e0       	ldi	r28, 0x00	; 0
    2022:	d0 e0       	ldi	r29, 0x00	; 0
    2024:	18 c0       	rjmp	.+48     	; 0x2056 <ir_sendNEC+0x66>
    2026:	ff 20       	and	r15, r15
    2028:	4c f4       	brge	.+18     	; 0x203c <ir_sendNEC+0x4c>
    202a:	80 e3       	ldi	r24, 0x30	; 48
    202c:	92 e0       	ldi	r25, 0x02	; 2
    202e:	0e 94 5e 07 	call	0xebc	; 0xebc <ir_mark>
    2032:	80 e4       	ldi	r24, 0x40	; 64
    2034:	96 e0       	ldi	r25, 0x06	; 6
    2036:	0e 94 6c 07 	call	0xed8	; 0xed8 <ir_space>
    203a:	08 c0       	rjmp	.+16     	; 0x204c <ir_sendNEC+0x5c>
    203c:	80 e3       	ldi	r24, 0x30	; 48
    203e:	92 e0       	ldi	r25, 0x02	; 2
    2040:	0e 94 5e 07 	call	0xebc	; 0xebc <ir_mark>
    2044:	80 e3       	ldi	r24, 0x30	; 48
    2046:	92 e0       	ldi	r25, 0x02	; 2
    2048:	0e 94 6c 07 	call	0xed8	; 0xed8 <ir_space>
    204c:	cc 0c       	add	r12, r12
    204e:	dd 1c       	adc	r13, r13
    2050:	ee 1c       	adc	r14, r14
    2052:	ff 1c       	adc	r15, r15
    2054:	21 96       	adiw	r28, 0x01	; 1
    2056:	c0 17       	cp	r28, r16
    2058:	d1 07       	cpc	r29, r17
    205a:	2c f3       	brlt	.-54     	; 0x2026 <ir_sendNEC+0x36>
    205c:	80 e3       	ldi	r24, 0x30	; 48
    205e:	92 e0       	ldi	r25, 0x02	; 2
    2060:	0e 94 5e 07 	call	0xebc	; 0xebc <ir_mark>
    2064:	80 e0       	ldi	r24, 0x00	; 0
    2066:	90 e0       	ldi	r25, 0x00	; 0
    2068:	0e 94 6c 07 	call	0xed8	; 0xed8 <ir_space>
    206c:	df 91       	pop	r29
    206e:	cf 91       	pop	r28
    2070:	1f 91       	pop	r17
    2072:	0f 91       	pop	r16
    2074:	ff 90       	pop	r15
    2076:	ef 90       	pop	r14
    2078:	df 90       	pop	r13
    207a:	cf 90       	pop	r12
    207c:	08 95       	ret

0000207e <ir_sendSony>:
    207e:	cf 92       	push	r12
    2080:	df 92       	push	r13
    2082:	ef 92       	push	r14
    2084:	ff 92       	push	r15
    2086:	0f 93       	push	r16
    2088:	1f 93       	push	r17
    208a:	cf 93       	push	r28
    208c:	df 93       	push	r29
    208e:	6b 01       	movw	r12, r22
    2090:	7c 01       	movw	r14, r24
    2092:	ea 01       	movw	r28, r20
    2094:	88 e2       	ldi	r24, 0x28	; 40
    2096:	0e 94 71 07 	call	0xee2	; 0xee2 <ir_enableIROut>
    209a:	10 92 6e 00 	sts	0x006E, r1	; 0x80006e <__TEXT_REGION_LENGTH__+0x7e006e>
    209e:	80 e6       	ldi	r24, 0x60	; 96
    20a0:	99 e0       	ldi	r25, 0x09	; 9
    20a2:	0e 94 5e 07 	call	0xebc	; 0xebc <ir_mark>
    20a6:	88 e5       	ldi	r24, 0x58	; 88
    20a8:	92 e0       	ldi	r25, 0x02	; 2
    20aa:	0e 94 6c 07 	call	0xed8	; 0xed8 <ir_space>
    20ae:	80 e2       	ldi	r24, 0x20	; 32
    20b0:	90 e0       	ldi	r25, 0x00	; 0
    20b2:	8c 1b       	sub	r24, r28
    20b4:	9d 0b       	sbc	r25, r29
    20b6:	04 c0       	rjmp	.+8      	; 0x20c0 <ir_sendSony+0x42>
    20b8:	cc 0c       	add	r12, r12
    20ba:	dd 1c       	adc	r13, r13
    20bc:	ee 1c       	adc	r14, r14
    20be:	ff 1c       	adc	r15, r15
    20c0:	8a 95       	dec	r24
    20c2:	d2 f7       	brpl	.-12     	; 0x20b8 <ir_sendSony+0x3a>
    20c4:	00 e0       	ldi	r16, 0x00	; 0
    20c6:	10 e0       	ldi	r17, 0x00	; 0
    20c8:	19 c0       	rjmp	.+50     	; 0x20fc <ir_sendSony+0x7e>
    20ca:	ff 20       	and	r15, r15
    20cc:	4c f4       	brge	.+18     	; 0x20e0 <ir_sendSony+0x62>
    20ce:	80 eb       	ldi	r24, 0xB0	; 176
    20d0:	94 e0       	ldi	r25, 0x04	; 4
    20d2:	0e 94 5e 07 	call	0xebc	; 0xebc <ir_mark>
    20d6:	88 e5       	ldi	r24, 0x58	; 88
    20d8:	92 e0       	ldi	r25, 0x02	; 2
    20da:	0e 94 6c 07 	call	0xed8	; 0xed8 <ir_space>
    20de:	08 c0       	rjmp	.+16     	; 0x20f0 <ir_sendSony+0x72>
    20e0:	88 e5       	ldi	r24, 0x58	; 88
    20e2:	92 e0       	ldi	r25, 0x02	; 2
    20e4:	0e 94 5e 07 	call	0xebc	; 0xebc <ir_mark>
    20e8:	88 e5       	ldi	r24, 0x58	; 88
    20ea:	92 e0       	ldi	r25, 0x02	; 2
    20ec:	0e 94 6c 07 	call	0xed8	; 0xed8 <ir_space>
    20f0:	cc 0c       	add	r12, r12
    20f2:	dd 1c       	adc	r13, r13
    20f4:	ee 1c       	adc	r14, r14
    20f6:	ff 1c       	adc	r15, r15
    20f8:	0f 5f       	subi	r16, 0xFF	; 255
    20fa:	1f 4f       	sbci	r17, 0xFF	; 255
    20fc:	0c 17       	cp	r16, r28
    20fe:	1d 07       	cpc	r17, r29
    2100:	24 f3       	brlt	.-56     	; 0x20ca <ir_sendSony+0x4c>
    2102:	df 91       	pop	r29
    2104:	cf 91       	pop	r28
    2106:	1f 91       	pop	r17
    2108:	0f 91       	pop	r16
    210a:	ff 90       	pop	r15
    210c:	ef 90       	pop	r14
    210e:	df 90       	pop	r13
    2110:	cf 90       	pop	r12
    2112:	08 95       	ret

00002114 <ir_sendRC5>:
    2114:	cf 92       	push	r12
    2116:	df 92       	push	r13
    2118:	ef 92       	push	r14
    211a:	ff 92       	push	r15
    211c:	0f 93       	push	r16
    211e:	1f 93       	push	r17
    2120:	cf 93       	push	r28
    2122:	df 93       	push	r29
    2124:	6b 01       	movw	r12, r22
    2126:	7c 01       	movw	r14, r24
    2128:	ea 01       	movw	r28, r20
    212a:	84 e2       	ldi	r24, 0x24	; 36
    212c:	0e 94 71 07 	call	0xee2	; 0xee2 <ir_enableIROut>
    2130:	10 92 6e 00 	sts	0x006E, r1	; 0x80006e <__TEXT_REGION_LENGTH__+0x7e006e>
    2134:	80 e2       	ldi	r24, 0x20	; 32
    2136:	90 e0       	ldi	r25, 0x00	; 0
    2138:	8c 1b       	sub	r24, r28
    213a:	9d 0b       	sbc	r25, r29
    213c:	04 c0       	rjmp	.+8      	; 0x2146 <ir_sendRC5+0x32>
    213e:	cc 0c       	add	r12, r12
    2140:	dd 1c       	adc	r13, r13
    2142:	ee 1c       	adc	r14, r14
    2144:	ff 1c       	adc	r15, r15
    2146:	8a 95       	dec	r24
    2148:	d2 f7       	brpl	.-12     	; 0x213e <ir_sendRC5+0x2a>
    214a:	89 e7       	ldi	r24, 0x79	; 121
    214c:	93 e0       	ldi	r25, 0x03	; 3
    214e:	0e 94 5e 07 	call	0xebc	; 0xebc <ir_mark>
    2152:	89 e7       	ldi	r24, 0x79	; 121
    2154:	93 e0       	ldi	r25, 0x03	; 3
    2156:	0e 94 6c 07 	call	0xed8	; 0xed8 <ir_space>
    215a:	89 e7       	ldi	r24, 0x79	; 121
    215c:	93 e0       	ldi	r25, 0x03	; 3
    215e:	0e 94 5e 07 	call	0xebc	; 0xebc <ir_mark>
    2162:	00 e0       	ldi	r16, 0x00	; 0
    2164:	10 e0       	ldi	r17, 0x00	; 0
    2166:	19 c0       	rjmp	.+50     	; 0x219a <ir_sendRC5+0x86>
    2168:	ff 20       	and	r15, r15
    216a:	4c f4       	brge	.+18     	; 0x217e <ir_sendRC5+0x6a>
    216c:	89 e7       	ldi	r24, 0x79	; 121
    216e:	93 e0       	ldi	r25, 0x03	; 3
    2170:	0e 94 6c 07 	call	0xed8	; 0xed8 <ir_space>
    2174:	89 e7       	ldi	r24, 0x79	; 121
    2176:	93 e0       	ldi	r25, 0x03	; 3
    2178:	0e 94 5e 07 	call	0xebc	; 0xebc <ir_mark>
    217c:	08 c0       	rjmp	.+16     	; 0x218e <ir_sendRC5+0x7a>
    217e:	89 e7       	ldi	r24, 0x79	; 121
    2180:	93 e0       	ldi	r25, 0x03	; 3
    2182:	0e 94 5e 07 	call	0xebc	; 0xebc <ir_mark>
    2186:	89 e7       	ldi	r24, 0x79	; 121
    2188:	93 e0       	ldi	r25, 0x03	; 3
    218a:	0e 94 6c 07 	call	0xed8	; 0xed8 <ir_space>
    218e:	cc 0c       	add	r12, r12
    2190:	dd 1c       	adc	r13, r13
    2192:	ee 1c       	adc	r14, r14
    2194:	ff 1c       	adc	r15, r15
    2196:	0f 5f       	subi	r16, 0xFF	; 255
    2198:	1f 4f       	sbci	r17, 0xFF	; 255
    219a:	0c 17       	cp	r16, r28
    219c:	1d 07       	cpc	r17, r29
    219e:	24 f3       	brlt	.-56     	; 0x2168 <ir_sendRC5+0x54>
    21a0:	80 e0       	ldi	r24, 0x00	; 0
    21a2:	90 e0       	ldi	r25, 0x00	; 0
    21a4:	0e 94 6c 07 	call	0xed8	; 0xed8 <ir_space>
    21a8:	df 91       	pop	r29
    21aa:	cf 91       	pop	r28
    21ac:	1f 91       	pop	r17
    21ae:	0f 91       	pop	r16
    21b0:	ff 90       	pop	r15
    21b2:	ef 90       	pop	r14
    21b4:	df 90       	pop	r13
    21b6:	cf 90       	pop	r12
    21b8:	08 95       	ret

000021ba <ir_enableIRIn>:
    21ba:	ed ee       	ldi	r30, 0xED	; 237
    21bc:	f1 e0       	ldi	r31, 0x01	; 1
    21be:	11 82       	std	Z+1, r1	; 0x01
    21c0:	82 e0       	ldi	r24, 0x02	; 2
    21c2:	80 83       	st	Z, r24
    21c4:	10 92 ba 02 	sts	0x02BA, r1	; 0x8002ba <irparams+0xcd>
    21c8:	10 92 b9 02 	sts	0x02B9, r1	; 0x8002b9 <irparams+0xcc>
    21cc:	8a b1       	in	r24, 0x0a	; 10
    21ce:	8f 77       	andi	r24, 0x7F	; 127
    21d0:	8a b9       	out	0x0a, r24	; 10
    21d2:	f8 94       	cli
    21d4:	0e 94 27 07 	call	0xe4e	; 0xe4e <ir_timerCfgNorm>
    21d8:	0e 94 25 07 	call	0xe4a	; 0xe4a <ir_timerRst>
    21dc:	78 94       	sei
    21de:	08 95       	ret

000021e0 <ir_interruptService>:
{
  unsigned char irdata = 0;

  // timer is used for sampling IR signal

    ir_timerRst();
    21e0:	0e 94 25 07 	call	0xe4a	; 0xe4a <ir_timerRst>

    //irdata = (unsigned char)ir_digitalRead(irparams.recvpin);
	irdata = (IR_RECEIVE_PINx & (1<<IR_RECEIVE_PIN))>>IR_RECEIVE_PIN;
    21e4:	89 b1       	in	r24, 0x09	; 9
    21e6:	28 2f       	mov	r18, r24
    21e8:	22 1f       	adc	r18, r18
    21ea:	22 27       	eor	r18, r18
    21ec:	22 1f       	adc	r18, r18

    irparams.timer++; // One more 50us tick
    21ee:	ed ee       	ldi	r30, 0xED	; 237
    21f0:	f1 e0       	ldi	r31, 0x01	; 1
    21f2:	82 81       	ldd	r24, Z+2	; 0x02
    21f4:	93 81       	ldd	r25, Z+3	; 0x03
    21f6:	01 96       	adiw	r24, 0x01	; 1
    21f8:	93 83       	std	Z+3, r25	; 0x03
    21fa:	82 83       	std	Z+2, r24	; 0x02
    if (irparams.rawlen >= RAWBUF) {
    21fc:	80 91 b9 02 	lds	r24, 0x02B9	; 0x8002b9 <irparams+0xcc>
    2200:	90 91 ba 02 	lds	r25, 0x02BA	; 0x8002ba <irparams+0xcd>
    2204:	84 36       	cpi	r24, 0x64	; 100
    2206:	91 05       	cpc	r25, r1
    2208:	18 f0       	brcs	.+6      	; 0x2210 <ir_interruptService+0x30>
        // Buffer overflow
        irparams.rcvstate = STATE_STOP;
    220a:	85 e0       	ldi	r24, 0x05	; 5
    220c:	80 93 ed 01 	sts	0x01ED, r24	; 0x8001ed <irparams>
    }
    switch(irparams.rcvstate) {
    2210:	80 91 ed 01 	lds	r24, 0x01ED	; 0x8001ed <irparams>
    2214:	83 30       	cpi	r24, 0x03	; 3
    2216:	d1 f1       	breq	.+116    	; 0x228c <ir_interruptService+0xac>
    2218:	18 f4       	brcc	.+6      	; 0x2220 <ir_interruptService+0x40>
    221a:	82 30       	cpi	r24, 0x02	; 2
    221c:	41 f0       	breq	.+16     	; 0x222e <ir_interruptService+0x4e>
    221e:	08 95       	ret
    2220:	84 30       	cpi	r24, 0x04	; 4
    2222:	09 f4       	brne	.+2      	; 0x2226 <ir_interruptService+0x46>
    2224:	53 c0       	rjmp	.+166    	; 0x22cc <ir_interruptService+0xec>
    2226:	85 30       	cpi	r24, 0x05	; 5
    2228:	09 f4       	brne	.+2      	; 0x222c <ir_interruptService+0x4c>
    222a:	7b c0       	rjmp	.+246    	; 0x2322 <ir_interruptService+0x142>
    222c:	08 95       	ret
      case STATE_IDLE: // In the middle of a gap
        if (irdata == MARK) {
    222e:	21 30       	cpi	r18, 0x01	; 1
    2230:	09 f0       	breq	.+2      	; 0x2234 <ir_interruptService+0x54>
    2232:	7d c0       	rjmp	.+250    	; 0x232e <ir_interruptService+0x14e>
        if (irparams.timer < GAP_TICKS) {
    2234:	80 91 ef 01 	lds	r24, 0x01EF	; 0x8001ef <irparams+0x2>
    2238:	90 91 f0 01 	lds	r25, 0x01F0	; 0x8001f0 <irparams+0x3>
    223c:	84 36       	cpi	r24, 0x64	; 100
    223e:	91 05       	cpc	r25, r1
    2240:	28 f4       	brcc	.+10     	; 0x224c <ir_interruptService+0x6c>
            // Not big enough to be a gap.
            irparams.timer = 0;
    2242:	10 92 f0 01 	sts	0x01F0, r1	; 0x8001f0 <irparams+0x3>
    2246:	10 92 ef 01 	sts	0x01EF, r1	; 0x8001ef <irparams+0x2>
    224a:	08 95       	ret
        } 
        else {
            // gap just ended, record duration and start recording transmission
            irparams.rawlen = 0;
    224c:	ad ee       	ldi	r26, 0xED	; 237
    224e:	b1 e0       	ldi	r27, 0x01	; 1
    2250:	e9 eb       	ldi	r30, 0xB9	; 185
    2252:	f2 e0       	ldi	r31, 0x02	; 2
    2254:	11 82       	std	Z+1, r1	; 0x01
    2256:	10 82       	st	Z, r1
            irparams.rawbuf[irparams.rawlen++] = irparams.timer;
    2258:	80 81       	ld	r24, Z
    225a:	91 81       	ldd	r25, Z+1	; 0x01
    225c:	9c 01       	movw	r18, r24
    225e:	2f 5f       	subi	r18, 0xFF	; 255
    2260:	3f 4f       	sbci	r19, 0xFF	; 255
    2262:	31 83       	std	Z+1, r19	; 0x01
    2264:	20 83       	st	Z, r18
    2266:	12 96       	adiw	r26, 0x02	; 2
    2268:	2d 91       	ld	r18, X+
    226a:	3c 91       	ld	r19, X
    226c:	13 97       	sbiw	r26, 0x03	; 3
    226e:	fc 01       	movw	r30, r24
    2270:	32 96       	adiw	r30, 0x02	; 2
    2272:	ee 0f       	add	r30, r30
    2274:	ff 1f       	adc	r31, r31
    2276:	e3 51       	subi	r30, 0x13	; 19
    2278:	fe 4f       	sbci	r31, 0xFE	; 254
    227a:	31 83       	std	Z+1, r19	; 0x01
    227c:	20 83       	st	Z, r18
            irparams.timer = 0;
    227e:	13 96       	adiw	r26, 0x03	; 3
    2280:	1c 92       	st	X, r1
    2282:	1e 92       	st	-X, r1
    2284:	12 97       	sbiw	r26, 0x02	; 2
            irparams.rcvstate = STATE_MARK;
    2286:	83 e0       	ldi	r24, 0x03	; 3
    2288:	8c 93       	st	X, r24
    228a:	08 95       	ret
        }
        }
        break;
      case STATE_MARK: // timing MARK
        if (irdata == SPACE) {   // MARK ended, record time
    228c:	21 11       	cpse	r18, r1
    228e:	4f c0       	rjmp	.+158    	; 0x232e <ir_interruptService+0x14e>
            irparams.rawbuf[irparams.rawlen++] = irparams.timer;
    2290:	ad ee       	ldi	r26, 0xED	; 237
    2292:	b1 e0       	ldi	r27, 0x01	; 1
    2294:	e9 eb       	ldi	r30, 0xB9	; 185
    2296:	f2 e0       	ldi	r31, 0x02	; 2
    2298:	80 81       	ld	r24, Z
    229a:	91 81       	ldd	r25, Z+1	; 0x01
    229c:	9c 01       	movw	r18, r24
    229e:	2f 5f       	subi	r18, 0xFF	; 255
    22a0:	3f 4f       	sbci	r19, 0xFF	; 255
    22a2:	31 83       	std	Z+1, r19	; 0x01
    22a4:	20 83       	st	Z, r18
    22a6:	12 96       	adiw	r26, 0x02	; 2
    22a8:	2d 91       	ld	r18, X+
    22aa:	3c 91       	ld	r19, X
    22ac:	13 97       	sbiw	r26, 0x03	; 3
    22ae:	fc 01       	movw	r30, r24
    22b0:	32 96       	adiw	r30, 0x02	; 2
    22b2:	ee 0f       	add	r30, r30
    22b4:	ff 1f       	adc	r31, r31
    22b6:	e3 51       	subi	r30, 0x13	; 19
    22b8:	fe 4f       	sbci	r31, 0xFE	; 254
    22ba:	31 83       	std	Z+1, r19	; 0x01
    22bc:	20 83       	st	Z, r18
            irparams.timer = 0;
    22be:	13 96       	adiw	r26, 0x03	; 3
    22c0:	1c 92       	st	X, r1
    22c2:	1e 92       	st	-X, r1
    22c4:	12 97       	sbiw	r26, 0x02	; 2
            irparams.rcvstate = STATE_SPACE;
    22c6:	84 e0       	ldi	r24, 0x04	; 4
    22c8:	8c 93       	st	X, r24
    22ca:	08 95       	ret
        }
        break;
      case STATE_SPACE: // timing SPACE
        if (irdata == MARK) { // SPACE just ended, record it
    22cc:	21 30       	cpi	r18, 0x01	; 1
    22ce:	f1 f4       	brne	.+60     	; 0x230c <ir_interruptService+0x12c>
            irparams.rawbuf[irparams.rawlen++] = irparams.timer;
    22d0:	ad ee       	ldi	r26, 0xED	; 237
    22d2:	b1 e0       	ldi	r27, 0x01	; 1
    22d4:	e9 eb       	ldi	r30, 0xB9	; 185
    22d6:	f2 e0       	ldi	r31, 0x02	; 2
    22d8:	80 81       	ld	r24, Z
    22da:	91 81       	ldd	r25, Z+1	; 0x01
    22dc:	9c 01       	movw	r18, r24
    22de:	2f 5f       	subi	r18, 0xFF	; 255
    22e0:	3f 4f       	sbci	r19, 0xFF	; 255
    22e2:	31 83       	std	Z+1, r19	; 0x01
    22e4:	20 83       	st	Z, r18
    22e6:	12 96       	adiw	r26, 0x02	; 2
    22e8:	2d 91       	ld	r18, X+
    22ea:	3c 91       	ld	r19, X
    22ec:	13 97       	sbiw	r26, 0x03	; 3
    22ee:	fc 01       	movw	r30, r24
    22f0:	32 96       	adiw	r30, 0x02	; 2
    22f2:	ee 0f       	add	r30, r30
    22f4:	ff 1f       	adc	r31, r31
    22f6:	e3 51       	subi	r30, 0x13	; 19
    22f8:	fe 4f       	sbci	r31, 0xFE	; 254
    22fa:	31 83       	std	Z+1, r19	; 0x01
    22fc:	20 83       	st	Z, r18
            irparams.timer = 0;
    22fe:	13 96       	adiw	r26, 0x03	; 3
    2300:	1c 92       	st	X, r1
    2302:	1e 92       	st	-X, r1
    2304:	12 97       	sbiw	r26, 0x02	; 2
            irparams.rcvstate = STATE_MARK;
    2306:	83 e0       	ldi	r24, 0x03	; 3
    2308:	8c 93       	st	X, r24
    230a:	08 95       	ret
        } 
        else { // SPACE
          if (irparams.timer > GAP_TICKS) {
    230c:	80 91 ef 01 	lds	r24, 0x01EF	; 0x8001ef <irparams+0x2>
    2310:	90 91 f0 01 	lds	r25, 0x01F0	; 0x8001f0 <irparams+0x3>
    2314:	85 36       	cpi	r24, 0x65	; 101
    2316:	91 05       	cpc	r25, r1
    2318:	50 f0       	brcs	.+20     	; 0x232e <ir_interruptService+0x14e>
            // big SPACE, indicates gap between codes
            // Mark current code as ready for processing
            // Switch to STOP
            // Don't reset timer; keep counting space width
            irparams.rcvstate = STATE_STOP;
    231a:	85 e0       	ldi	r24, 0x05	; 5
    231c:	80 93 ed 01 	sts	0x01ED, r24	; 0x8001ed <irparams>
    2320:	08 95       	ret
          } 
        }
        break;
     case STATE_STOP: // waiting, measuring gap
        if (irdata == MARK) { // reset gap timer
    2322:	21 30       	cpi	r18, 0x01	; 1
    2324:	21 f4       	brne	.+8      	; 0x232e <ir_interruptService+0x14e>
           irparams.timer = 0;
    2326:	10 92 f0 01 	sts	0x01F0, r1	; 0x8001f0 <irparams+0x3>
    232a:	10 92 ef 01 	sts	0x01EF, r1	; 0x8001ef <irparams+0x2>
    232e:	08 95       	ret

00002330 <ir_resume>:
        }
    }*/
}

void ir_resume(void) {
  irparams.rcvstate = STATE_IDLE;
    2330:	82 e0       	ldi	r24, 0x02	; 2
    2332:	80 93 ed 01 	sts	0x01ED, r24	; 0x8001ed <irparams>
  irparams.rawlen = 0;
    2336:	10 92 ba 02 	sts	0x02BA, r1	; 0x8002ba <irparams+0xcd>
    233a:	10 92 b9 02 	sts	0x02B9, r1	; 0x8002b9 <irparams+0xcc>
    233e:	08 95       	ret

00002340 <ir_decode>:


// Decodes the received IR message
// Returns 0 if no data ready, 1 if data ready.
// Results of decoding are stored in results
int ir_decode(decode_results *results) {
    2340:	cf 93       	push	r28
    2342:	df 93       	push	r29
  results->rawlen = irparams.rawlen;
    2344:	20 91 b9 02 	lds	r18, 0x02B9	; 0x8002b9 <irparams+0xcc>
    2348:	30 91 ba 02 	lds	r19, 0x02BA	; 0x8002ba <irparams+0xcd>
    234c:	fc 01       	movw	r30, r24
    234e:	35 87       	std	Z+13, r19	; 0x0d
    2350:	24 87       	std	Z+12, r18	; 0x0c
  results->rawbuf = (volatile unsigned int *)&irparams.rawbuf[0];
    2352:	21 ef       	ldi	r18, 0xF1	; 241
    2354:	31 e0       	ldi	r19, 0x01	; 1
    2356:	33 87       	std	Z+11, r19	; 0x0b
    2358:	22 87       	std	Z+10, r18	; 0x0a
  if (irparams.rcvstate != STATE_STOP) {
    235a:	20 91 ed 01 	lds	r18, 0x01ED	; 0x8001ed <irparams>
    235e:	25 30       	cpi	r18, 0x05	; 5
    2360:	09 f0       	breq	.+2      	; 0x2364 <ir_decode+0x24>
    2362:	46 c0       	rjmp	.+140    	; 0x23f0 <ir_decode+0xb0>
    2364:	ec 01       	movw	r28, r24
    return ERR;
  }
  if (ir_decodeSigma(results)) {
    2366:	0e 94 99 09 	call	0x1332	; 0x1332 <ir_decodeSigma>
    236a:	67 2b       	or	r22, r23
    236c:	68 2b       	or	r22, r24
    236e:	69 2b       	or	r22, r25
    2370:	09 f0       	breq	.+2      	; 0x2374 <ir_decode+0x34>
    2372:	41 c0       	rjmp	.+130    	; 0x23f6 <ir_decode+0xb6>
     return DECODED;
  }
  if (ir_decodeNEC(results)) {
    2374:	ce 01       	movw	r24, r28
    2376:	b5 d8       	rcall	.-3734   	; 0x14e2 <ir_decodeNEC>
    2378:	67 2b       	or	r22, r23
    237a:	68 2b       	or	r22, r24
    237c:	69 2b       	or	r22, r25
    237e:	09 f0       	breq	.+2      	; 0x2382 <ir_decode+0x42>
    2380:	3d c0       	rjmp	.+122    	; 0x23fc <ir_decode+0xbc>
    return DECODED;
  }
  if (ir_decodeSony(results)) {
    2382:	ce 01       	movw	r24, r28
    2384:	74 d9       	rcall	.-3352   	; 0x166e <ir_decodeSony>
    2386:	67 2b       	or	r22, r23
    2388:	68 2b       	or	r22, r24
    238a:	69 2b       	or	r22, r25
    238c:	09 f0       	breq	.+2      	; 0x2390 <ir_decode+0x50>
    238e:	39 c0       	rjmp	.+114    	; 0x2402 <ir_decode+0xc2>
    return DECODED;
  }
  if (ir_decodeSanyo(results)) {
    2390:	ce 01       	movw	r24, r28
    2392:	1a da       	rcall	.-3020   	; 0x17c8 <ir_decodeSanyo>
    2394:	67 2b       	or	r22, r23
    2396:	68 2b       	or	r22, r24
    2398:	69 2b       	or	r22, r25
    239a:	b1 f5       	brne	.+108    	; 0x2408 <ir_decode+0xc8>
    return DECODED;
  }
  if (ir_decodeMitsubishi(results)) {
    239c:	ce 01       	movw	r24, r28
    239e:	ce da       	rcall	.-2660   	; 0x193c <ir_decodeMitsubishi>
    23a0:	67 2b       	or	r22, r23
    23a2:	68 2b       	or	r22, r24
    23a4:	69 2b       	or	r22, r25
    23a6:	99 f5       	brne	.+102    	; 0x240e <ir_decode+0xce>
    23a8:	ce 01       	movw	r24, r28
    return DECODED;
  }
  if (ir_decodeRC5(results)) {
    23aa:	0e 94 db 08 	call	0x11b6	; 0x11b6 <ir_decodeRC5>
    23ae:	67 2b       	or	r22, r23
    23b0:	68 2b       	or	r22, r24
    23b2:	69 2b       	or	r22, r25
    23b4:	79 f5       	brne	.+94     	; 0x2414 <ir_decode+0xd4>
    return DECODED;
  }
  if (ir_decodeRC6(results)) {
    23b6:	ce 01       	movw	r24, r28
    23b8:	5f db       	rcall	.-2370   	; 0x1a78 <ir_decodeRC6>
    23ba:	67 2b       	or	r22, r23
    23bc:	68 2b       	or	r22, r24
    23be:	69 2b       	or	r22, r25
    23c0:	61 f5       	brne	.+88     	; 0x241a <ir_decode+0xda>
    return DECODED;
  }
  if (ir_decodePanasonic(results)) {
    23c2:	ce 01       	movw	r24, r28
    23c4:	58 dc       	rcall	.-1872   	; 0x1c76 <ir_decodePanasonic>
    23c6:	67 2b       	or	r22, r23
    23c8:	68 2b       	or	r22, r24
    23ca:	69 2b       	or	r22, r25
    23cc:	49 f5       	brne	.+82     	; 0x2420 <ir_decode+0xe0>
     return DECODED;
  }
  if (ir_decodeJVC(results)) {
    23ce:	ce 01       	movw	r24, r28
    23d0:	2d dd       	rcall	.-1446   	; 0x1e2c <ir_decodeJVC>
    23d2:	67 2b       	or	r22, r23
    23d4:	68 2b       	or	r22, r24
    23d6:	69 2b       	or	r22, r25
    23d8:	31 f5       	brne	.+76     	; 0x2426 <ir_decode+0xe6>
    23da:	ce 01       	movw	r24, r28
  }

  // decodeHash returns a hash on any input.
  // Thus, it needs to be last in the list.
  // If you add any decodes, add them before this.
  if (ir_decodeHash(results)) {
    23dc:	0e 94 c2 07 	call	0xf84	; 0xf84 <ir_decodeHash>
    23e0:	67 2b       	or	r22, r23
    23e2:	68 2b       	or	r22, r24
    23e4:	69 2b       	or	r22, r25
    23e6:	11 f5       	brne	.+68     	; 0x242c <ir_decode+0xec>
    return DECODED;
  }
  // Throw away and start over
  ir_resume();
    23e8:	a3 df       	rcall	.-186    	; 0x2330 <ir_resume>
    23ea:	80 e0       	ldi	r24, 0x00	; 0
  return ERR;
    23ec:	90 e0       	ldi	r25, 0x00	; 0
    23ee:	20 c0       	rjmp	.+64     	; 0x2430 <ir_decode+0xf0>
    23f0:	80 e0       	ldi	r24, 0x00	; 0
// Results of decoding are stored in results
int ir_decode(decode_results *results) {
  results->rawlen = irparams.rawlen;
  results->rawbuf = (volatile unsigned int *)&irparams.rawbuf[0];
  if (irparams.rcvstate != STATE_STOP) {
    return ERR;
    23f2:	90 e0       	ldi	r25, 0x00	; 0
    23f4:	1d c0       	rjmp	.+58     	; 0x2430 <ir_decode+0xf0>
    23f6:	81 e0       	ldi	r24, 0x01	; 1
  }
  if (ir_decodeSigma(results)) {
     return DECODED;
    23f8:	90 e0       	ldi	r25, 0x00	; 0
    23fa:	1a c0       	rjmp	.+52     	; 0x2430 <ir_decode+0xf0>
    23fc:	81 e0       	ldi	r24, 0x01	; 1
  }
  if (ir_decodeNEC(results)) {
    return DECODED;
    23fe:	90 e0       	ldi	r25, 0x00	; 0
    2400:	17 c0       	rjmp	.+46     	; 0x2430 <ir_decode+0xf0>
    2402:	81 e0       	ldi	r24, 0x01	; 1
  }
  if (ir_decodeSony(results)) {
    return DECODED;
    2404:	90 e0       	ldi	r25, 0x00	; 0
    2406:	14 c0       	rjmp	.+40     	; 0x2430 <ir_decode+0xf0>
    2408:	81 e0       	ldi	r24, 0x01	; 1
  }
  if (ir_decodeSanyo(results)) {
    return DECODED;
    240a:	90 e0       	ldi	r25, 0x00	; 0
    240c:	11 c0       	rjmp	.+34     	; 0x2430 <ir_decode+0xf0>
    240e:	81 e0       	ldi	r24, 0x01	; 1
  }
  if (ir_decodeMitsubishi(results)) {
    return DECODED;
    2410:	90 e0       	ldi	r25, 0x00	; 0
    2412:	0e c0       	rjmp	.+28     	; 0x2430 <ir_decode+0xf0>
    2414:	81 e0       	ldi	r24, 0x01	; 1
  }
  if (ir_decodeRC5(results)) {
    return DECODED;
    2416:	90 e0       	ldi	r25, 0x00	; 0
    2418:	0b c0       	rjmp	.+22     	; 0x2430 <ir_decode+0xf0>
    241a:	81 e0       	ldi	r24, 0x01	; 1
  }
  if (ir_decodeRC6(results)) {
    return DECODED;
    241c:	90 e0       	ldi	r25, 0x00	; 0
    241e:	08 c0       	rjmp	.+16     	; 0x2430 <ir_decode+0xf0>
    2420:	81 e0       	ldi	r24, 0x01	; 1
  }
  if (ir_decodePanasonic(results)) {
     return DECODED;
    2422:	90 e0       	ldi	r25, 0x00	; 0
    2424:	05 c0       	rjmp	.+10     	; 0x2430 <ir_decode+0xf0>
    2426:	81 e0       	ldi	r24, 0x01	; 1
  }
  if (ir_decodeJVC(results)) {
     return DECODED;
    2428:	90 e0       	ldi	r25, 0x00	; 0
    242a:	02 c0       	rjmp	.+4      	; 0x2430 <ir_decode+0xf0>
    242c:	81 e0       	ldi	r24, 0x01	; 1

  // decodeHash returns a hash on any input.
  // Thus, it needs to be last in the list.
  // If you add any decodes, add them before this.
  if (ir_decodeHash(results)) {
    return DECODED;
    242e:	90 e0       	ldi	r25, 0x00	; 0
    2430:	df 91       	pop	r29
  }
  // Throw away and start over
  ir_resume();
  return ERR;
}
    2432:	cf 91       	pop	r28
    2434:	08 95       	ret

00002436 <lcd_read>:
    2436:	cf 93       	push	r28

    while ( (c = pgm_read_byte(progmem_s++)) ) {
        lcd_putc(c);
    }

}/* lcd_puts_p */
    2438:	88 23       	and	r24, r24
    243a:	31 f0       	breq	.+12     	; 0x2448 <lcd_read+0x12>
    243c:	80 91 e8 01 	lds	r24, 0x01E8	; 0x8001e8 <dataport>
    2440:	81 60       	ori	r24, 0x01	; 1
    2442:	80 93 e8 01 	sts	0x01E8, r24	; 0x8001e8 <dataport>
    2446:	05 c0       	rjmp	.+10     	; 0x2452 <lcd_read+0x1c>
    2448:	80 91 e8 01 	lds	r24, 0x01E8	; 0x8001e8 <dataport>
    244c:	8e 7f       	andi	r24, 0xFE	; 254
    244e:	80 93 e8 01 	sts	0x01E8, r24	; 0x8001e8 <dataport>
    2452:	80 91 e8 01 	lds	r24, 0x01E8	; 0x8001e8 <dataport>
    2456:	82 60       	ori	r24, 0x02	; 2
    2458:	80 93 e8 01 	sts	0x01E8, r24	; 0x8001e8 <dataport>
    245c:	60 91 e8 01 	lds	r22, 0x01E8	; 0x8001e8 <dataport>
    2460:	87 e0       	ldi	r24, 0x07	; 7
    2462:	0e d2       	rcall	.+1052   	; 0x2880 <pcf8574_setoutput>
    2464:	62 e0       	ldi	r22, 0x02	; 2
    2466:	87 e0       	ldi	r24, 0x07	; 7
    2468:	57 d2       	rcall	.+1198   	; 0x2918 <pcf8574_setoutputpinhigh>
    246a:	00 c0       	rjmp	.+0      	; 0x246c <lcd_read+0x36>
    246c:	64 e0       	ldi	r22, 0x04	; 4
    246e:	87 e0       	ldi	r24, 0x07	; 7
    2470:	6e d2       	rcall	.+1244   	; 0x294e <pcf8574_getinputpin>
    2472:	88 23       	and	r24, r24
    2474:	11 f0       	breq	.+4      	; 0x247a <lcd_read+0x44>
    2476:	c0 e0       	ldi	r28, 0x00	; 0
    2478:	01 c0       	rjmp	.+2      	; 0x247c <lcd_read+0x46>
    247a:	c0 e1       	ldi	r28, 0x10	; 16
    247c:	65 e0       	ldi	r22, 0x05	; 5
    247e:	87 e0       	ldi	r24, 0x07	; 7
    2480:	66 d2       	rcall	.+1228   	; 0x294e <pcf8574_getinputpin>
    2482:	81 11       	cpse	r24, r1
    2484:	01 c0       	rjmp	.+2      	; 0x2488 <lcd_read+0x52>
    2486:	c0 62       	ori	r28, 0x20	; 32
    2488:	66 e0       	ldi	r22, 0x06	; 6
    248a:	87 e0       	ldi	r24, 0x07	; 7
    248c:	60 d2       	rcall	.+1216   	; 0x294e <pcf8574_getinputpin>
    248e:	81 11       	cpse	r24, r1
    2490:	01 c0       	rjmp	.+2      	; 0x2494 <lcd_read+0x5e>
    2492:	c0 64       	ori	r28, 0x40	; 64
    2494:	67 e0       	ldi	r22, 0x07	; 7
    2496:	87 e0       	ldi	r24, 0x07	; 7
    2498:	5a d2       	rcall	.+1204   	; 0x294e <pcf8574_getinputpin>
    249a:	81 11       	cpse	r24, r1
    249c:	01 c0       	rjmp	.+2      	; 0x24a0 <lcd_read+0x6a>
    249e:	c0 68       	ori	r28, 0x80	; 128
    24a0:	62 e0       	ldi	r22, 0x02	; 2
    24a2:	87 e0       	ldi	r24, 0x07	; 7
    24a4:	3c d2       	rcall	.+1144   	; 0x291e <pcf8574_setoutputpinlow>
    24a6:	00 c0       	rjmp	.+0      	; 0x24a8 <lcd_read+0x72>
    24a8:	62 e0       	ldi	r22, 0x02	; 2
    24aa:	87 e0       	ldi	r24, 0x07	; 7
    24ac:	35 d2       	rcall	.+1130   	; 0x2918 <pcf8574_setoutputpinhigh>
    24ae:	00 c0       	rjmp	.+0      	; 0x24b0 <lcd_read+0x7a>
    24b0:	64 e0       	ldi	r22, 0x04	; 4
    24b2:	87 e0       	ldi	r24, 0x07	; 7
    24b4:	4c d2       	rcall	.+1176   	; 0x294e <pcf8574_getinputpin>
    24b6:	81 11       	cpse	r24, r1
    24b8:	01 c0       	rjmp	.+2      	; 0x24bc <lcd_read+0x86>
    24ba:	c1 60       	ori	r28, 0x01	; 1
    24bc:	65 e0       	ldi	r22, 0x05	; 5
    24be:	87 e0       	ldi	r24, 0x07	; 7
    24c0:	46 d2       	rcall	.+1164   	; 0x294e <pcf8574_getinputpin>
    24c2:	81 11       	cpse	r24, r1
    24c4:	01 c0       	rjmp	.+2      	; 0x24c8 <lcd_read+0x92>
    24c6:	c2 60       	ori	r28, 0x02	; 2
    24c8:	66 e0       	ldi	r22, 0x06	; 6
    24ca:	87 e0       	ldi	r24, 0x07	; 7
    24cc:	40 d2       	rcall	.+1152   	; 0x294e <pcf8574_getinputpin>
    24ce:	81 11       	cpse	r24, r1
    24d0:	01 c0       	rjmp	.+2      	; 0x24d4 <lcd_read+0x9e>
    24d2:	c4 60       	ori	r28, 0x04	; 4
    24d4:	67 e0       	ldi	r22, 0x07	; 7
    24d6:	87 e0       	ldi	r24, 0x07	; 7
    24d8:	3a d2       	rcall	.+1140   	; 0x294e <pcf8574_getinputpin>
    24da:	81 11       	cpse	r24, r1
    24dc:	01 c0       	rjmp	.+2      	; 0x24e0 <lcd_read+0xaa>
    24de:	c8 60       	ori	r28, 0x08	; 8
    24e0:	62 e0       	ldi	r22, 0x02	; 2
    24e2:	87 e0       	ldi	r24, 0x07	; 7
    24e4:	1c d2       	rcall	.+1080   	; 0x291e <pcf8574_setoutputpinlow>
    24e6:	8c 2f       	mov	r24, r28
    24e8:	cf 91       	pop	r28
    24ea:	08 95       	ret

000024ec <lcd_waitbusy>:
    24ec:	80 e0       	ldi	r24, 0x00	; 0
    24ee:	a3 df       	rcall	.-186    	; 0x2436 <lcd_read>
    24f0:	88 23       	and	r24, r24
    24f2:	e4 f3       	brlt	.-8      	; 0x24ec <lcd_waitbusy>
    24f4:	84 e0       	ldi	r24, 0x04	; 4
    24f6:	90 e0       	ldi	r25, 0x00	; 0
    24f8:	01 97       	sbiw	r24, 0x01	; 1
    24fa:	f1 f7       	brne	.-4      	; 0x24f8 <lcd_waitbusy+0xc>
    24fc:	80 e0       	ldi	r24, 0x00	; 0
    24fe:	9b cf       	rjmp	.-202    	; 0x2436 <lcd_read>
    2500:	08 95       	ret

00002502 <toggle_e>:
    2502:	62 e0       	ldi	r22, 0x02	; 2
    2504:	87 e0       	ldi	r24, 0x07	; 7
    2506:	08 d2       	rcall	.+1040   	; 0x2918 <pcf8574_setoutputpinhigh>
    2508:	00 c0       	rjmp	.+0      	; 0x250a <toggle_e+0x8>
    250a:	62 e0       	ldi	r22, 0x02	; 2
    250c:	87 e0       	ldi	r24, 0x07	; 7
    250e:	07 c2       	rjmp	.+1038   	; 0x291e <pcf8574_setoutputpinlow>
    2510:	08 95       	ret

00002512 <lcd_write>:
    2512:	cf 93       	push	r28
    2514:	c8 2f       	mov	r28, r24
    2516:	66 23       	and	r22, r22
    2518:	31 f0       	breq	.+12     	; 0x2526 <lcd_write+0x14>
    251a:	80 91 e8 01 	lds	r24, 0x01E8	; 0x8001e8 <dataport>
    251e:	81 60       	ori	r24, 0x01	; 1
    2520:	80 93 e8 01 	sts	0x01E8, r24	; 0x8001e8 <dataport>
    2524:	05 c0       	rjmp	.+10     	; 0x2530 <lcd_write+0x1e>
    2526:	80 91 e8 01 	lds	r24, 0x01E8	; 0x8001e8 <dataport>
    252a:	8e 7f       	andi	r24, 0xFE	; 254
    252c:	80 93 e8 01 	sts	0x01E8, r24	; 0x8001e8 <dataport>
    2530:	80 91 e8 01 	lds	r24, 0x01E8	; 0x8001e8 <dataport>
    2534:	8d 7f       	andi	r24, 0xFD	; 253
    2536:	80 93 e8 01 	sts	0x01E8, r24	; 0x8001e8 <dataport>
    253a:	60 91 e8 01 	lds	r22, 0x01E8	; 0x8001e8 <dataport>
    253e:	87 e0       	ldi	r24, 0x07	; 7
    2540:	9f d1       	rcall	.+830    	; 0x2880 <pcf8574_setoutput>
    2542:	80 91 e8 01 	lds	r24, 0x01E8	; 0x8001e8 <dataport>
    2546:	8f 77       	andi	r24, 0x7F	; 127
    2548:	80 93 e8 01 	sts	0x01E8, r24	; 0x8001e8 <dataport>
    254c:	80 91 e8 01 	lds	r24, 0x01E8	; 0x8001e8 <dataport>
    2550:	8f 7b       	andi	r24, 0xBF	; 191
    2552:	80 93 e8 01 	sts	0x01E8, r24	; 0x8001e8 <dataport>
    2556:	80 91 e8 01 	lds	r24, 0x01E8	; 0x8001e8 <dataport>
    255a:	8f 7d       	andi	r24, 0xDF	; 223
    255c:	80 93 e8 01 	sts	0x01E8, r24	; 0x8001e8 <dataport>
    2560:	80 91 e8 01 	lds	r24, 0x01E8	; 0x8001e8 <dataport>
    2564:	8f 7e       	andi	r24, 0xEF	; 239
    2566:	80 93 e8 01 	sts	0x01E8, r24	; 0x8001e8 <dataport>
    256a:	cc 23       	and	r28, r28
    256c:	2c f4       	brge	.+10     	; 0x2578 <lcd_write+0x66>
    256e:	80 91 e8 01 	lds	r24, 0x01E8	; 0x8001e8 <dataport>
    2572:	80 68       	ori	r24, 0x80	; 128
    2574:	80 93 e8 01 	sts	0x01E8, r24	; 0x8001e8 <dataport>
    2578:	c6 ff       	sbrs	r28, 6
    257a:	05 c0       	rjmp	.+10     	; 0x2586 <lcd_write+0x74>
    257c:	80 91 e8 01 	lds	r24, 0x01E8	; 0x8001e8 <dataport>
    2580:	80 64       	ori	r24, 0x40	; 64
    2582:	80 93 e8 01 	sts	0x01E8, r24	; 0x8001e8 <dataport>
    2586:	c5 ff       	sbrs	r28, 5
    2588:	05 c0       	rjmp	.+10     	; 0x2594 <lcd_write+0x82>
    258a:	80 91 e8 01 	lds	r24, 0x01E8	; 0x8001e8 <dataport>
    258e:	80 62       	ori	r24, 0x20	; 32
    2590:	80 93 e8 01 	sts	0x01E8, r24	; 0x8001e8 <dataport>
    2594:	c4 ff       	sbrs	r28, 4
    2596:	05 c0       	rjmp	.+10     	; 0x25a2 <lcd_write+0x90>
    2598:	80 91 e8 01 	lds	r24, 0x01E8	; 0x8001e8 <dataport>
    259c:	80 61       	ori	r24, 0x10	; 16
    259e:	80 93 e8 01 	sts	0x01E8, r24	; 0x8001e8 <dataport>
    25a2:	60 91 e8 01 	lds	r22, 0x01E8	; 0x8001e8 <dataport>
    25a6:	87 e0       	ldi	r24, 0x07	; 7
    25a8:	6b d1       	rcall	.+726    	; 0x2880 <pcf8574_setoutput>
    25aa:	ab df       	rcall	.-170    	; 0x2502 <toggle_e>
    25ac:	80 91 e8 01 	lds	r24, 0x01E8	; 0x8001e8 <dataport>
    25b0:	8f 77       	andi	r24, 0x7F	; 127
    25b2:	80 93 e8 01 	sts	0x01E8, r24	; 0x8001e8 <dataport>
    25b6:	80 91 e8 01 	lds	r24, 0x01E8	; 0x8001e8 <dataport>
    25ba:	8f 7b       	andi	r24, 0xBF	; 191
    25bc:	80 93 e8 01 	sts	0x01E8, r24	; 0x8001e8 <dataport>
    25c0:	80 91 e8 01 	lds	r24, 0x01E8	; 0x8001e8 <dataport>
    25c4:	8f 7d       	andi	r24, 0xDF	; 223
    25c6:	80 93 e8 01 	sts	0x01E8, r24	; 0x8001e8 <dataport>
    25ca:	80 91 e8 01 	lds	r24, 0x01E8	; 0x8001e8 <dataport>
    25ce:	8f 7e       	andi	r24, 0xEF	; 239
    25d0:	80 93 e8 01 	sts	0x01E8, r24	; 0x8001e8 <dataport>
    25d4:	c3 ff       	sbrs	r28, 3
    25d6:	05 c0       	rjmp	.+10     	; 0x25e2 <lcd_write+0xd0>
    25d8:	80 91 e8 01 	lds	r24, 0x01E8	; 0x8001e8 <dataport>
    25dc:	80 68       	ori	r24, 0x80	; 128
    25de:	80 93 e8 01 	sts	0x01E8, r24	; 0x8001e8 <dataport>
    25e2:	c2 ff       	sbrs	r28, 2
    25e4:	05 c0       	rjmp	.+10     	; 0x25f0 <lcd_write+0xde>
    25e6:	80 91 e8 01 	lds	r24, 0x01E8	; 0x8001e8 <dataport>
    25ea:	80 64       	ori	r24, 0x40	; 64
    25ec:	80 93 e8 01 	sts	0x01E8, r24	; 0x8001e8 <dataport>
    25f0:	c1 ff       	sbrs	r28, 1
    25f2:	05 c0       	rjmp	.+10     	; 0x25fe <lcd_write+0xec>
    25f4:	80 91 e8 01 	lds	r24, 0x01E8	; 0x8001e8 <dataport>
    25f8:	80 62       	ori	r24, 0x20	; 32
    25fa:	80 93 e8 01 	sts	0x01E8, r24	; 0x8001e8 <dataport>
    25fe:	c0 ff       	sbrs	r28, 0
    2600:	05 c0       	rjmp	.+10     	; 0x260c <lcd_write+0xfa>
    2602:	80 91 e8 01 	lds	r24, 0x01E8	; 0x8001e8 <dataport>
    2606:	80 61       	ori	r24, 0x10	; 16
    2608:	80 93 e8 01 	sts	0x01E8, r24	; 0x8001e8 <dataport>
    260c:	60 91 e8 01 	lds	r22, 0x01E8	; 0x8001e8 <dataport>
    2610:	87 e0       	ldi	r24, 0x07	; 7
    2612:	36 d1       	rcall	.+620    	; 0x2880 <pcf8574_setoutput>
    2614:	76 df       	rcall	.-276    	; 0x2502 <toggle_e>
    2616:	80 91 e8 01 	lds	r24, 0x01E8	; 0x8001e8 <dataport>
    261a:	80 61       	ori	r24, 0x10	; 16
    261c:	80 93 e8 01 	sts	0x01E8, r24	; 0x8001e8 <dataport>
    2620:	80 91 e8 01 	lds	r24, 0x01E8	; 0x8001e8 <dataport>
    2624:	80 62       	ori	r24, 0x20	; 32
    2626:	80 93 e8 01 	sts	0x01E8, r24	; 0x8001e8 <dataport>
    262a:	80 91 e8 01 	lds	r24, 0x01E8	; 0x8001e8 <dataport>
    262e:	80 64       	ori	r24, 0x40	; 64
    2630:	80 93 e8 01 	sts	0x01E8, r24	; 0x8001e8 <dataport>
    2634:	80 91 e8 01 	lds	r24, 0x01E8	; 0x8001e8 <dataport>
    2638:	80 68       	ori	r24, 0x80	; 128
    263a:	80 93 e8 01 	sts	0x01E8, r24	; 0x8001e8 <dataport>
    263e:	60 91 e8 01 	lds	r22, 0x01E8	; 0x8001e8 <dataport>
    2642:	87 e0       	ldi	r24, 0x07	; 7
    2644:	1d d1       	rcall	.+570    	; 0x2880 <pcf8574_setoutput>
    2646:	cf 91       	pop	r28
    2648:	08 95       	ret

0000264a <lcd_command>:
    264a:	cf 93       	push	r28
    264c:	c8 2f       	mov	r28, r24
    264e:	4e df       	rcall	.-356    	; 0x24ec <lcd_waitbusy>
    2650:	60 e0       	ldi	r22, 0x00	; 0
    2652:	8c 2f       	mov	r24, r28
    2654:	5e df       	rcall	.-324    	; 0x2512 <lcd_write>
    2656:	cf 91       	pop	r28
    2658:	08 95       	ret

0000265a <lcd_gotoxy>:
    265a:	61 11       	cpse	r22, r1
    265c:	03 c0       	rjmp	.+6      	; 0x2664 <lcd_gotoxy+0xa>
    265e:	80 58       	subi	r24, 0x80	; 128
    2660:	f4 cf       	rjmp	.-24     	; 0x264a <lcd_command>
    2662:	08 95       	ret
    2664:	80 54       	subi	r24, 0x40	; 64
    2666:	f1 cf       	rjmp	.-30     	; 0x264a <lcd_command>
    2668:	08 95       	ret

0000266a <lcd_clrscr>:
    266a:	81 e0       	ldi	r24, 0x01	; 1
    266c:	ee cf       	rjmp	.-36     	; 0x264a <lcd_command>
    266e:	08 95       	ret

00002670 <lcd_led>:
    2670:	88 23       	and	r24, r24
    2672:	31 f0       	breq	.+12     	; 0x2680 <lcd_led+0x10>
    2674:	80 91 e8 01 	lds	r24, 0x01E8	; 0x8001e8 <dataport>
    2678:	87 7f       	andi	r24, 0xF7	; 247
    267a:	80 93 e8 01 	sts	0x01E8, r24	; 0x8001e8 <dataport>
    267e:	05 c0       	rjmp	.+10     	; 0x268a <lcd_led+0x1a>
    2680:	80 91 e8 01 	lds	r24, 0x01E8	; 0x8001e8 <dataport>
    2684:	88 60       	ori	r24, 0x08	; 8
    2686:	80 93 e8 01 	sts	0x01E8, r24	; 0x8001e8 <dataport>
    268a:	60 91 e8 01 	lds	r22, 0x01E8	; 0x8001e8 <dataport>
    268e:	87 e0       	ldi	r24, 0x07	; 7
    2690:	f7 c0       	rjmp	.+494    	; 0x2880 <pcf8574_setoutput>
    2692:	08 95       	ret

00002694 <lcd_home>:
    2694:	82 e0       	ldi	r24, 0x02	; 2
    2696:	d9 cf       	rjmp	.-78     	; 0x264a <lcd_command>
    2698:	08 95       	ret

0000269a <lcd_putc>:
    269a:	cf 93       	push	r28
    269c:	c8 2f       	mov	r28, r24
    269e:	26 df       	rcall	.-436    	; 0x24ec <lcd_waitbusy>
    26a0:	ca 30       	cpi	r28, 0x0A	; 10
    26a2:	41 f4       	brne	.+16     	; 0x26b4 <lcd_putc+0x1a>
    26a4:	80 34       	cpi	r24, 0x40	; 64
    26a6:	10 f4       	brcc	.+4      	; 0x26ac <lcd_putc+0x12>
    26a8:	80 e4       	ldi	r24, 0x40	; 64
    26aa:	01 c0       	rjmp	.+2      	; 0x26ae <lcd_putc+0x14>
    26ac:	80 e0       	ldi	r24, 0x00	; 0
    26ae:	80 58       	subi	r24, 0x80	; 128
    26b0:	cc df       	rcall	.-104    	; 0x264a <lcd_command>
    26b2:	03 c0       	rjmp	.+6      	; 0x26ba <lcd_putc+0x20>
    26b4:	61 e0       	ldi	r22, 0x01	; 1
    26b6:	8c 2f       	mov	r24, r28
    26b8:	2c df       	rcall	.-424    	; 0x2512 <lcd_write>
    26ba:	cf 91       	pop	r28
    26bc:	08 95       	ret

000026be <lcd_puts>:
    26be:	cf 93       	push	r28
    26c0:	df 93       	push	r29
    26c2:	fc 01       	movw	r30, r24
    26c4:	02 c0       	rjmp	.+4      	; 0x26ca <lcd_puts+0xc>
    26c6:	e9 df       	rcall	.-46     	; 0x269a <lcd_putc>
    26c8:	fe 01       	movw	r30, r28
    26ca:	ef 01       	movw	r28, r30
    26cc:	21 96       	adiw	r28, 0x01	; 1
    26ce:	80 81       	ld	r24, Z
    26d0:	81 11       	cpse	r24, r1
    26d2:	f9 cf       	rjmp	.-14     	; 0x26c6 <lcd_puts+0x8>
    26d4:	df 91       	pop	r29
    26d6:	cf 91       	pop	r28
    26d8:	08 95       	ret

000026da <lcd_init>:
                   LCD_DISP_ON_CURSOR      display on, cursor on
                   LCD_DISP_CURSOR_BLINK   display on, cursor on flashing
Returns:  none
*************************************************************************/
void lcd_init(uint8_t dispAttr)
{
    26da:	1f 93       	push	r17
    26dc:	cf 93       	push	r28
    26de:	df 93       	push	r29
    26e0:	18 2f       	mov	r17, r24
	#if LCD_PCF8574_INIT == 1
	//init pcf8574
	pcf8574_init();
    26e2:	bd d0       	rcall	.+378    	; 0x285e <pcf8574_init>
	#endif

	dataport = 0;
    26e4:	10 92 e8 01 	sts	0x01E8, r1	; 0x8001e8 <dataport>
	pcf8574_setoutput(LCD_PCF8574_DEVICEID, dataport);
    26e8:	60 91 e8 01 	lds	r22, 0x01E8	; 0x8001e8 <dataport>
    26ec:	87 e0       	ldi	r24, 0x07	; 7
    26ee:	c8 d0       	rcall	.+400    	; 0x2880 <pcf8574_setoutput>
static inline void _delayFourCycles(unsigned int __count)
{
    if ( __count == 0 )    
        __asm__ __volatile__( "rjmp 1f\n 1:" );    // 2 cycles
    else
        __asm__ __volatile__ (
    26f0:	80 e0       	ldi	r24, 0x00	; 0
    26f2:	9d e7       	ldi	r25, 0x7D	; 125
    26f4:	01 97       	sbiw	r24, 0x01	; 1
    26f6:	f1 f7       	brne	.-4      	; 0x26f4 <lcd_init+0x1a>
	pcf8574_setoutput(LCD_PCF8574_DEVICEID, dataport);

	delay(16000);        /* wait 16ms or more after power-on       */

    /* initial write to lcd is 8bit */
    dataport |= _BV(LCD_DATA1_PIN);  // _BV(LCD_FUNCTION)>>4;
    26f8:	80 91 e8 01 	lds	r24, 0x01E8	; 0x8001e8 <dataport>
    26fc:	80 62       	ori	r24, 0x20	; 32
    26fe:	80 93 e8 01 	sts	0x01E8, r24	; 0x8001e8 <dataport>
    dataport |= _BV(LCD_DATA0_PIN);  // _BV(LCD_FUNCTION_8BIT)>>4;
    2702:	80 91 e8 01 	lds	r24, 0x01E8	; 0x8001e8 <dataport>
    2706:	80 61       	ori	r24, 0x10	; 16
    2708:	80 93 e8 01 	sts	0x01E8, r24	; 0x8001e8 <dataport>
    pcf8574_setoutput(LCD_PCF8574_DEVICEID, dataport);
    270c:	60 91 e8 01 	lds	r22, 0x01E8	; 0x8001e8 <dataport>
    2710:	87 e0       	ldi	r24, 0x07	; 7

    lcd_e_toggle();
    2712:	b6 d0       	rcall	.+364    	; 0x2880 <pcf8574_setoutput>
    2714:	f6 de       	rcall	.-532    	; 0x2502 <toggle_e>
static inline void _delayFourCycles(unsigned int __count)
{
    if ( __count == 0 )    
        __asm__ __volatile__( "rjmp 1f\n 1:" );    // 2 cycles
    else
        __asm__ __volatile__ (
    2716:	80 e0       	ldi	r24, 0x00	; 0
    2718:	97 e2       	ldi	r25, 0x27	; 39
    271a:	01 97       	sbiw	r24, 0x01	; 1

    lcd_e_toggle();
    delay(4992);         /* delay, busy flag can't be checked here */

    /* repeat last command */ 
    lcd_e_toggle();      
    271c:	f1 f7       	brne	.-4      	; 0x271a <lcd_init+0x40>
    271e:	f1 de       	rcall	.-542    	; 0x2502 <toggle_e>
static inline void _delayFourCycles(unsigned int __count)
{
    if ( __count == 0 )    
        __asm__ __volatile__( "rjmp 1f\n 1:" );    // 2 cycles
    else
        __asm__ __volatile__ (
    2720:	c0 e8       	ldi	r28, 0x80	; 128
    2722:	d0 e0       	ldi	r29, 0x00	; 0
    2724:	ce 01       	movw	r24, r28
    2726:	01 97       	sbiw	r24, 0x01	; 1
    /* repeat last command */ 
    lcd_e_toggle();      
    delay(64);           /* delay, busy flag can't be checked here */
    
    /* repeat last command a third time */
    lcd_e_toggle();      
    2728:	f1 f7       	brne	.-4      	; 0x2726 <lcd_init+0x4c>
    272a:	eb de       	rcall	.-554    	; 0x2502 <toggle_e>
static inline void _delayFourCycles(unsigned int __count)
{
    if ( __count == 0 )    
        __asm__ __volatile__( "rjmp 1f\n 1:" );    // 2 cycles
    else
        __asm__ __volatile__ (
    272c:	ce 01       	movw	r24, r28
    272e:	01 97       	sbiw	r24, 0x01	; 1
    2730:	f1 f7       	brne	.-4      	; 0x272e <lcd_init+0x54>
    /* repeat last command a third time */
    lcd_e_toggle();      
    delay(64);           /* delay, busy flag can't be checked here */

    /* now configure for 4bit mode */
    dataport &= ~_BV(LCD_DATA0_PIN);
    2732:	80 91 e8 01 	lds	r24, 0x01E8	; 0x8001e8 <dataport>
    2736:	8f 7e       	andi	r24, 0xEF	; 239
    pcf8574_setoutput(LCD_PCF8574_DEVICEID, dataport);
    2738:	80 93 e8 01 	sts	0x01E8, r24	; 0x8001e8 <dataport>
    273c:	60 91 e8 01 	lds	r22, 0x01E8	; 0x8001e8 <dataport>
    lcd_e_toggle();
    2740:	87 e0       	ldi	r24, 0x07	; 7
static inline void _delayFourCycles(unsigned int __count)
{
    if ( __count == 0 )    
        __asm__ __volatile__( "rjmp 1f\n 1:" );    // 2 cycles
    else
        __asm__ __volatile__ (
    2742:	9e d0       	rcall	.+316    	; 0x2880 <pcf8574_setoutput>
    lcd_e_toggle();
    delay(64);           /* some displays need this additional delay */
    
    /* from now the LCD only accepts 4 bit I/O, we can use lcd_command() */    

    lcd_command(LCD_FUNCTION_DEFAULT);      /* function set: display lines  */
    2744:	de de       	rcall	.-580    	; 0x2502 <toggle_e>
    2746:	21 97       	sbiw	r28, 0x01	; 1

    lcd_command(LCD_DISP_OFF);              /* display off                  */
    2748:	f1 f7       	brne	.-4      	; 0x2746 <lcd_init+0x6c>
    274a:	88 e2       	ldi	r24, 0x28	; 40
    274c:	7e df       	rcall	.-260    	; 0x264a <lcd_command>
    lcd_clrscr();                           /* display clear                */
    274e:	88 e0       	ldi	r24, 0x08	; 8
    2750:	7c df       	rcall	.-264    	; 0x264a <lcd_command>
    lcd_command(LCD_MODE_DEFAULT);          /* set entry mode               */
    2752:	8b df       	rcall	.-234    	; 0x266a <lcd_clrscr>
    2754:	86 e0       	ldi	r24, 0x06	; 6
    2756:	79 df       	rcall	.-270    	; 0x264a <lcd_command>
    lcd_command(dispAttr);                  /* display/cursor control       */
    2758:	81 2f       	mov	r24, r17
    275a:	77 df       	rcall	.-274    	; 0x264a <lcd_command>
    275c:	df 91       	pop	r29

}/* lcd_init */
    275e:	cf 91       	pop	r28
    2760:	1f 91       	pop	r17
    2762:	08 95       	ret

00002764 <main>:
#include "lcdpcf8574.h"



int main(void)
{
    2764:	cf 93       	push	r28
    2766:	df 93       	push	r29
    2768:	00 d0       	rcall	.+0      	; 0x276a <main+0x6>
    276a:	cd b7       	in	r28, 0x3d	; 61
    276c:	de b7       	in	r29, 0x3e	; 62
	uint16_t  keyboardRef;
	DDRD |= 1<<6;
    276e:	8a b1       	in	r24, 0x0a	; 10
    2770:	80 64       	ori	r24, 0x40	; 64
    2772:	8a b9       	out	0x0a, r24	; 10
	initSysTick();
    2774:	04 d1       	rcall	.+520    	; 0x297e <initSysTick>
	sei();
    2776:	78 94       	sei
	lcd_init(LCD_DISP_ON);
    2778:	8c e0       	ldi	r24, 0x0C	; 12
    277a:	af df       	rcall	.-162    	; 0x26da <lcd_init>
	lcd_led(0);
    277c:	80 e0       	ldi	r24, 0x00	; 0
    277e:	78 df       	rcall	.-272    	; 0x2670 <lcd_led>
    2780:	89 e1       	ldi	r24, 0x19	; 25
	
	updatePtr = updateMain;
    2782:	93 e0       	ldi	r25, 0x03	; 3
    2784:	90 93 ec 01 	sts	0x01EC, r25	; 0x8001ec <updatePtr+0x1>
    2788:	80 93 eb 01 	sts	0x01EB, r24	; 0x8001eb <updatePtr>
	
	
	marqueTime16(&keyboardRef);
    278c:	ce 01       	movw	r24, r28
    278e:	01 96       	adiw	r24, 0x01	; 1
    2790:	0c d1       	rcall	.+536    	; 0x29aa <marqueTime16>
	while(1)
	{
		if(elapsedTime16(&keyboardRef)>2) // 20ms
    2792:	ce 01       	movw	r24, r28
    2794:	01 96       	adiw	r24, 0x01	; 1
    2796:	11 d1       	rcall	.+546    	; 0x29ba <elapsedTime16>
    2798:	03 97       	sbiw	r24, 0x03	; 3
    279a:	28 f0       	brcs	.+10     	; 0x27a6 <main+0x42>
		{
			processKeyboard();
    279c:	0e 94 eb 02 	call	0x5d6	; 0x5d6 <processKeyboard>
			marqueTime16(&keyboardRef);
    27a0:	ce 01       	movw	r24, r28
    27a2:	01 96       	adiw	r24, 0x01	; 1
    27a4:	02 d1       	rcall	.+516    	; 0x29aa <marqueTime16>
    27a6:	80 91 00 01 	lds	r24, 0x0100	; 0x800100 <ChangedScreen>
		}
		if(ChangedScreen)
    27aa:	88 23       	and	r24, r24
    27ac:	41 f0       	breq	.+16     	; 0x27be <main+0x5a>
    27ae:	e0 91 eb 01 	lds	r30, 0x01EB	; 0x8001eb <updatePtr>
		{
			updatePtr();
    27b2:	f0 91 ec 01 	lds	r31, 0x01EC	; 0x8001ec <updatePtr+0x1>
    27b6:	09 95       	icall
    27b8:	10 92 00 01 	sts	0x0100, r1	; 0x800100 <ChangedScreen>
			ChangedScreen=0;
    27bc:	05 c0       	rjmp	.+10     	; 0x27c8 <main+0x64>
    27be:	e0 91 eb 01 	lds	r30, 0x01EB	; 0x8001eb <updatePtr>
		}
		else
			updatePtr();
    27c2:	f0 91 ec 01 	lds	r31, 0x01EC	; 0x8001ec <updatePtr+0x1>
    27c6:	09 95       	icall
    27c8:	0e 94 67 05 	call	0xace	; 0xace <render>
		render();
    27cc:	0e 94 c6 02 	call	0x58c	; 0x58c <clearKeys>
		clearKeys();
    27d0:	e0 cf       	rjmp	.-64     	; 0x2792 <main+0x2e>

000027d2 <__vector_14>:
	}
    27d2:	1f 92       	push	r1
	
	
}

ISR(TIMER0_COMPA_vect)
{
    27d4:	0f 92       	push	r0
    27d6:	0f b6       	in	r0, 0x3f	; 63
    27d8:	0f 92       	push	r0
    27da:	11 24       	eor	r1, r1
    27dc:	2f 93       	push	r18
    27de:	3f 93       	push	r19
    27e0:	4f 93       	push	r20
    27e2:	5f 93       	push	r21
    27e4:	6f 93       	push	r22
    27e6:	7f 93       	push	r23
    27e8:	8f 93       	push	r24
    27ea:	9f 93       	push	r25
    27ec:	af 93       	push	r26
    27ee:	bf 93       	push	r27
    27f0:	ef 93       	push	r30
    27f2:	ff 93       	push	r31
	ir_interruptService();
    27f4:	f5 dc       	rcall	.-1558   	; 0x21e0 <ir_interruptService>
}
    27f6:	ff 91       	pop	r31
    27f8:	ef 91       	pop	r30
    27fa:	bf 91       	pop	r27
    27fc:	af 91       	pop	r26
    27fe:	9f 91       	pop	r25
    2800:	8f 91       	pop	r24
    2802:	7f 91       	pop	r23
    2804:	6f 91       	pop	r22
    2806:	5f 91       	pop	r21
    2808:	4f 91       	pop	r20
    280a:	3f 91       	pop	r19
    280c:	2f 91       	pop	r18
    280e:	0f 90       	pop	r0
    2810:	0f be       	out	0x3f, r0	; 63
    2812:	0f 90       	pop	r0
    2814:	1f 90       	pop	r1
    2816:	18 95       	reti

00002818 <__vector_7>:
ISR(TIMER2_COMPA_vect)
{
    2818:	1f 92       	push	r1
    281a:	0f 92       	push	r0
    281c:	0f b6       	in	r0, 0x3f	; 63
    281e:	0f 92       	push	r0
    2820:	11 24       	eor	r1, r1
    2822:	2f 93       	push	r18
    2824:	3f 93       	push	r19
    2826:	4f 93       	push	r20
    2828:	5f 93       	push	r21
    282a:	6f 93       	push	r22
    282c:	7f 93       	push	r23
    282e:	8f 93       	push	r24
    2830:	9f 93       	push	r25
    2832:	af 93       	push	r26
    2834:	bf 93       	push	r27
    2836:	ef 93       	push	r30
    2838:	ff 93       	push	r31
	incSysTick();
    283a:	ad d0       	rcall	.+346    	; 0x2996 <incSysTick>
}
    283c:	ff 91       	pop	r31
    283e:	ef 91       	pop	r30
    2840:	bf 91       	pop	r27
    2842:	af 91       	pop	r26
    2844:	9f 91       	pop	r25
    2846:	8f 91       	pop	r24
    2848:	7f 91       	pop	r23
    284a:	6f 91       	pop	r22
    284c:	5f 91       	pop	r21
    284e:	4f 91       	pop	r20
    2850:	3f 91       	pop	r19
    2852:	2f 91       	pop	r18
    2854:	0f 90       	pop	r0
    2856:	0f be       	out	0x3f, r0	; 63
    2858:	0f 90       	pop	r0
    285a:	1f 90       	pop	r1
    285c:	18 95       	reti

0000285e <pcf8574_init>:
		i2c_write(b);
		i2c_stop();
		return 0;
	}
	return -1;
}
    285e:	0e 94 d5 06 	call	0xdaa	; 0xdaa <i2c_init>
    2862:	83 e0       	ldi	r24, 0x03	; 3
    2864:	8a 95       	dec	r24
    2866:	f1 f7       	brne	.-4      	; 0x2864 <pcf8574_init+0x6>
    2868:	00 00       	nop
    286a:	80 e0       	ldi	r24, 0x00	; 0
    286c:	06 c0       	rjmp	.+12     	; 0x287a <pcf8574_init+0x1c>
    286e:	e8 2f       	mov	r30, r24
    2870:	f0 e0       	ldi	r31, 0x00	; 0
    2872:	e5 54       	subi	r30, 0x45	; 69
    2874:	fd 4f       	sbci	r31, 0xFD	; 253
    2876:	10 82       	st	Z, r1
    2878:	8f 5f       	subi	r24, 0xFF	; 255
    287a:	88 30       	cpi	r24, 0x08	; 8
    287c:	c0 f3       	brcs	.-16     	; 0x286e <pcf8574_init+0x10>
    287e:	08 95       	ret

00002880 <pcf8574_setoutput>:
    2880:	cf 93       	push	r28
    2882:	88 30       	cpi	r24, 0x08	; 8
    2884:	88 f4       	brcc	.+34     	; 0x28a8 <pcf8574_setoutput+0x28>
    2886:	c6 2f       	mov	r28, r22
    2888:	e8 2f       	mov	r30, r24
    288a:	f0 e0       	ldi	r31, 0x00	; 0
    288c:	e5 54       	subi	r30, 0x45	; 69
    288e:	fd 4f       	sbci	r31, 0xFD	; 253
    2890:	60 83       	st	Z, r22
    2892:	80 5e       	subi	r24, 0xE0	; 224
    2894:	88 0f       	add	r24, r24
    2896:	0e 94 db 06 	call	0xdb6	; 0xdb6 <i2c_start>
    289a:	8c 2f       	mov	r24, r28
    289c:	0e 94 09 07 	call	0xe12	; 0xe12 <i2c_write>
    28a0:	0e 94 01 07 	call	0xe02	; 0xe02 <i2c_stop>
    28a4:	80 e0       	ldi	r24, 0x00	; 0
    28a6:	01 c0       	rjmp	.+2      	; 0x28aa <pcf8574_setoutput+0x2a>
    28a8:	8f ef       	ldi	r24, 0xFF	; 255
    28aa:	cf 91       	pop	r28
    28ac:	08 95       	ret

000028ae <pcf8574_setoutputpin>:

/*
 * set output pin
 */
int8_t pcf8574_setoutputpin(uint8_t deviceid, uint8_t pin, uint8_t data) {
    28ae:	cf 93       	push	r28
    28b0:	df 93       	push	r29
	if((deviceid >= 0 && deviceid < PCF8574_MAXDEVICES) && (pin >= 0 && pin < PCF8574_MAXPINS)) {
    28b2:	88 30       	cpi	r24, 0x08	; 8
    28b4:	58 f5       	brcc	.+86     	; 0x290c <pcf8574_setoutputpin+0x5e>
    28b6:	68 30       	cpi	r22, 0x08	; 8
    28b8:	58 f5       	brcc	.+86     	; 0x2910 <pcf8574_setoutputpin+0x62>
	    uint8_t b = 0;
	    b = pcf8574_pinstatus[deviceid];
    28ba:	28 2f       	mov	r18, r24
    28bc:	30 e0       	ldi	r19, 0x00	; 0
    28be:	f9 01       	movw	r30, r18
    28c0:	e5 54       	subi	r30, 0x45	; 69
    28c2:	fd 4f       	sbci	r31, 0xFD	; 253
    28c4:	90 81       	ld	r25, Z
	    b = (data != 0) ? (b | (1 << pin)) : (b & ~(1 << pin));
    28c6:	44 23       	and	r20, r20
    28c8:	49 f0       	breq	.+18     	; 0x28dc <pcf8574_setoutputpin+0x2e>
    28ca:	c1 e0       	ldi	r28, 0x01	; 1
    28cc:	d0 e0       	ldi	r29, 0x00	; 0
    28ce:	02 c0       	rjmp	.+4      	; 0x28d4 <pcf8574_setoutputpin+0x26>
    28d0:	cc 0f       	add	r28, r28
    28d2:	dd 1f       	adc	r29, r29
    28d4:	6a 95       	dec	r22
    28d6:	e2 f7       	brpl	.-8      	; 0x28d0 <pcf8574_setoutputpin+0x22>
    28d8:	c9 2b       	or	r28, r25
    28da:	09 c0       	rjmp	.+18     	; 0x28ee <pcf8574_setoutputpin+0x40>
    28dc:	c1 e0       	ldi	r28, 0x01	; 1
    28de:	d0 e0       	ldi	r29, 0x00	; 0
    28e0:	02 c0       	rjmp	.+4      	; 0x28e6 <pcf8574_setoutputpin+0x38>
    28e2:	cc 0f       	add	r28, r28
    28e4:	dd 1f       	adc	r29, r29
    28e6:	6a 95       	dec	r22
    28e8:	e2 f7       	brpl	.-8      	; 0x28e2 <pcf8574_setoutputpin+0x34>
    28ea:	c0 95       	com	r28
    28ec:	c9 23       	and	r28, r25
	    pcf8574_pinstatus[deviceid] = b;
    28ee:	f9 01       	movw	r30, r18
    28f0:	e5 54       	subi	r30, 0x45	; 69
    28f2:	fd 4f       	sbci	r31, 0xFD	; 253
    28f4:	c0 83       	st	Z, r28
	    //update device
		i2c_start(((PCF8574_ADDRBASE+deviceid)<<1) | I2C_WRITE);
    28f6:	80 5e       	subi	r24, 0xE0	; 224
    28f8:	88 0f       	add	r24, r24
    28fa:	0e 94 db 06 	call	0xdb6	; 0xdb6 <i2c_start>
		i2c_write(b);
    28fe:	8c 2f       	mov	r24, r28
    2900:	0e 94 09 07 	call	0xe12	; 0xe12 <i2c_write>
		i2c_stop();
    2904:	0e 94 01 07 	call	0xe02	; 0xe02 <i2c_stop>
		return 0;
    2908:	80 e0       	ldi	r24, 0x00	; 0
    290a:	03 c0       	rjmp	.+6      	; 0x2912 <pcf8574_setoutputpin+0x64>
	}
	return -1;
    290c:	8f ef       	ldi	r24, 0xFF	; 255
    290e:	01 c0       	rjmp	.+2      	; 0x2912 <pcf8574_setoutputpin+0x64>
    2910:	8f ef       	ldi	r24, 0xFF	; 255
}
    2912:	df 91       	pop	r29
    2914:	cf 91       	pop	r28
    2916:	08 95       	ret

00002918 <pcf8574_setoutputpinhigh>:

/*
 * set output pin high
 */
int8_t pcf8574_setoutputpinhigh(uint8_t deviceid, uint8_t pin) {
	return pcf8574_setoutputpin(deviceid, pin, 1);
    2918:	41 e0       	ldi	r20, 0x01	; 1
    291a:	c9 cf       	rjmp	.-110    	; 0x28ae <pcf8574_setoutputpin>
}
    291c:	08 95       	ret

0000291e <pcf8574_setoutputpinlow>:

/*
 * set output pin low
 */
int8_t pcf8574_setoutputpinlow(uint8_t deviceid, uint8_t pin) {
	return pcf8574_setoutputpin(deviceid, pin, 0);
    291e:	40 e0       	ldi	r20, 0x00	; 0
    2920:	c6 cf       	rjmp	.-116    	; 0x28ae <pcf8574_setoutputpin>
}
    2922:	08 95       	ret

00002924 <pcf8574_getinput>:


/*
 * get input data
 */
int8_t pcf8574_getinput(uint8_t deviceid) {
    2924:	cf 93       	push	r28
	int8_t data = -1;
	if((deviceid >= 0 && deviceid < PCF8574_MAXDEVICES)) {
    2926:	88 30       	cpi	r24, 0x08	; 8
    2928:	70 f4       	brcc	.+28     	; 0x2946 <pcf8574_getinput+0x22>
		i2c_start(((PCF8574_ADDRBASE+deviceid)<<1) | I2C_READ);
    292a:	90 e0       	ldi	r25, 0x00	; 0
    292c:	80 96       	adiw	r24, 0x20	; 32
    292e:	88 0f       	add	r24, r24
    2930:	99 1f       	adc	r25, r25
    2932:	81 60       	ori	r24, 0x01	; 1
    2934:	0e 94 db 06 	call	0xdb6	; 0xdb6 <i2c_start>
		data = ~i2c_readNak();
    2938:	0e 94 1b 07 	call	0xe36	; 0xe36 <i2c_readNak>
    293c:	c8 2f       	mov	r28, r24
    293e:	c0 95       	com	r28
		i2c_stop();
    2940:	0e 94 01 07 	call	0xe02	; 0xe02 <i2c_stop>
    2944:	01 c0       	rjmp	.+2      	; 0x2948 <pcf8574_getinput+0x24>

/*
 * get input data
 */
int8_t pcf8574_getinput(uint8_t deviceid) {
	int8_t data = -1;
    2946:	cf ef       	ldi	r28, 0xFF	; 255
		i2c_start(((PCF8574_ADDRBASE+deviceid)<<1) | I2C_READ);
		data = ~i2c_readNak();
		i2c_stop();
	}
	return data;
}
    2948:	8c 2f       	mov	r24, r28
    294a:	cf 91       	pop	r28
    294c:	08 95       	ret

0000294e <pcf8574_getinputpin>:

/*
 * get input pin (up or low)
 */
int8_t pcf8574_getinputpin(uint8_t deviceid, uint8_t pin) {
    294e:	cf 93       	push	r28
	int8_t data = -1;
	if((deviceid >= 0 && deviceid < PCF8574_MAXDEVICES) && (pin >= 0 && pin < PCF8574_MAXPINS)) {
    2950:	88 30       	cpi	r24, 0x08	; 8
    2952:	80 f4       	brcc	.+32     	; 0x2974 <pcf8574_getinputpin+0x26>
    2954:	68 30       	cpi	r22, 0x08	; 8
    2956:	80 f4       	brcc	.+32     	; 0x2978 <pcf8574_getinputpin+0x2a>
    2958:	c6 2f       	mov	r28, r22
		data = pcf8574_getinput(deviceid);
    295a:	e4 df       	rcall	.-56     	; 0x2924 <pcf8574_getinput>
		if(data != -1) {
    295c:	8f 3f       	cpi	r24, 0xFF	; 255
    295e:	69 f0       	breq	.+26     	; 0x297a <pcf8574_getinputpin+0x2c>
			data = (data >> pin) & 0b00000001;
    2960:	08 2e       	mov	r0, r24
    2962:	00 0c       	add	r0, r0
    2964:	99 0b       	sbc	r25, r25
    2966:	02 c0       	rjmp	.+4      	; 0x296c <pcf8574_getinputpin+0x1e>
    2968:	95 95       	asr	r25
    296a:	87 95       	ror	r24
    296c:	ca 95       	dec	r28
    296e:	e2 f7       	brpl	.-8      	; 0x2968 <pcf8574_getinputpin+0x1a>
    2970:	81 70       	andi	r24, 0x01	; 1
    2972:	03 c0       	rjmp	.+6      	; 0x297a <pcf8574_getinputpin+0x2c>

/*
 * get input pin (up or low)
 */
int8_t pcf8574_getinputpin(uint8_t deviceid, uint8_t pin) {
	int8_t data = -1;
    2974:	8f ef       	ldi	r24, 0xFF	; 255
    2976:	01 c0       	rjmp	.+2      	; 0x297a <pcf8574_getinputpin+0x2c>
    2978:	8f ef       	ldi	r24, 0xFF	; 255
		if(data != -1) {
			data = (data >> pin) & 0b00000001;
		}
	}
	return data;
}
    297a:	cf 91       	pop	r28
    297c:	08 95       	ret

0000297e <initSysTick>:

volatile uint16_t SysTick = 0;

void initSysTick()
{
	OCR2A=78; // division par 78
    297e:	8e e4       	ldi	r24, 0x4E	; 78
    2980:	80 93 b3 00 	sts	0x00B3, r24	; 0x8000b3 <__TEXT_REGION_LENGTH__+0x7e00b3>
	TCCR2A=0b00000010;
    2984:	82 e0       	ldi	r24, 0x02	; 2
    2986:	80 93 b0 00 	sts	0x00B0, r24	; 0x8000b0 <__TEXT_REGION_LENGTH__+0x7e00b0>
	TCCR2B=0b00000111; // /1024
    298a:	97 e0       	ldi	r25, 0x07	; 7
    298c:	90 93 b1 00 	sts	0x00B1, r25	; 0x8000b1 <__TEXT_REGION_LENGTH__+0x7e00b1>
	TIMSK2=0b00000010;
    2990:	80 93 70 00 	sts	0x0070, r24	; 0x800070 <__TEXT_REGION_LENGTH__+0x7e0070>
    2994:	08 95       	ret

00002996 <incSysTick>:
	// Génère une interruption toutes les 9.98 ms
}
void incSysTick()
{
	SysTick++;
    2996:	80 91 e9 01 	lds	r24, 0x01E9	; 0x8001e9 <SysTick>
    299a:	90 91 ea 01 	lds	r25, 0x01EA	; 0x8001ea <SysTick+0x1>
    299e:	01 96       	adiw	r24, 0x01	; 1
    29a0:	90 93 ea 01 	sts	0x01EA, r25	; 0x8001ea <SysTick+0x1>
    29a4:	80 93 e9 01 	sts	0x01E9, r24	; 0x8001e9 <SysTick>
    29a8:	08 95       	ret

000029aa <marqueTime16>:
}
void marqueTime16(uint16_t *ref)
{
	*ref=SysTick;
    29aa:	20 91 e9 01 	lds	r18, 0x01E9	; 0x8001e9 <SysTick>
    29ae:	30 91 ea 01 	lds	r19, 0x01EA	; 0x8001ea <SysTick+0x1>
    29b2:	fc 01       	movw	r30, r24
    29b4:	31 83       	std	Z+1, r19	; 0x01
    29b6:	20 83       	st	Z, r18
    29b8:	08 95       	ret

000029ba <elapsedTime16>:
}
uint16_t elapsedTime16(uint16_t *ref)
{
	if(SysTick<*ref)
    29ba:	fc 01       	movw	r30, r24
    29bc:	20 81       	ld	r18, Z
    29be:	31 81       	ldd	r19, Z+1	; 0x01
    29c0:	80 91 e9 01 	lds	r24, 0x01E9	; 0x8001e9 <SysTick>
    29c4:	90 91 ea 01 	lds	r25, 0x01EA	; 0x8001ea <SysTick+0x1>
    29c8:	82 17       	cp	r24, r18
    29ca:	93 07       	cpc	r25, r19
    29cc:	48 f4       	brcc	.+18     	; 0x29e0 <elapsedTime16+0x26>
		return (65535UL-(SysTick-*ref))+1;
    29ce:	80 91 e9 01 	lds	r24, 0x01E9	; 0x8001e9 <SysTick>
    29d2:	90 91 ea 01 	lds	r25, 0x01EA	; 0x8001ea <SysTick+0x1>
    29d6:	a9 01       	movw	r20, r18
    29d8:	48 1b       	sub	r20, r24
    29da:	59 0b       	sbc	r21, r25
    29dc:	ca 01       	movw	r24, r20
    29de:	08 95       	ret
	else
		return (SysTick-*ref);
    29e0:	80 91 e9 01 	lds	r24, 0x01E9	; 0x8001e9 <SysTick>
    29e4:	90 91 ea 01 	lds	r25, 0x01EA	; 0x8001ea <SysTick+0x1>
    29e8:	82 1b       	sub	r24, r18
    29ea:	93 0b       	sbc	r25, r19
	
    29ec:	08 95       	ret

000029ee <__subsf3>:
    29ee:	50 58       	subi	r21, 0x80	; 128

000029f0 <__addsf3>:
    29f0:	bb 27       	eor	r27, r27
    29f2:	aa 27       	eor	r26, r26
    29f4:	0e d0       	rcall	.+28     	; 0x2a12 <__addsf3x>
    29f6:	75 c1       	rjmp	.+746    	; 0x2ce2 <__fp_round>
    29f8:	66 d1       	rcall	.+716    	; 0x2cc6 <__fp_pscA>
    29fa:	30 f0       	brcs	.+12     	; 0x2a08 <__addsf3+0x18>
    29fc:	6b d1       	rcall	.+726    	; 0x2cd4 <__fp_pscB>
    29fe:	20 f0       	brcs	.+8      	; 0x2a08 <__addsf3+0x18>
    2a00:	31 f4       	brne	.+12     	; 0x2a0e <__addsf3+0x1e>
    2a02:	9f 3f       	cpi	r25, 0xFF	; 255
    2a04:	11 f4       	brne	.+4      	; 0x2a0a <__addsf3+0x1a>
    2a06:	1e f4       	brtc	.+6      	; 0x2a0e <__addsf3+0x1e>
    2a08:	5b c1       	rjmp	.+694    	; 0x2cc0 <__fp_nan>
    2a0a:	0e f4       	brtc	.+2      	; 0x2a0e <__addsf3+0x1e>
    2a0c:	e0 95       	com	r30
    2a0e:	e7 fb       	bst	r30, 7
    2a10:	51 c1       	rjmp	.+674    	; 0x2cb4 <__fp_inf>

00002a12 <__addsf3x>:
    2a12:	e9 2f       	mov	r30, r25
    2a14:	77 d1       	rcall	.+750    	; 0x2d04 <__fp_split3>
    2a16:	80 f3       	brcs	.-32     	; 0x29f8 <__addsf3+0x8>
    2a18:	ba 17       	cp	r27, r26
    2a1a:	62 07       	cpc	r22, r18
    2a1c:	73 07       	cpc	r23, r19
    2a1e:	84 07       	cpc	r24, r20
    2a20:	95 07       	cpc	r25, r21
    2a22:	18 f0       	brcs	.+6      	; 0x2a2a <__addsf3x+0x18>
    2a24:	71 f4       	brne	.+28     	; 0x2a42 <__addsf3x+0x30>
    2a26:	9e f5       	brtc	.+102    	; 0x2a8e <__addsf3x+0x7c>
    2a28:	8f c1       	rjmp	.+798    	; 0x2d48 <__fp_zero>
    2a2a:	0e f4       	brtc	.+2      	; 0x2a2e <__addsf3x+0x1c>
    2a2c:	e0 95       	com	r30
    2a2e:	0b 2e       	mov	r0, r27
    2a30:	ba 2f       	mov	r27, r26
    2a32:	a0 2d       	mov	r26, r0
    2a34:	0b 01       	movw	r0, r22
    2a36:	b9 01       	movw	r22, r18
    2a38:	90 01       	movw	r18, r0
    2a3a:	0c 01       	movw	r0, r24
    2a3c:	ca 01       	movw	r24, r20
    2a3e:	a0 01       	movw	r20, r0
    2a40:	11 24       	eor	r1, r1
    2a42:	ff 27       	eor	r31, r31
    2a44:	59 1b       	sub	r21, r25
    2a46:	99 f0       	breq	.+38     	; 0x2a6e <__addsf3x+0x5c>
    2a48:	59 3f       	cpi	r21, 0xF9	; 249
    2a4a:	50 f4       	brcc	.+20     	; 0x2a60 <__addsf3x+0x4e>
    2a4c:	50 3e       	cpi	r21, 0xE0	; 224
    2a4e:	68 f1       	brcs	.+90     	; 0x2aaa <__addsf3x+0x98>
    2a50:	1a 16       	cp	r1, r26
    2a52:	f0 40       	sbci	r31, 0x00	; 0
    2a54:	a2 2f       	mov	r26, r18
    2a56:	23 2f       	mov	r18, r19
    2a58:	34 2f       	mov	r19, r20
    2a5a:	44 27       	eor	r20, r20
    2a5c:	58 5f       	subi	r21, 0xF8	; 248
    2a5e:	f3 cf       	rjmp	.-26     	; 0x2a46 <__addsf3x+0x34>
    2a60:	46 95       	lsr	r20
    2a62:	37 95       	ror	r19
    2a64:	27 95       	ror	r18
    2a66:	a7 95       	ror	r26
    2a68:	f0 40       	sbci	r31, 0x00	; 0
    2a6a:	53 95       	inc	r21
    2a6c:	c9 f7       	brne	.-14     	; 0x2a60 <__addsf3x+0x4e>
    2a6e:	7e f4       	brtc	.+30     	; 0x2a8e <__addsf3x+0x7c>
    2a70:	1f 16       	cp	r1, r31
    2a72:	ba 0b       	sbc	r27, r26
    2a74:	62 0b       	sbc	r22, r18
    2a76:	73 0b       	sbc	r23, r19
    2a78:	84 0b       	sbc	r24, r20
    2a7a:	ba f0       	brmi	.+46     	; 0x2aaa <__addsf3x+0x98>
    2a7c:	91 50       	subi	r25, 0x01	; 1
    2a7e:	a1 f0       	breq	.+40     	; 0x2aa8 <__addsf3x+0x96>
    2a80:	ff 0f       	add	r31, r31
    2a82:	bb 1f       	adc	r27, r27
    2a84:	66 1f       	adc	r22, r22
    2a86:	77 1f       	adc	r23, r23
    2a88:	88 1f       	adc	r24, r24
    2a8a:	c2 f7       	brpl	.-16     	; 0x2a7c <__addsf3x+0x6a>
    2a8c:	0e c0       	rjmp	.+28     	; 0x2aaa <__addsf3x+0x98>
    2a8e:	ba 0f       	add	r27, r26
    2a90:	62 1f       	adc	r22, r18
    2a92:	73 1f       	adc	r23, r19
    2a94:	84 1f       	adc	r24, r20
    2a96:	48 f4       	brcc	.+18     	; 0x2aaa <__addsf3x+0x98>
    2a98:	87 95       	ror	r24
    2a9a:	77 95       	ror	r23
    2a9c:	67 95       	ror	r22
    2a9e:	b7 95       	ror	r27
    2aa0:	f7 95       	ror	r31
    2aa2:	9e 3f       	cpi	r25, 0xFE	; 254
    2aa4:	08 f0       	brcs	.+2      	; 0x2aa8 <__addsf3x+0x96>
    2aa6:	b3 cf       	rjmp	.-154    	; 0x2a0e <__addsf3+0x1e>
    2aa8:	93 95       	inc	r25
    2aaa:	88 0f       	add	r24, r24
    2aac:	08 f0       	brcs	.+2      	; 0x2ab0 <__addsf3x+0x9e>
    2aae:	99 27       	eor	r25, r25
    2ab0:	ee 0f       	add	r30, r30
    2ab2:	97 95       	ror	r25
    2ab4:	87 95       	ror	r24
    2ab6:	08 95       	ret

00002ab8 <__cmpsf2>:
    2ab8:	d9 d0       	rcall	.+434    	; 0x2c6c <__fp_cmp>
    2aba:	08 f4       	brcc	.+2      	; 0x2abe <__cmpsf2+0x6>
    2abc:	81 e0       	ldi	r24, 0x01	; 1
    2abe:	08 95       	ret

00002ac0 <__divsf3>:
    2ac0:	0c d0       	rcall	.+24     	; 0x2ada <__divsf3x>
    2ac2:	0f c1       	rjmp	.+542    	; 0x2ce2 <__fp_round>
    2ac4:	07 d1       	rcall	.+526    	; 0x2cd4 <__fp_pscB>
    2ac6:	40 f0       	brcs	.+16     	; 0x2ad8 <__divsf3+0x18>
    2ac8:	fe d0       	rcall	.+508    	; 0x2cc6 <__fp_pscA>
    2aca:	30 f0       	brcs	.+12     	; 0x2ad8 <__divsf3+0x18>
    2acc:	21 f4       	brne	.+8      	; 0x2ad6 <__divsf3+0x16>
    2ace:	5f 3f       	cpi	r21, 0xFF	; 255
    2ad0:	19 f0       	breq	.+6      	; 0x2ad8 <__divsf3+0x18>
    2ad2:	f0 c0       	rjmp	.+480    	; 0x2cb4 <__fp_inf>
    2ad4:	51 11       	cpse	r21, r1
    2ad6:	39 c1       	rjmp	.+626    	; 0x2d4a <__fp_szero>
    2ad8:	f3 c0       	rjmp	.+486    	; 0x2cc0 <__fp_nan>

00002ada <__divsf3x>:
    2ada:	14 d1       	rcall	.+552    	; 0x2d04 <__fp_split3>
    2adc:	98 f3       	brcs	.-26     	; 0x2ac4 <__divsf3+0x4>

00002ade <__divsf3_pse>:
    2ade:	99 23       	and	r25, r25
    2ae0:	c9 f3       	breq	.-14     	; 0x2ad4 <__divsf3+0x14>
    2ae2:	55 23       	and	r21, r21
    2ae4:	b1 f3       	breq	.-20     	; 0x2ad2 <__divsf3+0x12>
    2ae6:	95 1b       	sub	r25, r21
    2ae8:	55 0b       	sbc	r21, r21
    2aea:	bb 27       	eor	r27, r27
    2aec:	aa 27       	eor	r26, r26
    2aee:	62 17       	cp	r22, r18
    2af0:	73 07       	cpc	r23, r19
    2af2:	84 07       	cpc	r24, r20
    2af4:	38 f0       	brcs	.+14     	; 0x2b04 <__divsf3_pse+0x26>
    2af6:	9f 5f       	subi	r25, 0xFF	; 255
    2af8:	5f 4f       	sbci	r21, 0xFF	; 255
    2afa:	22 0f       	add	r18, r18
    2afc:	33 1f       	adc	r19, r19
    2afe:	44 1f       	adc	r20, r20
    2b00:	aa 1f       	adc	r26, r26
    2b02:	a9 f3       	breq	.-22     	; 0x2aee <__divsf3_pse+0x10>
    2b04:	33 d0       	rcall	.+102    	; 0x2b6c <__divsf3_pse+0x8e>
    2b06:	0e 2e       	mov	r0, r30
    2b08:	3a f0       	brmi	.+14     	; 0x2b18 <__divsf3_pse+0x3a>
    2b0a:	e0 e8       	ldi	r30, 0x80	; 128
    2b0c:	30 d0       	rcall	.+96     	; 0x2b6e <__divsf3_pse+0x90>
    2b0e:	91 50       	subi	r25, 0x01	; 1
    2b10:	50 40       	sbci	r21, 0x00	; 0
    2b12:	e6 95       	lsr	r30
    2b14:	00 1c       	adc	r0, r0
    2b16:	ca f7       	brpl	.-14     	; 0x2b0a <__divsf3_pse+0x2c>
    2b18:	29 d0       	rcall	.+82     	; 0x2b6c <__divsf3_pse+0x8e>
    2b1a:	fe 2f       	mov	r31, r30
    2b1c:	27 d0       	rcall	.+78     	; 0x2b6c <__divsf3_pse+0x8e>
    2b1e:	66 0f       	add	r22, r22
    2b20:	77 1f       	adc	r23, r23
    2b22:	88 1f       	adc	r24, r24
    2b24:	bb 1f       	adc	r27, r27
    2b26:	26 17       	cp	r18, r22
    2b28:	37 07       	cpc	r19, r23
    2b2a:	48 07       	cpc	r20, r24
    2b2c:	ab 07       	cpc	r26, r27
    2b2e:	b0 e8       	ldi	r27, 0x80	; 128
    2b30:	09 f0       	breq	.+2      	; 0x2b34 <__divsf3_pse+0x56>
    2b32:	bb 0b       	sbc	r27, r27
    2b34:	80 2d       	mov	r24, r0
    2b36:	bf 01       	movw	r22, r30
    2b38:	ff 27       	eor	r31, r31
    2b3a:	93 58       	subi	r25, 0x83	; 131
    2b3c:	5f 4f       	sbci	r21, 0xFF	; 255
    2b3e:	2a f0       	brmi	.+10     	; 0x2b4a <__divsf3_pse+0x6c>
    2b40:	9e 3f       	cpi	r25, 0xFE	; 254
    2b42:	51 05       	cpc	r21, r1
    2b44:	68 f0       	brcs	.+26     	; 0x2b60 <__divsf3_pse+0x82>
    2b46:	b6 c0       	rjmp	.+364    	; 0x2cb4 <__fp_inf>
    2b48:	00 c1       	rjmp	.+512    	; 0x2d4a <__fp_szero>
    2b4a:	5f 3f       	cpi	r21, 0xFF	; 255
    2b4c:	ec f3       	brlt	.-6      	; 0x2b48 <__divsf3_pse+0x6a>
    2b4e:	98 3e       	cpi	r25, 0xE8	; 232
    2b50:	dc f3       	brlt	.-10     	; 0x2b48 <__divsf3_pse+0x6a>
    2b52:	86 95       	lsr	r24
    2b54:	77 95       	ror	r23
    2b56:	67 95       	ror	r22
    2b58:	b7 95       	ror	r27
    2b5a:	f7 95       	ror	r31
    2b5c:	9f 5f       	subi	r25, 0xFF	; 255
    2b5e:	c9 f7       	brne	.-14     	; 0x2b52 <__divsf3_pse+0x74>
    2b60:	88 0f       	add	r24, r24
    2b62:	91 1d       	adc	r25, r1
    2b64:	96 95       	lsr	r25
    2b66:	87 95       	ror	r24
    2b68:	97 f9       	bld	r25, 7
    2b6a:	08 95       	ret
    2b6c:	e1 e0       	ldi	r30, 0x01	; 1
    2b6e:	66 0f       	add	r22, r22
    2b70:	77 1f       	adc	r23, r23
    2b72:	88 1f       	adc	r24, r24
    2b74:	bb 1f       	adc	r27, r27
    2b76:	62 17       	cp	r22, r18
    2b78:	73 07       	cpc	r23, r19
    2b7a:	84 07       	cpc	r24, r20
    2b7c:	ba 07       	cpc	r27, r26
    2b7e:	20 f0       	brcs	.+8      	; 0x2b88 <__divsf3_pse+0xaa>
    2b80:	62 1b       	sub	r22, r18
    2b82:	73 0b       	sbc	r23, r19
    2b84:	84 0b       	sbc	r24, r20
    2b86:	ba 0b       	sbc	r27, r26
    2b88:	ee 1f       	adc	r30, r30
    2b8a:	88 f7       	brcc	.-30     	; 0x2b6e <__divsf3_pse+0x90>
    2b8c:	e0 95       	com	r30
    2b8e:	08 95       	ret

00002b90 <__fixsfsi>:
    2b90:	04 d0       	rcall	.+8      	; 0x2b9a <__fixunssfsi>
    2b92:	68 94       	set
    2b94:	b1 11       	cpse	r27, r1
    2b96:	d9 c0       	rjmp	.+434    	; 0x2d4a <__fp_szero>
    2b98:	08 95       	ret

00002b9a <__fixunssfsi>:
    2b9a:	bc d0       	rcall	.+376    	; 0x2d14 <__fp_splitA>
    2b9c:	88 f0       	brcs	.+34     	; 0x2bc0 <__fixunssfsi+0x26>
    2b9e:	9f 57       	subi	r25, 0x7F	; 127
    2ba0:	90 f0       	brcs	.+36     	; 0x2bc6 <__fixunssfsi+0x2c>
    2ba2:	b9 2f       	mov	r27, r25
    2ba4:	99 27       	eor	r25, r25
    2ba6:	b7 51       	subi	r27, 0x17	; 23
    2ba8:	a0 f0       	brcs	.+40     	; 0x2bd2 <__fixunssfsi+0x38>
    2baa:	d1 f0       	breq	.+52     	; 0x2be0 <__fixunssfsi+0x46>
    2bac:	66 0f       	add	r22, r22
    2bae:	77 1f       	adc	r23, r23
    2bb0:	88 1f       	adc	r24, r24
    2bb2:	99 1f       	adc	r25, r25
    2bb4:	1a f0       	brmi	.+6      	; 0x2bbc <__fixunssfsi+0x22>
    2bb6:	ba 95       	dec	r27
    2bb8:	c9 f7       	brne	.-14     	; 0x2bac <__fixunssfsi+0x12>
    2bba:	12 c0       	rjmp	.+36     	; 0x2be0 <__fixunssfsi+0x46>
    2bbc:	b1 30       	cpi	r27, 0x01	; 1
    2bbe:	81 f0       	breq	.+32     	; 0x2be0 <__fixunssfsi+0x46>
    2bc0:	c3 d0       	rcall	.+390    	; 0x2d48 <__fp_zero>
    2bc2:	b1 e0       	ldi	r27, 0x01	; 1
    2bc4:	08 95       	ret
    2bc6:	c0 c0       	rjmp	.+384    	; 0x2d48 <__fp_zero>
    2bc8:	67 2f       	mov	r22, r23
    2bca:	78 2f       	mov	r23, r24
    2bcc:	88 27       	eor	r24, r24
    2bce:	b8 5f       	subi	r27, 0xF8	; 248
    2bd0:	39 f0       	breq	.+14     	; 0x2be0 <__fixunssfsi+0x46>
    2bd2:	b9 3f       	cpi	r27, 0xF9	; 249
    2bd4:	cc f3       	brlt	.-14     	; 0x2bc8 <__fixunssfsi+0x2e>
    2bd6:	86 95       	lsr	r24
    2bd8:	77 95       	ror	r23
    2bda:	67 95       	ror	r22
    2bdc:	b3 95       	inc	r27
    2bde:	d9 f7       	brne	.-10     	; 0x2bd6 <__fixunssfsi+0x3c>
    2be0:	3e f4       	brtc	.+14     	; 0x2bf0 <__fixunssfsi+0x56>
    2be2:	90 95       	com	r25
    2be4:	80 95       	com	r24
    2be6:	70 95       	com	r23
    2be8:	61 95       	neg	r22
    2bea:	7f 4f       	sbci	r23, 0xFF	; 255
    2bec:	8f 4f       	sbci	r24, 0xFF	; 255
    2bee:	9f 4f       	sbci	r25, 0xFF	; 255
    2bf0:	08 95       	ret

00002bf2 <__floatunsisf>:
    2bf2:	e8 94       	clt
    2bf4:	09 c0       	rjmp	.+18     	; 0x2c08 <__floatsisf+0x12>

00002bf6 <__floatsisf>:
    2bf6:	97 fb       	bst	r25, 7
    2bf8:	3e f4       	brtc	.+14     	; 0x2c08 <__floatsisf+0x12>
    2bfa:	90 95       	com	r25
    2bfc:	80 95       	com	r24
    2bfe:	70 95       	com	r23
    2c00:	61 95       	neg	r22
    2c02:	7f 4f       	sbci	r23, 0xFF	; 255
    2c04:	8f 4f       	sbci	r24, 0xFF	; 255
    2c06:	9f 4f       	sbci	r25, 0xFF	; 255
    2c08:	99 23       	and	r25, r25
    2c0a:	a9 f0       	breq	.+42     	; 0x2c36 <__floatsisf+0x40>
    2c0c:	f9 2f       	mov	r31, r25
    2c0e:	96 e9       	ldi	r25, 0x96	; 150
    2c10:	bb 27       	eor	r27, r27
    2c12:	93 95       	inc	r25
    2c14:	f6 95       	lsr	r31
    2c16:	87 95       	ror	r24
    2c18:	77 95       	ror	r23
    2c1a:	67 95       	ror	r22
    2c1c:	b7 95       	ror	r27
    2c1e:	f1 11       	cpse	r31, r1
    2c20:	f8 cf       	rjmp	.-16     	; 0x2c12 <__floatsisf+0x1c>
    2c22:	fa f4       	brpl	.+62     	; 0x2c62 <__floatsisf+0x6c>
    2c24:	bb 0f       	add	r27, r27
    2c26:	11 f4       	brne	.+4      	; 0x2c2c <__floatsisf+0x36>
    2c28:	60 ff       	sbrs	r22, 0
    2c2a:	1b c0       	rjmp	.+54     	; 0x2c62 <__floatsisf+0x6c>
    2c2c:	6f 5f       	subi	r22, 0xFF	; 255
    2c2e:	7f 4f       	sbci	r23, 0xFF	; 255
    2c30:	8f 4f       	sbci	r24, 0xFF	; 255
    2c32:	9f 4f       	sbci	r25, 0xFF	; 255
    2c34:	16 c0       	rjmp	.+44     	; 0x2c62 <__floatsisf+0x6c>
    2c36:	88 23       	and	r24, r24
    2c38:	11 f0       	breq	.+4      	; 0x2c3e <__floatsisf+0x48>
    2c3a:	96 e9       	ldi	r25, 0x96	; 150
    2c3c:	11 c0       	rjmp	.+34     	; 0x2c60 <__floatsisf+0x6a>
    2c3e:	77 23       	and	r23, r23
    2c40:	21 f0       	breq	.+8      	; 0x2c4a <__floatsisf+0x54>
    2c42:	9e e8       	ldi	r25, 0x8E	; 142
    2c44:	87 2f       	mov	r24, r23
    2c46:	76 2f       	mov	r23, r22
    2c48:	05 c0       	rjmp	.+10     	; 0x2c54 <__floatsisf+0x5e>
    2c4a:	66 23       	and	r22, r22
    2c4c:	71 f0       	breq	.+28     	; 0x2c6a <__floatsisf+0x74>
    2c4e:	96 e8       	ldi	r25, 0x86	; 134
    2c50:	86 2f       	mov	r24, r22
    2c52:	70 e0       	ldi	r23, 0x00	; 0
    2c54:	60 e0       	ldi	r22, 0x00	; 0
    2c56:	2a f0       	brmi	.+10     	; 0x2c62 <__floatsisf+0x6c>
    2c58:	9a 95       	dec	r25
    2c5a:	66 0f       	add	r22, r22
    2c5c:	77 1f       	adc	r23, r23
    2c5e:	88 1f       	adc	r24, r24
    2c60:	da f7       	brpl	.-10     	; 0x2c58 <__floatsisf+0x62>
    2c62:	88 0f       	add	r24, r24
    2c64:	96 95       	lsr	r25
    2c66:	87 95       	ror	r24
    2c68:	97 f9       	bld	r25, 7
    2c6a:	08 95       	ret

00002c6c <__fp_cmp>:
    2c6c:	99 0f       	add	r25, r25
    2c6e:	00 08       	sbc	r0, r0
    2c70:	55 0f       	add	r21, r21
    2c72:	aa 0b       	sbc	r26, r26
    2c74:	e0 e8       	ldi	r30, 0x80	; 128
    2c76:	fe ef       	ldi	r31, 0xFE	; 254
    2c78:	16 16       	cp	r1, r22
    2c7a:	17 06       	cpc	r1, r23
    2c7c:	e8 07       	cpc	r30, r24
    2c7e:	f9 07       	cpc	r31, r25
    2c80:	c0 f0       	brcs	.+48     	; 0x2cb2 <__fp_cmp+0x46>
    2c82:	12 16       	cp	r1, r18
    2c84:	13 06       	cpc	r1, r19
    2c86:	e4 07       	cpc	r30, r20
    2c88:	f5 07       	cpc	r31, r21
    2c8a:	98 f0       	brcs	.+38     	; 0x2cb2 <__fp_cmp+0x46>
    2c8c:	62 1b       	sub	r22, r18
    2c8e:	73 0b       	sbc	r23, r19
    2c90:	84 0b       	sbc	r24, r20
    2c92:	95 0b       	sbc	r25, r21
    2c94:	39 f4       	brne	.+14     	; 0x2ca4 <__fp_cmp+0x38>
    2c96:	0a 26       	eor	r0, r26
    2c98:	61 f0       	breq	.+24     	; 0x2cb2 <__fp_cmp+0x46>
    2c9a:	23 2b       	or	r18, r19
    2c9c:	24 2b       	or	r18, r20
    2c9e:	25 2b       	or	r18, r21
    2ca0:	21 f4       	brne	.+8      	; 0x2caa <__fp_cmp+0x3e>
    2ca2:	08 95       	ret
    2ca4:	0a 26       	eor	r0, r26
    2ca6:	09 f4       	brne	.+2      	; 0x2caa <__fp_cmp+0x3e>
    2ca8:	a1 40       	sbci	r26, 0x01	; 1
    2caa:	a6 95       	lsr	r26
    2cac:	8f ef       	ldi	r24, 0xFF	; 255
    2cae:	81 1d       	adc	r24, r1
    2cb0:	81 1d       	adc	r24, r1
    2cb2:	08 95       	ret

00002cb4 <__fp_inf>:
    2cb4:	97 f9       	bld	r25, 7
    2cb6:	9f 67       	ori	r25, 0x7F	; 127
    2cb8:	80 e8       	ldi	r24, 0x80	; 128
    2cba:	70 e0       	ldi	r23, 0x00	; 0
    2cbc:	60 e0       	ldi	r22, 0x00	; 0
    2cbe:	08 95       	ret

00002cc0 <__fp_nan>:
    2cc0:	9f ef       	ldi	r25, 0xFF	; 255
    2cc2:	80 ec       	ldi	r24, 0xC0	; 192
    2cc4:	08 95       	ret

00002cc6 <__fp_pscA>:
    2cc6:	00 24       	eor	r0, r0
    2cc8:	0a 94       	dec	r0
    2cca:	16 16       	cp	r1, r22
    2ccc:	17 06       	cpc	r1, r23
    2cce:	18 06       	cpc	r1, r24
    2cd0:	09 06       	cpc	r0, r25
    2cd2:	08 95       	ret

00002cd4 <__fp_pscB>:
    2cd4:	00 24       	eor	r0, r0
    2cd6:	0a 94       	dec	r0
    2cd8:	12 16       	cp	r1, r18
    2cda:	13 06       	cpc	r1, r19
    2cdc:	14 06       	cpc	r1, r20
    2cde:	05 06       	cpc	r0, r21
    2ce0:	08 95       	ret

00002ce2 <__fp_round>:
    2ce2:	09 2e       	mov	r0, r25
    2ce4:	03 94       	inc	r0
    2ce6:	00 0c       	add	r0, r0
    2ce8:	11 f4       	brne	.+4      	; 0x2cee <__fp_round+0xc>
    2cea:	88 23       	and	r24, r24
    2cec:	52 f0       	brmi	.+20     	; 0x2d02 <__fp_round+0x20>
    2cee:	bb 0f       	add	r27, r27
    2cf0:	40 f4       	brcc	.+16     	; 0x2d02 <__fp_round+0x20>
    2cf2:	bf 2b       	or	r27, r31
    2cf4:	11 f4       	brne	.+4      	; 0x2cfa <__fp_round+0x18>
    2cf6:	60 ff       	sbrs	r22, 0
    2cf8:	04 c0       	rjmp	.+8      	; 0x2d02 <__fp_round+0x20>
    2cfa:	6f 5f       	subi	r22, 0xFF	; 255
    2cfc:	7f 4f       	sbci	r23, 0xFF	; 255
    2cfe:	8f 4f       	sbci	r24, 0xFF	; 255
    2d00:	9f 4f       	sbci	r25, 0xFF	; 255
    2d02:	08 95       	ret

00002d04 <__fp_split3>:
    2d04:	57 fd       	sbrc	r21, 7
    2d06:	90 58       	subi	r25, 0x80	; 128
    2d08:	44 0f       	add	r20, r20
    2d0a:	55 1f       	adc	r21, r21
    2d0c:	59 f0       	breq	.+22     	; 0x2d24 <__fp_splitA+0x10>
    2d0e:	5f 3f       	cpi	r21, 0xFF	; 255
    2d10:	71 f0       	breq	.+28     	; 0x2d2e <__fp_splitA+0x1a>
    2d12:	47 95       	ror	r20

00002d14 <__fp_splitA>:
    2d14:	88 0f       	add	r24, r24
    2d16:	97 fb       	bst	r25, 7
    2d18:	99 1f       	adc	r25, r25
    2d1a:	61 f0       	breq	.+24     	; 0x2d34 <__fp_splitA+0x20>
    2d1c:	9f 3f       	cpi	r25, 0xFF	; 255
    2d1e:	79 f0       	breq	.+30     	; 0x2d3e <__fp_splitA+0x2a>
    2d20:	87 95       	ror	r24
    2d22:	08 95       	ret
    2d24:	12 16       	cp	r1, r18
    2d26:	13 06       	cpc	r1, r19
    2d28:	14 06       	cpc	r1, r20
    2d2a:	55 1f       	adc	r21, r21
    2d2c:	f2 cf       	rjmp	.-28     	; 0x2d12 <__fp_split3+0xe>
    2d2e:	46 95       	lsr	r20
    2d30:	f1 df       	rcall	.-30     	; 0x2d14 <__fp_splitA>
    2d32:	08 c0       	rjmp	.+16     	; 0x2d44 <__fp_splitA+0x30>
    2d34:	16 16       	cp	r1, r22
    2d36:	17 06       	cpc	r1, r23
    2d38:	18 06       	cpc	r1, r24
    2d3a:	99 1f       	adc	r25, r25
    2d3c:	f1 cf       	rjmp	.-30     	; 0x2d20 <__fp_splitA+0xc>
    2d3e:	86 95       	lsr	r24
    2d40:	71 05       	cpc	r23, r1
    2d42:	61 05       	cpc	r22, r1
    2d44:	08 94       	sec
    2d46:	08 95       	ret

00002d48 <__fp_zero>:
    2d48:	e8 94       	clt

00002d4a <__fp_szero>:
    2d4a:	bb 27       	eor	r27, r27
    2d4c:	66 27       	eor	r22, r22
    2d4e:	77 27       	eor	r23, r23
    2d50:	cb 01       	movw	r24, r22
    2d52:	97 f9       	bld	r25, 7
    2d54:	08 95       	ret

00002d56 <__mulsf3>:
    2d56:	0b d0       	rcall	.+22     	; 0x2d6e <__mulsf3x>
    2d58:	c4 cf       	rjmp	.-120    	; 0x2ce2 <__fp_round>
    2d5a:	b5 df       	rcall	.-150    	; 0x2cc6 <__fp_pscA>
    2d5c:	28 f0       	brcs	.+10     	; 0x2d68 <__mulsf3+0x12>
    2d5e:	ba df       	rcall	.-140    	; 0x2cd4 <__fp_pscB>
    2d60:	18 f0       	brcs	.+6      	; 0x2d68 <__mulsf3+0x12>
    2d62:	95 23       	and	r25, r21
    2d64:	09 f0       	breq	.+2      	; 0x2d68 <__mulsf3+0x12>
    2d66:	a6 cf       	rjmp	.-180    	; 0x2cb4 <__fp_inf>
    2d68:	ab cf       	rjmp	.-170    	; 0x2cc0 <__fp_nan>
    2d6a:	11 24       	eor	r1, r1
    2d6c:	ee cf       	rjmp	.-36     	; 0x2d4a <__fp_szero>

00002d6e <__mulsf3x>:
    2d6e:	ca df       	rcall	.-108    	; 0x2d04 <__fp_split3>
    2d70:	a0 f3       	brcs	.-24     	; 0x2d5a <__mulsf3+0x4>

00002d72 <__mulsf3_pse>:
    2d72:	95 9f       	mul	r25, r21
    2d74:	d1 f3       	breq	.-12     	; 0x2d6a <__mulsf3+0x14>
    2d76:	95 0f       	add	r25, r21
    2d78:	50 e0       	ldi	r21, 0x00	; 0
    2d7a:	55 1f       	adc	r21, r21
    2d7c:	62 9f       	mul	r22, r18
    2d7e:	f0 01       	movw	r30, r0
    2d80:	72 9f       	mul	r23, r18
    2d82:	bb 27       	eor	r27, r27
    2d84:	f0 0d       	add	r31, r0
    2d86:	b1 1d       	adc	r27, r1
    2d88:	63 9f       	mul	r22, r19
    2d8a:	aa 27       	eor	r26, r26
    2d8c:	f0 0d       	add	r31, r0
    2d8e:	b1 1d       	adc	r27, r1
    2d90:	aa 1f       	adc	r26, r26
    2d92:	64 9f       	mul	r22, r20
    2d94:	66 27       	eor	r22, r22
    2d96:	b0 0d       	add	r27, r0
    2d98:	a1 1d       	adc	r26, r1
    2d9a:	66 1f       	adc	r22, r22
    2d9c:	82 9f       	mul	r24, r18
    2d9e:	22 27       	eor	r18, r18
    2da0:	b0 0d       	add	r27, r0
    2da2:	a1 1d       	adc	r26, r1
    2da4:	62 1f       	adc	r22, r18
    2da6:	73 9f       	mul	r23, r19
    2da8:	b0 0d       	add	r27, r0
    2daa:	a1 1d       	adc	r26, r1
    2dac:	62 1f       	adc	r22, r18
    2dae:	83 9f       	mul	r24, r19
    2db0:	a0 0d       	add	r26, r0
    2db2:	61 1d       	adc	r22, r1
    2db4:	22 1f       	adc	r18, r18
    2db6:	74 9f       	mul	r23, r20
    2db8:	33 27       	eor	r19, r19
    2dba:	a0 0d       	add	r26, r0
    2dbc:	61 1d       	adc	r22, r1
    2dbe:	23 1f       	adc	r18, r19
    2dc0:	84 9f       	mul	r24, r20
    2dc2:	60 0d       	add	r22, r0
    2dc4:	21 1d       	adc	r18, r1
    2dc6:	82 2f       	mov	r24, r18
    2dc8:	76 2f       	mov	r23, r22
    2dca:	6a 2f       	mov	r22, r26
    2dcc:	11 24       	eor	r1, r1
    2dce:	9f 57       	subi	r25, 0x7F	; 127
    2dd0:	50 40       	sbci	r21, 0x00	; 0
    2dd2:	8a f0       	brmi	.+34     	; 0x2df6 <__mulsf3_pse+0x84>
    2dd4:	e1 f0       	breq	.+56     	; 0x2e0e <__mulsf3_pse+0x9c>
    2dd6:	88 23       	and	r24, r24
    2dd8:	4a f0       	brmi	.+18     	; 0x2dec <__mulsf3_pse+0x7a>
    2dda:	ee 0f       	add	r30, r30
    2ddc:	ff 1f       	adc	r31, r31
    2dde:	bb 1f       	adc	r27, r27
    2de0:	66 1f       	adc	r22, r22
    2de2:	77 1f       	adc	r23, r23
    2de4:	88 1f       	adc	r24, r24
    2de6:	91 50       	subi	r25, 0x01	; 1
    2de8:	50 40       	sbci	r21, 0x00	; 0
    2dea:	a9 f7       	brne	.-22     	; 0x2dd6 <__mulsf3_pse+0x64>
    2dec:	9e 3f       	cpi	r25, 0xFE	; 254
    2dee:	51 05       	cpc	r21, r1
    2df0:	70 f0       	brcs	.+28     	; 0x2e0e <__mulsf3_pse+0x9c>
    2df2:	60 cf       	rjmp	.-320    	; 0x2cb4 <__fp_inf>
    2df4:	aa cf       	rjmp	.-172    	; 0x2d4a <__fp_szero>
    2df6:	5f 3f       	cpi	r21, 0xFF	; 255
    2df8:	ec f3       	brlt	.-6      	; 0x2df4 <__mulsf3_pse+0x82>
    2dfa:	98 3e       	cpi	r25, 0xE8	; 232
    2dfc:	dc f3       	brlt	.-10     	; 0x2df4 <__mulsf3_pse+0x82>
    2dfe:	86 95       	lsr	r24
    2e00:	77 95       	ror	r23
    2e02:	67 95       	ror	r22
    2e04:	b7 95       	ror	r27
    2e06:	f7 95       	ror	r31
    2e08:	e7 95       	ror	r30
    2e0a:	9f 5f       	subi	r25, 0xFF	; 255
    2e0c:	c1 f7       	brne	.-16     	; 0x2dfe <__mulsf3_pse+0x8c>
    2e0e:	fe 2b       	or	r31, r30
    2e10:	88 0f       	add	r24, r24
    2e12:	91 1d       	adc	r25, r1
    2e14:	96 95       	lsr	r25
    2e16:	87 95       	ror	r24
    2e18:	97 f9       	bld	r25, 7
    2e1a:	08 95       	ret

00002e1c <__mulsi3>:
    2e1c:	db 01       	movw	r26, r22
    2e1e:	8f 93       	push	r24
    2e20:	9f 93       	push	r25
    2e22:	11 d0       	rcall	.+34     	; 0x2e46 <__muluhisi3>
    2e24:	bf 91       	pop	r27
    2e26:	af 91       	pop	r26
    2e28:	a2 9f       	mul	r26, r18
    2e2a:	80 0d       	add	r24, r0
    2e2c:	91 1d       	adc	r25, r1
    2e2e:	a3 9f       	mul	r26, r19
    2e30:	90 0d       	add	r25, r0
    2e32:	b2 9f       	mul	r27, r18
    2e34:	90 0d       	add	r25, r0
    2e36:	11 24       	eor	r1, r1
    2e38:	08 95       	ret

00002e3a <__tablejump2__>:
    2e3a:	ee 0f       	add	r30, r30
    2e3c:	ff 1f       	adc	r31, r31
    2e3e:	05 90       	lpm	r0, Z+
    2e40:	f4 91       	lpm	r31, Z
    2e42:	e0 2d       	mov	r30, r0
    2e44:	09 94       	ijmp

00002e46 <__muluhisi3>:
    2e46:	09 d0       	rcall	.+18     	; 0x2e5a <__umulhisi3>
    2e48:	a5 9f       	mul	r26, r21
    2e4a:	90 0d       	add	r25, r0
    2e4c:	b4 9f       	mul	r27, r20
    2e4e:	90 0d       	add	r25, r0
    2e50:	a4 9f       	mul	r26, r20
    2e52:	80 0d       	add	r24, r0
    2e54:	91 1d       	adc	r25, r1
    2e56:	11 24       	eor	r1, r1
    2e58:	08 95       	ret

00002e5a <__umulhisi3>:
    2e5a:	a2 9f       	mul	r26, r18
    2e5c:	b0 01       	movw	r22, r0
    2e5e:	b3 9f       	mul	r27, r19
    2e60:	c0 01       	movw	r24, r0
    2e62:	a3 9f       	mul	r26, r19
    2e64:	70 0d       	add	r23, r0
    2e66:	81 1d       	adc	r24, r1
    2e68:	11 24       	eor	r1, r1
    2e6a:	91 1d       	adc	r25, r1
    2e6c:	b2 9f       	mul	r27, r18
    2e6e:	70 0d       	add	r23, r0
    2e70:	81 1d       	adc	r24, r1
    2e72:	11 24       	eor	r1, r1
    2e74:	91 1d       	adc	r25, r1
    2e76:	08 95       	ret

00002e78 <sprintf>:
    2e78:	ae e0       	ldi	r26, 0x0E	; 14
    2e7a:	b0 e0       	ldi	r27, 0x00	; 0
    2e7c:	e1 e4       	ldi	r30, 0x41	; 65
    2e7e:	f7 e1       	ldi	r31, 0x17	; 23
    2e80:	c4 c2       	rjmp	.+1416   	; 0x340a <__prologue_saves__+0x1c>
    2e82:	0d 89       	ldd	r16, Y+21	; 0x15
    2e84:	1e 89       	ldd	r17, Y+22	; 0x16
    2e86:	86 e0       	ldi	r24, 0x06	; 6
    2e88:	8c 83       	std	Y+4, r24	; 0x04
    2e8a:	1a 83       	std	Y+2, r17	; 0x02
    2e8c:	09 83       	std	Y+1, r16	; 0x01
    2e8e:	8f ef       	ldi	r24, 0xFF	; 255
    2e90:	9f e7       	ldi	r25, 0x7F	; 127
    2e92:	9e 83       	std	Y+6, r25	; 0x06
    2e94:	8d 83       	std	Y+5, r24	; 0x05
    2e96:	ae 01       	movw	r20, r28
    2e98:	47 5e       	subi	r20, 0xE7	; 231
    2e9a:	5f 4f       	sbci	r21, 0xFF	; 255
    2e9c:	6f 89       	ldd	r22, Y+23	; 0x17
    2e9e:	78 8d       	ldd	r23, Y+24	; 0x18
    2ea0:	ce 01       	movw	r24, r28
    2ea2:	01 96       	adiw	r24, 0x01	; 1
    2ea4:	08 d0       	rcall	.+16     	; 0x2eb6 <vfprintf>
    2ea6:	ef 81       	ldd	r30, Y+7	; 0x07
    2ea8:	f8 85       	ldd	r31, Y+8	; 0x08
    2eaa:	e0 0f       	add	r30, r16
    2eac:	f1 1f       	adc	r31, r17
    2eae:	10 82       	st	Z, r1
    2eb0:	2e 96       	adiw	r28, 0x0e	; 14
    2eb2:	e4 e0       	ldi	r30, 0x04	; 4
    2eb4:	c6 c2       	rjmp	.+1420   	; 0x3442 <__epilogue_restores__+0x1c>

00002eb6 <vfprintf>:
    2eb6:	ab e0       	ldi	r26, 0x0B	; 11
    2eb8:	b0 e0       	ldi	r27, 0x00	; 0
    2eba:	e0 e6       	ldi	r30, 0x60	; 96
    2ebc:	f7 e1       	ldi	r31, 0x17	; 23
    2ebe:	97 c2       	rjmp	.+1326   	; 0x33ee <__prologue_saves__>
    2ec0:	6c 01       	movw	r12, r24
    2ec2:	7b 01       	movw	r14, r22
    2ec4:	8a 01       	movw	r16, r20
    2ec6:	fc 01       	movw	r30, r24
    2ec8:	17 82       	std	Z+7, r1	; 0x07
    2eca:	16 82       	std	Z+6, r1	; 0x06
    2ecc:	83 81       	ldd	r24, Z+3	; 0x03
    2ece:	81 ff       	sbrs	r24, 1
    2ed0:	bf c1       	rjmp	.+894    	; 0x3250 <vfprintf+0x39a>
    2ed2:	ce 01       	movw	r24, r28
    2ed4:	01 96       	adiw	r24, 0x01	; 1
    2ed6:	3c 01       	movw	r6, r24
    2ed8:	f6 01       	movw	r30, r12
    2eda:	93 81       	ldd	r25, Z+3	; 0x03
    2edc:	f7 01       	movw	r30, r14
    2ede:	93 fd       	sbrc	r25, 3
    2ee0:	85 91       	lpm	r24, Z+
    2ee2:	93 ff       	sbrs	r25, 3
    2ee4:	81 91       	ld	r24, Z+
    2ee6:	7f 01       	movw	r14, r30
    2ee8:	88 23       	and	r24, r24
    2eea:	09 f4       	brne	.+2      	; 0x2eee <vfprintf+0x38>
    2eec:	ad c1       	rjmp	.+858    	; 0x3248 <vfprintf+0x392>
    2eee:	85 32       	cpi	r24, 0x25	; 37
    2ef0:	39 f4       	brne	.+14     	; 0x2f00 <vfprintf+0x4a>
    2ef2:	93 fd       	sbrc	r25, 3
    2ef4:	85 91       	lpm	r24, Z+
    2ef6:	93 ff       	sbrs	r25, 3
    2ef8:	81 91       	ld	r24, Z+
    2efa:	7f 01       	movw	r14, r30
    2efc:	85 32       	cpi	r24, 0x25	; 37
    2efe:	21 f4       	brne	.+8      	; 0x2f08 <vfprintf+0x52>
    2f00:	b6 01       	movw	r22, r12
    2f02:	90 e0       	ldi	r25, 0x00	; 0
    2f04:	c0 d1       	rcall	.+896    	; 0x3286 <fputc>
    2f06:	e8 cf       	rjmp	.-48     	; 0x2ed8 <vfprintf+0x22>
    2f08:	91 2c       	mov	r9, r1
    2f0a:	21 2c       	mov	r2, r1
    2f0c:	31 2c       	mov	r3, r1
    2f0e:	ff e1       	ldi	r31, 0x1F	; 31
    2f10:	f3 15       	cp	r31, r3
    2f12:	d8 f0       	brcs	.+54     	; 0x2f4a <vfprintf+0x94>
    2f14:	8b 32       	cpi	r24, 0x2B	; 43
    2f16:	79 f0       	breq	.+30     	; 0x2f36 <vfprintf+0x80>
    2f18:	38 f4       	brcc	.+14     	; 0x2f28 <vfprintf+0x72>
    2f1a:	80 32       	cpi	r24, 0x20	; 32
    2f1c:	79 f0       	breq	.+30     	; 0x2f3c <vfprintf+0x86>
    2f1e:	83 32       	cpi	r24, 0x23	; 35
    2f20:	a1 f4       	brne	.+40     	; 0x2f4a <vfprintf+0x94>
    2f22:	23 2d       	mov	r18, r3
    2f24:	20 61       	ori	r18, 0x10	; 16
    2f26:	1d c0       	rjmp	.+58     	; 0x2f62 <vfprintf+0xac>
    2f28:	8d 32       	cpi	r24, 0x2D	; 45
    2f2a:	61 f0       	breq	.+24     	; 0x2f44 <vfprintf+0x8e>
    2f2c:	80 33       	cpi	r24, 0x30	; 48
    2f2e:	69 f4       	brne	.+26     	; 0x2f4a <vfprintf+0x94>
    2f30:	23 2d       	mov	r18, r3
    2f32:	21 60       	ori	r18, 0x01	; 1
    2f34:	16 c0       	rjmp	.+44     	; 0x2f62 <vfprintf+0xac>
    2f36:	83 2d       	mov	r24, r3
    2f38:	82 60       	ori	r24, 0x02	; 2
    2f3a:	38 2e       	mov	r3, r24
    2f3c:	e3 2d       	mov	r30, r3
    2f3e:	e4 60       	ori	r30, 0x04	; 4
    2f40:	3e 2e       	mov	r3, r30
    2f42:	2a c0       	rjmp	.+84     	; 0x2f98 <vfprintf+0xe2>
    2f44:	f3 2d       	mov	r31, r3
    2f46:	f8 60       	ori	r31, 0x08	; 8
    2f48:	1d c0       	rjmp	.+58     	; 0x2f84 <vfprintf+0xce>
    2f4a:	37 fc       	sbrc	r3, 7
    2f4c:	2d c0       	rjmp	.+90     	; 0x2fa8 <vfprintf+0xf2>
    2f4e:	20 ed       	ldi	r18, 0xD0	; 208
    2f50:	28 0f       	add	r18, r24
    2f52:	2a 30       	cpi	r18, 0x0A	; 10
    2f54:	40 f0       	brcs	.+16     	; 0x2f66 <vfprintf+0xb0>
    2f56:	8e 32       	cpi	r24, 0x2E	; 46
    2f58:	b9 f4       	brne	.+46     	; 0x2f88 <vfprintf+0xd2>
    2f5a:	36 fc       	sbrc	r3, 6
    2f5c:	75 c1       	rjmp	.+746    	; 0x3248 <vfprintf+0x392>
    2f5e:	23 2d       	mov	r18, r3
    2f60:	20 64       	ori	r18, 0x40	; 64
    2f62:	32 2e       	mov	r3, r18
    2f64:	19 c0       	rjmp	.+50     	; 0x2f98 <vfprintf+0xe2>
    2f66:	36 fe       	sbrs	r3, 6
    2f68:	06 c0       	rjmp	.+12     	; 0x2f76 <vfprintf+0xc0>
    2f6a:	8a e0       	ldi	r24, 0x0A	; 10
    2f6c:	98 9e       	mul	r9, r24
    2f6e:	20 0d       	add	r18, r0
    2f70:	11 24       	eor	r1, r1
    2f72:	92 2e       	mov	r9, r18
    2f74:	11 c0       	rjmp	.+34     	; 0x2f98 <vfprintf+0xe2>
    2f76:	ea e0       	ldi	r30, 0x0A	; 10
    2f78:	2e 9e       	mul	r2, r30
    2f7a:	20 0d       	add	r18, r0
    2f7c:	11 24       	eor	r1, r1
    2f7e:	22 2e       	mov	r2, r18
    2f80:	f3 2d       	mov	r31, r3
    2f82:	f0 62       	ori	r31, 0x20	; 32
    2f84:	3f 2e       	mov	r3, r31
    2f86:	08 c0       	rjmp	.+16     	; 0x2f98 <vfprintf+0xe2>
    2f88:	8c 36       	cpi	r24, 0x6C	; 108
    2f8a:	21 f4       	brne	.+8      	; 0x2f94 <vfprintf+0xde>
    2f8c:	83 2d       	mov	r24, r3
    2f8e:	80 68       	ori	r24, 0x80	; 128
    2f90:	38 2e       	mov	r3, r24
    2f92:	02 c0       	rjmp	.+4      	; 0x2f98 <vfprintf+0xe2>
    2f94:	88 36       	cpi	r24, 0x68	; 104
    2f96:	41 f4       	brne	.+16     	; 0x2fa8 <vfprintf+0xf2>
    2f98:	f7 01       	movw	r30, r14
    2f9a:	93 fd       	sbrc	r25, 3
    2f9c:	85 91       	lpm	r24, Z+
    2f9e:	93 ff       	sbrs	r25, 3
    2fa0:	81 91       	ld	r24, Z+
    2fa2:	7f 01       	movw	r14, r30
    2fa4:	81 11       	cpse	r24, r1
    2fa6:	b3 cf       	rjmp	.-154    	; 0x2f0e <vfprintf+0x58>
    2fa8:	98 2f       	mov	r25, r24
    2faa:	9f 7d       	andi	r25, 0xDF	; 223
    2fac:	95 54       	subi	r25, 0x45	; 69
    2fae:	93 30       	cpi	r25, 0x03	; 3
    2fb0:	28 f4       	brcc	.+10     	; 0x2fbc <vfprintf+0x106>
    2fb2:	0c 5f       	subi	r16, 0xFC	; 252
    2fb4:	1f 4f       	sbci	r17, 0xFF	; 255
    2fb6:	9f e3       	ldi	r25, 0x3F	; 63
    2fb8:	99 83       	std	Y+1, r25	; 0x01
    2fba:	0d c0       	rjmp	.+26     	; 0x2fd6 <vfprintf+0x120>
    2fbc:	83 36       	cpi	r24, 0x63	; 99
    2fbe:	31 f0       	breq	.+12     	; 0x2fcc <vfprintf+0x116>
    2fc0:	83 37       	cpi	r24, 0x73	; 115
    2fc2:	71 f0       	breq	.+28     	; 0x2fe0 <vfprintf+0x12a>
    2fc4:	83 35       	cpi	r24, 0x53	; 83
    2fc6:	09 f0       	breq	.+2      	; 0x2fca <vfprintf+0x114>
    2fc8:	55 c0       	rjmp	.+170    	; 0x3074 <vfprintf+0x1be>
    2fca:	20 c0       	rjmp	.+64     	; 0x300c <vfprintf+0x156>
    2fcc:	f8 01       	movw	r30, r16
    2fce:	80 81       	ld	r24, Z
    2fd0:	89 83       	std	Y+1, r24	; 0x01
    2fd2:	0e 5f       	subi	r16, 0xFE	; 254
    2fd4:	1f 4f       	sbci	r17, 0xFF	; 255
    2fd6:	88 24       	eor	r8, r8
    2fd8:	83 94       	inc	r8
    2fda:	91 2c       	mov	r9, r1
    2fdc:	53 01       	movw	r10, r6
    2fde:	12 c0       	rjmp	.+36     	; 0x3004 <vfprintf+0x14e>
    2fe0:	28 01       	movw	r4, r16
    2fe2:	f2 e0       	ldi	r31, 0x02	; 2
    2fe4:	4f 0e       	add	r4, r31
    2fe6:	51 1c       	adc	r5, r1
    2fe8:	f8 01       	movw	r30, r16
    2fea:	a0 80       	ld	r10, Z
    2fec:	b1 80       	ldd	r11, Z+1	; 0x01
    2fee:	36 fe       	sbrs	r3, 6
    2ff0:	03 c0       	rjmp	.+6      	; 0x2ff8 <vfprintf+0x142>
    2ff2:	69 2d       	mov	r22, r9
    2ff4:	70 e0       	ldi	r23, 0x00	; 0
    2ff6:	02 c0       	rjmp	.+4      	; 0x2ffc <vfprintf+0x146>
    2ff8:	6f ef       	ldi	r22, 0xFF	; 255
    2ffa:	7f ef       	ldi	r23, 0xFF	; 255
    2ffc:	c5 01       	movw	r24, r10
    2ffe:	38 d1       	rcall	.+624    	; 0x3270 <strnlen>
    3000:	4c 01       	movw	r8, r24
    3002:	82 01       	movw	r16, r4
    3004:	f3 2d       	mov	r31, r3
    3006:	ff 77       	andi	r31, 0x7F	; 127
    3008:	3f 2e       	mov	r3, r31
    300a:	15 c0       	rjmp	.+42     	; 0x3036 <vfprintf+0x180>
    300c:	28 01       	movw	r4, r16
    300e:	22 e0       	ldi	r18, 0x02	; 2
    3010:	42 0e       	add	r4, r18
    3012:	51 1c       	adc	r5, r1
    3014:	f8 01       	movw	r30, r16
    3016:	a0 80       	ld	r10, Z
    3018:	b1 80       	ldd	r11, Z+1	; 0x01
    301a:	36 fe       	sbrs	r3, 6
    301c:	03 c0       	rjmp	.+6      	; 0x3024 <vfprintf+0x16e>
    301e:	69 2d       	mov	r22, r9
    3020:	70 e0       	ldi	r23, 0x00	; 0
    3022:	02 c0       	rjmp	.+4      	; 0x3028 <vfprintf+0x172>
    3024:	6f ef       	ldi	r22, 0xFF	; 255
    3026:	7f ef       	ldi	r23, 0xFF	; 255
    3028:	c5 01       	movw	r24, r10
    302a:	17 d1       	rcall	.+558    	; 0x325a <strnlen_P>
    302c:	4c 01       	movw	r8, r24
    302e:	f3 2d       	mov	r31, r3
    3030:	f0 68       	ori	r31, 0x80	; 128
    3032:	3f 2e       	mov	r3, r31
    3034:	82 01       	movw	r16, r4
    3036:	33 fc       	sbrc	r3, 3
    3038:	19 c0       	rjmp	.+50     	; 0x306c <vfprintf+0x1b6>
    303a:	82 2d       	mov	r24, r2
    303c:	90 e0       	ldi	r25, 0x00	; 0
    303e:	88 16       	cp	r8, r24
    3040:	99 06       	cpc	r9, r25
    3042:	a0 f4       	brcc	.+40     	; 0x306c <vfprintf+0x1b6>
    3044:	b6 01       	movw	r22, r12
    3046:	80 e2       	ldi	r24, 0x20	; 32
    3048:	90 e0       	ldi	r25, 0x00	; 0
    304a:	1d d1       	rcall	.+570    	; 0x3286 <fputc>
    304c:	2a 94       	dec	r2
    304e:	f5 cf       	rjmp	.-22     	; 0x303a <vfprintf+0x184>
    3050:	f5 01       	movw	r30, r10
    3052:	37 fc       	sbrc	r3, 7
    3054:	85 91       	lpm	r24, Z+
    3056:	37 fe       	sbrs	r3, 7
    3058:	81 91       	ld	r24, Z+
    305a:	5f 01       	movw	r10, r30
    305c:	b6 01       	movw	r22, r12
    305e:	90 e0       	ldi	r25, 0x00	; 0
    3060:	12 d1       	rcall	.+548    	; 0x3286 <fputc>
    3062:	21 10       	cpse	r2, r1
    3064:	2a 94       	dec	r2
    3066:	21 e0       	ldi	r18, 0x01	; 1
    3068:	82 1a       	sub	r8, r18
    306a:	91 08       	sbc	r9, r1
    306c:	81 14       	cp	r8, r1
    306e:	91 04       	cpc	r9, r1
    3070:	79 f7       	brne	.-34     	; 0x3050 <vfprintf+0x19a>
    3072:	e1 c0       	rjmp	.+450    	; 0x3236 <vfprintf+0x380>
    3074:	84 36       	cpi	r24, 0x64	; 100
    3076:	11 f0       	breq	.+4      	; 0x307c <vfprintf+0x1c6>
    3078:	89 36       	cpi	r24, 0x69	; 105
    307a:	39 f5       	brne	.+78     	; 0x30ca <vfprintf+0x214>
    307c:	f8 01       	movw	r30, r16
    307e:	37 fe       	sbrs	r3, 7
    3080:	07 c0       	rjmp	.+14     	; 0x3090 <vfprintf+0x1da>
    3082:	60 81       	ld	r22, Z
    3084:	71 81       	ldd	r23, Z+1	; 0x01
    3086:	82 81       	ldd	r24, Z+2	; 0x02
    3088:	93 81       	ldd	r25, Z+3	; 0x03
    308a:	0c 5f       	subi	r16, 0xFC	; 252
    308c:	1f 4f       	sbci	r17, 0xFF	; 255
    308e:	08 c0       	rjmp	.+16     	; 0x30a0 <vfprintf+0x1ea>
    3090:	60 81       	ld	r22, Z
    3092:	71 81       	ldd	r23, Z+1	; 0x01
    3094:	07 2e       	mov	r0, r23
    3096:	00 0c       	add	r0, r0
    3098:	88 0b       	sbc	r24, r24
    309a:	99 0b       	sbc	r25, r25
    309c:	0e 5f       	subi	r16, 0xFE	; 254
    309e:	1f 4f       	sbci	r17, 0xFF	; 255
    30a0:	f3 2d       	mov	r31, r3
    30a2:	ff 76       	andi	r31, 0x6F	; 111
    30a4:	3f 2e       	mov	r3, r31
    30a6:	97 ff       	sbrs	r25, 7
    30a8:	09 c0       	rjmp	.+18     	; 0x30bc <vfprintf+0x206>
    30aa:	90 95       	com	r25
    30ac:	80 95       	com	r24
    30ae:	70 95       	com	r23
    30b0:	61 95       	neg	r22
    30b2:	7f 4f       	sbci	r23, 0xFF	; 255
    30b4:	8f 4f       	sbci	r24, 0xFF	; 255
    30b6:	9f 4f       	sbci	r25, 0xFF	; 255
    30b8:	f0 68       	ori	r31, 0x80	; 128
    30ba:	3f 2e       	mov	r3, r31
    30bc:	2a e0       	ldi	r18, 0x0A	; 10
    30be:	30 e0       	ldi	r19, 0x00	; 0
    30c0:	a3 01       	movw	r20, r6
    30c2:	1d d1       	rcall	.+570    	; 0x32fe <__ultoa_invert>
    30c4:	88 2e       	mov	r8, r24
    30c6:	86 18       	sub	r8, r6
    30c8:	44 c0       	rjmp	.+136    	; 0x3152 <vfprintf+0x29c>
    30ca:	85 37       	cpi	r24, 0x75	; 117
    30cc:	31 f4       	brne	.+12     	; 0x30da <vfprintf+0x224>
    30ce:	23 2d       	mov	r18, r3
    30d0:	2f 7e       	andi	r18, 0xEF	; 239
    30d2:	b2 2e       	mov	r11, r18
    30d4:	2a e0       	ldi	r18, 0x0A	; 10
    30d6:	30 e0       	ldi	r19, 0x00	; 0
    30d8:	25 c0       	rjmp	.+74     	; 0x3124 <vfprintf+0x26e>
    30da:	93 2d       	mov	r25, r3
    30dc:	99 7f       	andi	r25, 0xF9	; 249
    30de:	b9 2e       	mov	r11, r25
    30e0:	8f 36       	cpi	r24, 0x6F	; 111
    30e2:	c1 f0       	breq	.+48     	; 0x3114 <vfprintf+0x25e>
    30e4:	18 f4       	brcc	.+6      	; 0x30ec <vfprintf+0x236>
    30e6:	88 35       	cpi	r24, 0x58	; 88
    30e8:	79 f0       	breq	.+30     	; 0x3108 <vfprintf+0x252>
    30ea:	ae c0       	rjmp	.+348    	; 0x3248 <vfprintf+0x392>
    30ec:	80 37       	cpi	r24, 0x70	; 112
    30ee:	19 f0       	breq	.+6      	; 0x30f6 <vfprintf+0x240>
    30f0:	88 37       	cpi	r24, 0x78	; 120
    30f2:	21 f0       	breq	.+8      	; 0x30fc <vfprintf+0x246>
    30f4:	a9 c0       	rjmp	.+338    	; 0x3248 <vfprintf+0x392>
    30f6:	e9 2f       	mov	r30, r25
    30f8:	e0 61       	ori	r30, 0x10	; 16
    30fa:	be 2e       	mov	r11, r30
    30fc:	b4 fe       	sbrs	r11, 4
    30fe:	0d c0       	rjmp	.+26     	; 0x311a <vfprintf+0x264>
    3100:	fb 2d       	mov	r31, r11
    3102:	f4 60       	ori	r31, 0x04	; 4
    3104:	bf 2e       	mov	r11, r31
    3106:	09 c0       	rjmp	.+18     	; 0x311a <vfprintf+0x264>
    3108:	34 fe       	sbrs	r3, 4
    310a:	0a c0       	rjmp	.+20     	; 0x3120 <vfprintf+0x26a>
    310c:	29 2f       	mov	r18, r25
    310e:	26 60       	ori	r18, 0x06	; 6
    3110:	b2 2e       	mov	r11, r18
    3112:	06 c0       	rjmp	.+12     	; 0x3120 <vfprintf+0x26a>
    3114:	28 e0       	ldi	r18, 0x08	; 8
    3116:	30 e0       	ldi	r19, 0x00	; 0
    3118:	05 c0       	rjmp	.+10     	; 0x3124 <vfprintf+0x26e>
    311a:	20 e1       	ldi	r18, 0x10	; 16
    311c:	30 e0       	ldi	r19, 0x00	; 0
    311e:	02 c0       	rjmp	.+4      	; 0x3124 <vfprintf+0x26e>
    3120:	20 e1       	ldi	r18, 0x10	; 16
    3122:	32 e0       	ldi	r19, 0x02	; 2
    3124:	f8 01       	movw	r30, r16
    3126:	b7 fe       	sbrs	r11, 7
    3128:	07 c0       	rjmp	.+14     	; 0x3138 <vfprintf+0x282>
    312a:	60 81       	ld	r22, Z
    312c:	71 81       	ldd	r23, Z+1	; 0x01
    312e:	82 81       	ldd	r24, Z+2	; 0x02
    3130:	93 81       	ldd	r25, Z+3	; 0x03
    3132:	0c 5f       	subi	r16, 0xFC	; 252
    3134:	1f 4f       	sbci	r17, 0xFF	; 255
    3136:	06 c0       	rjmp	.+12     	; 0x3144 <vfprintf+0x28e>
    3138:	60 81       	ld	r22, Z
    313a:	71 81       	ldd	r23, Z+1	; 0x01
    313c:	80 e0       	ldi	r24, 0x00	; 0
    313e:	90 e0       	ldi	r25, 0x00	; 0
    3140:	0e 5f       	subi	r16, 0xFE	; 254
    3142:	1f 4f       	sbci	r17, 0xFF	; 255
    3144:	a3 01       	movw	r20, r6
    3146:	db d0       	rcall	.+438    	; 0x32fe <__ultoa_invert>
    3148:	88 2e       	mov	r8, r24
    314a:	86 18       	sub	r8, r6
    314c:	fb 2d       	mov	r31, r11
    314e:	ff 77       	andi	r31, 0x7F	; 127
    3150:	3f 2e       	mov	r3, r31
    3152:	36 fe       	sbrs	r3, 6
    3154:	0d c0       	rjmp	.+26     	; 0x3170 <vfprintf+0x2ba>
    3156:	23 2d       	mov	r18, r3
    3158:	2e 7f       	andi	r18, 0xFE	; 254
    315a:	a2 2e       	mov	r10, r18
    315c:	89 14       	cp	r8, r9
    315e:	58 f4       	brcc	.+22     	; 0x3176 <vfprintf+0x2c0>
    3160:	34 fe       	sbrs	r3, 4
    3162:	0b c0       	rjmp	.+22     	; 0x317a <vfprintf+0x2c4>
    3164:	32 fc       	sbrc	r3, 2
    3166:	09 c0       	rjmp	.+18     	; 0x317a <vfprintf+0x2c4>
    3168:	83 2d       	mov	r24, r3
    316a:	8e 7e       	andi	r24, 0xEE	; 238
    316c:	a8 2e       	mov	r10, r24
    316e:	05 c0       	rjmp	.+10     	; 0x317a <vfprintf+0x2c4>
    3170:	b8 2c       	mov	r11, r8
    3172:	a3 2c       	mov	r10, r3
    3174:	03 c0       	rjmp	.+6      	; 0x317c <vfprintf+0x2c6>
    3176:	b8 2c       	mov	r11, r8
    3178:	01 c0       	rjmp	.+2      	; 0x317c <vfprintf+0x2c6>
    317a:	b9 2c       	mov	r11, r9
    317c:	a4 fe       	sbrs	r10, 4
    317e:	0f c0       	rjmp	.+30     	; 0x319e <vfprintf+0x2e8>
    3180:	fe 01       	movw	r30, r28
    3182:	e8 0d       	add	r30, r8
    3184:	f1 1d       	adc	r31, r1
    3186:	80 81       	ld	r24, Z
    3188:	80 33       	cpi	r24, 0x30	; 48
    318a:	21 f4       	brne	.+8      	; 0x3194 <vfprintf+0x2de>
    318c:	9a 2d       	mov	r25, r10
    318e:	99 7e       	andi	r25, 0xE9	; 233
    3190:	a9 2e       	mov	r10, r25
    3192:	09 c0       	rjmp	.+18     	; 0x31a6 <vfprintf+0x2f0>
    3194:	a2 fe       	sbrs	r10, 2
    3196:	06 c0       	rjmp	.+12     	; 0x31a4 <vfprintf+0x2ee>
    3198:	b3 94       	inc	r11
    319a:	b3 94       	inc	r11
    319c:	04 c0       	rjmp	.+8      	; 0x31a6 <vfprintf+0x2f0>
    319e:	8a 2d       	mov	r24, r10
    31a0:	86 78       	andi	r24, 0x86	; 134
    31a2:	09 f0       	breq	.+2      	; 0x31a6 <vfprintf+0x2f0>
    31a4:	b3 94       	inc	r11
    31a6:	a3 fc       	sbrc	r10, 3
    31a8:	10 c0       	rjmp	.+32     	; 0x31ca <vfprintf+0x314>
    31aa:	a0 fe       	sbrs	r10, 0
    31ac:	06 c0       	rjmp	.+12     	; 0x31ba <vfprintf+0x304>
    31ae:	b2 14       	cp	r11, r2
    31b0:	80 f4       	brcc	.+32     	; 0x31d2 <vfprintf+0x31c>
    31b2:	28 0c       	add	r2, r8
    31b4:	92 2c       	mov	r9, r2
    31b6:	9b 18       	sub	r9, r11
    31b8:	0d c0       	rjmp	.+26     	; 0x31d4 <vfprintf+0x31e>
    31ba:	b2 14       	cp	r11, r2
    31bc:	58 f4       	brcc	.+22     	; 0x31d4 <vfprintf+0x31e>
    31be:	b6 01       	movw	r22, r12
    31c0:	80 e2       	ldi	r24, 0x20	; 32
    31c2:	90 e0       	ldi	r25, 0x00	; 0
    31c4:	60 d0       	rcall	.+192    	; 0x3286 <fputc>
    31c6:	b3 94       	inc	r11
    31c8:	f8 cf       	rjmp	.-16     	; 0x31ba <vfprintf+0x304>
    31ca:	b2 14       	cp	r11, r2
    31cc:	18 f4       	brcc	.+6      	; 0x31d4 <vfprintf+0x31e>
    31ce:	2b 18       	sub	r2, r11
    31d0:	02 c0       	rjmp	.+4      	; 0x31d6 <vfprintf+0x320>
    31d2:	98 2c       	mov	r9, r8
    31d4:	21 2c       	mov	r2, r1
    31d6:	a4 fe       	sbrs	r10, 4
    31d8:	0f c0       	rjmp	.+30     	; 0x31f8 <vfprintf+0x342>
    31da:	b6 01       	movw	r22, r12
    31dc:	80 e3       	ldi	r24, 0x30	; 48
    31de:	90 e0       	ldi	r25, 0x00	; 0
    31e0:	52 d0       	rcall	.+164    	; 0x3286 <fputc>
    31e2:	a2 fe       	sbrs	r10, 2
    31e4:	16 c0       	rjmp	.+44     	; 0x3212 <vfprintf+0x35c>
    31e6:	a1 fc       	sbrc	r10, 1
    31e8:	03 c0       	rjmp	.+6      	; 0x31f0 <vfprintf+0x33a>
    31ea:	88 e7       	ldi	r24, 0x78	; 120
    31ec:	90 e0       	ldi	r25, 0x00	; 0
    31ee:	02 c0       	rjmp	.+4      	; 0x31f4 <vfprintf+0x33e>
    31f0:	88 e5       	ldi	r24, 0x58	; 88
    31f2:	90 e0       	ldi	r25, 0x00	; 0
    31f4:	b6 01       	movw	r22, r12
    31f6:	0c c0       	rjmp	.+24     	; 0x3210 <vfprintf+0x35a>
    31f8:	8a 2d       	mov	r24, r10
    31fa:	86 78       	andi	r24, 0x86	; 134
    31fc:	51 f0       	breq	.+20     	; 0x3212 <vfprintf+0x35c>
    31fe:	a1 fe       	sbrs	r10, 1
    3200:	02 c0       	rjmp	.+4      	; 0x3206 <vfprintf+0x350>
    3202:	8b e2       	ldi	r24, 0x2B	; 43
    3204:	01 c0       	rjmp	.+2      	; 0x3208 <vfprintf+0x352>
    3206:	80 e2       	ldi	r24, 0x20	; 32
    3208:	a7 fc       	sbrc	r10, 7
    320a:	8d e2       	ldi	r24, 0x2D	; 45
    320c:	b6 01       	movw	r22, r12
    320e:	90 e0       	ldi	r25, 0x00	; 0
    3210:	3a d0       	rcall	.+116    	; 0x3286 <fputc>
    3212:	89 14       	cp	r8, r9
    3214:	30 f4       	brcc	.+12     	; 0x3222 <vfprintf+0x36c>
    3216:	b6 01       	movw	r22, r12
    3218:	80 e3       	ldi	r24, 0x30	; 48
    321a:	90 e0       	ldi	r25, 0x00	; 0
    321c:	34 d0       	rcall	.+104    	; 0x3286 <fputc>
    321e:	9a 94       	dec	r9
    3220:	f8 cf       	rjmp	.-16     	; 0x3212 <vfprintf+0x35c>
    3222:	8a 94       	dec	r8
    3224:	f3 01       	movw	r30, r6
    3226:	e8 0d       	add	r30, r8
    3228:	f1 1d       	adc	r31, r1
    322a:	80 81       	ld	r24, Z
    322c:	b6 01       	movw	r22, r12
    322e:	90 e0       	ldi	r25, 0x00	; 0
    3230:	2a d0       	rcall	.+84     	; 0x3286 <fputc>
    3232:	81 10       	cpse	r8, r1
    3234:	f6 cf       	rjmp	.-20     	; 0x3222 <vfprintf+0x36c>
    3236:	22 20       	and	r2, r2
    3238:	09 f4       	brne	.+2      	; 0x323c <vfprintf+0x386>
    323a:	4e ce       	rjmp	.-868    	; 0x2ed8 <vfprintf+0x22>
    323c:	b6 01       	movw	r22, r12
    323e:	80 e2       	ldi	r24, 0x20	; 32
    3240:	90 e0       	ldi	r25, 0x00	; 0
    3242:	21 d0       	rcall	.+66     	; 0x3286 <fputc>
    3244:	2a 94       	dec	r2
    3246:	f7 cf       	rjmp	.-18     	; 0x3236 <vfprintf+0x380>
    3248:	f6 01       	movw	r30, r12
    324a:	86 81       	ldd	r24, Z+6	; 0x06
    324c:	97 81       	ldd	r25, Z+7	; 0x07
    324e:	02 c0       	rjmp	.+4      	; 0x3254 <vfprintf+0x39e>
    3250:	8f ef       	ldi	r24, 0xFF	; 255
    3252:	9f ef       	ldi	r25, 0xFF	; 255
    3254:	2b 96       	adiw	r28, 0x0b	; 11
    3256:	e2 e1       	ldi	r30, 0x12	; 18
    3258:	e6 c0       	rjmp	.+460    	; 0x3426 <__epilogue_restores__>

0000325a <strnlen_P>:
    325a:	fc 01       	movw	r30, r24
    325c:	05 90       	lpm	r0, Z+
    325e:	61 50       	subi	r22, 0x01	; 1
    3260:	70 40       	sbci	r23, 0x00	; 0
    3262:	01 10       	cpse	r0, r1
    3264:	d8 f7       	brcc	.-10     	; 0x325c <strnlen_P+0x2>
    3266:	80 95       	com	r24
    3268:	90 95       	com	r25
    326a:	8e 0f       	add	r24, r30
    326c:	9f 1f       	adc	r25, r31
    326e:	08 95       	ret

00003270 <strnlen>:
    3270:	fc 01       	movw	r30, r24
    3272:	61 50       	subi	r22, 0x01	; 1
    3274:	70 40       	sbci	r23, 0x00	; 0
    3276:	01 90       	ld	r0, Z+
    3278:	01 10       	cpse	r0, r1
    327a:	d8 f7       	brcc	.-10     	; 0x3272 <strnlen+0x2>
    327c:	80 95       	com	r24
    327e:	90 95       	com	r25
    3280:	8e 0f       	add	r24, r30
    3282:	9f 1f       	adc	r25, r31
    3284:	08 95       	ret

00003286 <fputc>:
    3286:	0f 93       	push	r16
    3288:	1f 93       	push	r17
    328a:	cf 93       	push	r28
    328c:	df 93       	push	r29
    328e:	fb 01       	movw	r30, r22
    3290:	23 81       	ldd	r18, Z+3	; 0x03
    3292:	21 fd       	sbrc	r18, 1
    3294:	03 c0       	rjmp	.+6      	; 0x329c <fputc+0x16>
    3296:	8f ef       	ldi	r24, 0xFF	; 255
    3298:	9f ef       	ldi	r25, 0xFF	; 255
    329a:	2c c0       	rjmp	.+88     	; 0x32f4 <fputc+0x6e>
    329c:	22 ff       	sbrs	r18, 2
    329e:	16 c0       	rjmp	.+44     	; 0x32cc <fputc+0x46>
    32a0:	46 81       	ldd	r20, Z+6	; 0x06
    32a2:	57 81       	ldd	r21, Z+7	; 0x07
    32a4:	24 81       	ldd	r18, Z+4	; 0x04
    32a6:	35 81       	ldd	r19, Z+5	; 0x05
    32a8:	42 17       	cp	r20, r18
    32aa:	53 07       	cpc	r21, r19
    32ac:	44 f4       	brge	.+16     	; 0x32be <fputc+0x38>
    32ae:	a0 81       	ld	r26, Z
    32b0:	b1 81       	ldd	r27, Z+1	; 0x01
    32b2:	9d 01       	movw	r18, r26
    32b4:	2f 5f       	subi	r18, 0xFF	; 255
    32b6:	3f 4f       	sbci	r19, 0xFF	; 255
    32b8:	31 83       	std	Z+1, r19	; 0x01
    32ba:	20 83       	st	Z, r18
    32bc:	8c 93       	st	X, r24
    32be:	26 81       	ldd	r18, Z+6	; 0x06
    32c0:	37 81       	ldd	r19, Z+7	; 0x07
    32c2:	2f 5f       	subi	r18, 0xFF	; 255
    32c4:	3f 4f       	sbci	r19, 0xFF	; 255
    32c6:	37 83       	std	Z+7, r19	; 0x07
    32c8:	26 83       	std	Z+6, r18	; 0x06
    32ca:	14 c0       	rjmp	.+40     	; 0x32f4 <fputc+0x6e>
    32cc:	8b 01       	movw	r16, r22
    32ce:	ec 01       	movw	r28, r24
    32d0:	fb 01       	movw	r30, r22
    32d2:	00 84       	ldd	r0, Z+8	; 0x08
    32d4:	f1 85       	ldd	r31, Z+9	; 0x09
    32d6:	e0 2d       	mov	r30, r0
    32d8:	09 95       	icall
    32da:	89 2b       	or	r24, r25
    32dc:	e1 f6       	brne	.-72     	; 0x3296 <fputc+0x10>
    32de:	d8 01       	movw	r26, r16
    32e0:	16 96       	adiw	r26, 0x06	; 6
    32e2:	8d 91       	ld	r24, X+
    32e4:	9c 91       	ld	r25, X
    32e6:	17 97       	sbiw	r26, 0x07	; 7
    32e8:	01 96       	adiw	r24, 0x01	; 1
    32ea:	17 96       	adiw	r26, 0x07	; 7
    32ec:	9c 93       	st	X, r25
    32ee:	8e 93       	st	-X, r24
    32f0:	16 97       	sbiw	r26, 0x06	; 6
    32f2:	ce 01       	movw	r24, r28
    32f4:	df 91       	pop	r29
    32f6:	cf 91       	pop	r28
    32f8:	1f 91       	pop	r17
    32fa:	0f 91       	pop	r16
    32fc:	08 95       	ret

000032fe <__ultoa_invert>:
    32fe:	fa 01       	movw	r30, r20
    3300:	aa 27       	eor	r26, r26
    3302:	28 30       	cpi	r18, 0x08	; 8
    3304:	51 f1       	breq	.+84     	; 0x335a <__ultoa_invert+0x5c>
    3306:	20 31       	cpi	r18, 0x10	; 16
    3308:	81 f1       	breq	.+96     	; 0x336a <__ultoa_invert+0x6c>
    330a:	e8 94       	clt
    330c:	6f 93       	push	r22
    330e:	6e 7f       	andi	r22, 0xFE	; 254
    3310:	6e 5f       	subi	r22, 0xFE	; 254
    3312:	7f 4f       	sbci	r23, 0xFF	; 255
    3314:	8f 4f       	sbci	r24, 0xFF	; 255
    3316:	9f 4f       	sbci	r25, 0xFF	; 255
    3318:	af 4f       	sbci	r26, 0xFF	; 255
    331a:	b1 e0       	ldi	r27, 0x01	; 1
    331c:	3e d0       	rcall	.+124    	; 0x339a <__ultoa_invert+0x9c>
    331e:	b4 e0       	ldi	r27, 0x04	; 4
    3320:	3c d0       	rcall	.+120    	; 0x339a <__ultoa_invert+0x9c>
    3322:	67 0f       	add	r22, r23
    3324:	78 1f       	adc	r23, r24
    3326:	89 1f       	adc	r24, r25
    3328:	9a 1f       	adc	r25, r26
    332a:	a1 1d       	adc	r26, r1
    332c:	68 0f       	add	r22, r24
    332e:	79 1f       	adc	r23, r25
    3330:	8a 1f       	adc	r24, r26
    3332:	91 1d       	adc	r25, r1
    3334:	a1 1d       	adc	r26, r1
    3336:	6a 0f       	add	r22, r26
    3338:	71 1d       	adc	r23, r1
    333a:	81 1d       	adc	r24, r1
    333c:	91 1d       	adc	r25, r1
    333e:	a1 1d       	adc	r26, r1
    3340:	20 d0       	rcall	.+64     	; 0x3382 <__ultoa_invert+0x84>
    3342:	09 f4       	brne	.+2      	; 0x3346 <__ultoa_invert+0x48>
    3344:	68 94       	set
    3346:	3f 91       	pop	r19
    3348:	2a e0       	ldi	r18, 0x0A	; 10
    334a:	26 9f       	mul	r18, r22
    334c:	11 24       	eor	r1, r1
    334e:	30 19       	sub	r19, r0
    3350:	30 5d       	subi	r19, 0xD0	; 208
    3352:	31 93       	st	Z+, r19
    3354:	de f6       	brtc	.-74     	; 0x330c <__ultoa_invert+0xe>
    3356:	cf 01       	movw	r24, r30
    3358:	08 95       	ret
    335a:	46 2f       	mov	r20, r22
    335c:	47 70       	andi	r20, 0x07	; 7
    335e:	40 5d       	subi	r20, 0xD0	; 208
    3360:	41 93       	st	Z+, r20
    3362:	b3 e0       	ldi	r27, 0x03	; 3
    3364:	0f d0       	rcall	.+30     	; 0x3384 <__ultoa_invert+0x86>
    3366:	c9 f7       	brne	.-14     	; 0x335a <__ultoa_invert+0x5c>
    3368:	f6 cf       	rjmp	.-20     	; 0x3356 <__ultoa_invert+0x58>
    336a:	46 2f       	mov	r20, r22
    336c:	4f 70       	andi	r20, 0x0F	; 15
    336e:	40 5d       	subi	r20, 0xD0	; 208
    3370:	4a 33       	cpi	r20, 0x3A	; 58
    3372:	18 f0       	brcs	.+6      	; 0x337a <__ultoa_invert+0x7c>
    3374:	49 5d       	subi	r20, 0xD9	; 217
    3376:	31 fd       	sbrc	r19, 1
    3378:	40 52       	subi	r20, 0x20	; 32
    337a:	41 93       	st	Z+, r20
    337c:	02 d0       	rcall	.+4      	; 0x3382 <__ultoa_invert+0x84>
    337e:	a9 f7       	brne	.-22     	; 0x336a <__ultoa_invert+0x6c>
    3380:	ea cf       	rjmp	.-44     	; 0x3356 <__ultoa_invert+0x58>
    3382:	b4 e0       	ldi	r27, 0x04	; 4
    3384:	a6 95       	lsr	r26
    3386:	97 95       	ror	r25
    3388:	87 95       	ror	r24
    338a:	77 95       	ror	r23
    338c:	67 95       	ror	r22
    338e:	ba 95       	dec	r27
    3390:	c9 f7       	brne	.-14     	; 0x3384 <__ultoa_invert+0x86>
    3392:	00 97       	sbiw	r24, 0x00	; 0
    3394:	61 05       	cpc	r22, r1
    3396:	71 05       	cpc	r23, r1
    3398:	08 95       	ret
    339a:	9b 01       	movw	r18, r22
    339c:	ac 01       	movw	r20, r24
    339e:	0a 2e       	mov	r0, r26
    33a0:	06 94       	lsr	r0
    33a2:	57 95       	ror	r21
    33a4:	47 95       	ror	r20
    33a6:	37 95       	ror	r19
    33a8:	27 95       	ror	r18
    33aa:	ba 95       	dec	r27
    33ac:	c9 f7       	brne	.-14     	; 0x33a0 <__ultoa_invert+0xa2>
    33ae:	62 0f       	add	r22, r18
    33b0:	73 1f       	adc	r23, r19
    33b2:	84 1f       	adc	r24, r20
    33b4:	95 1f       	adc	r25, r21
    33b6:	a0 1d       	adc	r26, r0
    33b8:	08 95       	ret

000033ba <eeprom_read_byte>:
    33ba:	f9 99       	sbic	0x1f, 1	; 31
    33bc:	fe cf       	rjmp	.-4      	; 0x33ba <eeprom_read_byte>
    33be:	92 bd       	out	0x22, r25	; 34
    33c0:	81 bd       	out	0x21, r24	; 33
    33c2:	f8 9a       	sbi	0x1f, 0	; 31
    33c4:	99 27       	eor	r25, r25
    33c6:	80 b5       	in	r24, 0x20	; 32
    33c8:	08 95       	ret

000033ca <eeprom_update_byte>:
    33ca:	26 2f       	mov	r18, r22

000033cc <eeprom_update_r18>:
    33cc:	f9 99       	sbic	0x1f, 1	; 31
    33ce:	fe cf       	rjmp	.-4      	; 0x33cc <eeprom_update_r18>
    33d0:	92 bd       	out	0x22, r25	; 34
    33d2:	81 bd       	out	0x21, r24	; 33
    33d4:	f8 9a       	sbi	0x1f, 0	; 31
    33d6:	01 97       	sbiw	r24, 0x01	; 1
    33d8:	00 b4       	in	r0, 0x20	; 32
    33da:	02 16       	cp	r0, r18
    33dc:	39 f0       	breq	.+14     	; 0x33ec <eeprom_update_r18+0x20>
    33de:	1f ba       	out	0x1f, r1	; 31
    33e0:	20 bd       	out	0x20, r18	; 32
    33e2:	0f b6       	in	r0, 0x3f	; 63
    33e4:	f8 94       	cli
    33e6:	fa 9a       	sbi	0x1f, 2	; 31
    33e8:	f9 9a       	sbi	0x1f, 1	; 31
    33ea:	0f be       	out	0x3f, r0	; 63
    33ec:	08 95       	ret

000033ee <__prologue_saves__>:
    33ee:	2f 92       	push	r2
    33f0:	3f 92       	push	r3
    33f2:	4f 92       	push	r4
    33f4:	5f 92       	push	r5
    33f6:	6f 92       	push	r6
    33f8:	7f 92       	push	r7
    33fa:	8f 92       	push	r8
    33fc:	9f 92       	push	r9
    33fe:	af 92       	push	r10
    3400:	bf 92       	push	r11
    3402:	cf 92       	push	r12
    3404:	df 92       	push	r13
    3406:	ef 92       	push	r14
    3408:	ff 92       	push	r15
    340a:	0f 93       	push	r16
    340c:	1f 93       	push	r17
    340e:	cf 93       	push	r28
    3410:	df 93       	push	r29
    3412:	cd b7       	in	r28, 0x3d	; 61
    3414:	de b7       	in	r29, 0x3e	; 62
    3416:	ca 1b       	sub	r28, r26
    3418:	db 0b       	sbc	r29, r27
    341a:	0f b6       	in	r0, 0x3f	; 63
    341c:	f8 94       	cli
    341e:	de bf       	out	0x3e, r29	; 62
    3420:	0f be       	out	0x3f, r0	; 63
    3422:	cd bf       	out	0x3d, r28	; 61
    3424:	09 94       	ijmp

00003426 <__epilogue_restores__>:
    3426:	2a 88       	ldd	r2, Y+18	; 0x12
    3428:	39 88       	ldd	r3, Y+17	; 0x11
    342a:	48 88       	ldd	r4, Y+16	; 0x10
    342c:	5f 84       	ldd	r5, Y+15	; 0x0f
    342e:	6e 84       	ldd	r6, Y+14	; 0x0e
    3430:	7d 84       	ldd	r7, Y+13	; 0x0d
    3432:	8c 84       	ldd	r8, Y+12	; 0x0c
    3434:	9b 84       	ldd	r9, Y+11	; 0x0b
    3436:	aa 84       	ldd	r10, Y+10	; 0x0a
    3438:	b9 84       	ldd	r11, Y+9	; 0x09
    343a:	c8 84       	ldd	r12, Y+8	; 0x08
    343c:	df 80       	ldd	r13, Y+7	; 0x07
    343e:	ee 80       	ldd	r14, Y+6	; 0x06
    3440:	fd 80       	ldd	r15, Y+5	; 0x05
    3442:	0c 81       	ldd	r16, Y+4	; 0x04
    3444:	1b 81       	ldd	r17, Y+3	; 0x03
    3446:	aa 81       	ldd	r26, Y+2	; 0x02
    3448:	b9 81       	ldd	r27, Y+1	; 0x01
    344a:	ce 0f       	add	r28, r30
    344c:	d1 1d       	adc	r29, r1
    344e:	0f b6       	in	r0, 0x3f	; 63
    3450:	f8 94       	cli
    3452:	de bf       	out	0x3e, r29	; 62
    3454:	0f be       	out	0x3f, r0	; 63
    3456:	cd bf       	out	0x3d, r28	; 61
    3458:	ed 01       	movw	r28, r26
    345a:	08 95       	ret

0000345c <_exit>:
    345c:	f8 94       	cli

0000345e <__stop_program>:
    345e:	ff cf       	rjmp	.-2      	; 0x345e <__stop_program>
